gpasm-1.4.2 #1169 (Jan  2 2016) build/default   9-13-2016  14:11:57         PAGE  1


LOC    OBJECT CODE    LINE  SOURCE TEXT
  VALUE

                      00001 ;--------------------------------------------------------
                      00002 ; File Created by SDCC : free open source ANSI-C Compiler
                      00003 ; Version 3.6.0 #9615 (MINGW64)
                      00004 ;--------------------------------------------------------
                      00005 ; PIC16 port for the Microchip 16-bit core micros
                      00006 ;--------------------------------------------------------
                      00007         list    p=18f65j50
                      00008         radix   dec
                      00009         CONFIG  XINST=OFF
                      00010 
                      00011 
                      00012 ;--------------------------------------------------------
                      00013 ; public variables in this module
                      00014 ;--------------------------------------------------------
  0000                00015         global  _main
  0000                00016         global  _highInterrupt
  0000                00017         global  _lowInterrupt
                      00018 
                      00019 ;--------------------------------------------------------
                      00020 ; extern variables in this module
                      00021 ;--------------------------------------------------------
  0000                00022         extern  _PMSTATLbits
  0000                00023         extern  _PMSTATHbits
  0000                00024         extern  _PMELbits
  0000                00025         extern  _PMEHbits
  0000                00026         extern  _PMMODELbits
  0000                00027         extern  _PMMODEHbits
  0000                00028         extern  _PMCONLbits
  0000                00029         extern  _PMCONHbits
  0000                00030         extern  _UEP0bits
  0000                00031         extern  _UEP1bits
  0000                00032         extern  _UEP2bits
  0000                00033         extern  _UEP3bits
  0000                00034         extern  _UEP4bits
  0000                00035         extern  _UEP5bits
  0000                00036         extern  _UEP6bits
  0000                00037         extern  _UEP7bits
  0000                00038         extern  _UEP8bits
  0000                00039         extern  _UEP9bits
  0000                00040         extern  _UEP10bits
  0000                00041         extern  _UEP11bits
  0000                00042         extern  _UEP12bits
  0000                00043         extern  _UEP13bits
  0000                00044         extern  _UEP14bits
  0000                00045         extern  _UEP15bits
  0000                00046         extern  _UIEbits
  0000                00047         extern  _UEIEbits
  0000                00048         extern  _UADDRbits
  0000                00049         extern  _UCFGbits
  0000                00050         extern  _UFRMLbits
  0000                00051         extern  _UFRMHbits
  0000                00052         extern  _UIRbits
  0000                00053         extern  _UEIRbits
gpasm-1.4.2 #1169 (Jan  2 2016) build/default   9-13-2016  14:11:57         PAGE  2


LOC    OBJECT CODE    LINE  SOURCE TEXT
  VALUE

  0000                00054         extern  _USTATbits
  0000                00055         extern  _UCONbits
  0000                00056         extern  _PMADDRHbits
  0000                00057         extern  _CMSTATbits
  0000                00058         extern  _CMSTATUSbits
  0000                00059         extern  _SSP2CON2bits
  0000                00060         extern  _SSP2CON1bits
  0000                00061         extern  _SSP2STATbits
  0000                00062         extern  _SSP2MSKbits
  0000                00063         extern  _CCP5CONbits
  0000                00064         extern  _CCP4CONbits
  0000                00065         extern  _T4CONbits
  0000                00066         extern  _CVRCONbits
  0000                00067         extern  _T3CONbits
  0000                00068         extern  _BAUDCON2bits
  0000                00069         extern  _BAUDCONbits
  0000                00070         extern  _BAUDCON1bits
  0000                00071         extern  _PORTAbits
  0000                00072         extern  _PORTBbits
  0000                00073         extern  _PORTCbits
  0000                00074         extern  _PORTDbits
  0000                00075         extern  _PORTEbits
  0000                00076         extern  _PORTFbits
  0000                00077         extern  _PORTGbits
  0000                00078         extern  _LATAbits
  0000                00079         extern  _LATBbits
  0000                00080         extern  _LATCbits
  0000                00081         extern  _LATDbits
  0000                00082         extern  _LATEbits
  0000                00083         extern  _LATFbits
  0000                00084         extern  _LATGbits
  0000                00085         extern  _DDRAbits
  0000                00086         extern  _TRISAbits
  0000                00087         extern  _DDRBbits
  0000                00088         extern  _TRISBbits
  0000                00089         extern  _DDRCbits
  0000                00090         extern  _TRISCbits
  0000                00091         extern  _DDRDbits
  0000                00092         extern  _TRISDbits
  0000                00093         extern  _DDREbits
  0000                00094         extern  _TRISEbits
  0000                00095         extern  _DDRFbits
  0000                00096         extern  _TRISFbits
  0000                00097         extern  _DDRGbits
  0000                00098         extern  _TRISGbits
  0000                00099         extern  _OSCTUNEbits
  0000                00100         extern  _RCSTA2bits
  0000                00101         extern  _PIE1bits
  0000                00102         extern  _PIR1bits
  0000                00103         extern  _IPR1bits
  0000                00104         extern  _PIE2bits
  0000                00105         extern  _PIR2bits
  0000                00106         extern  _IPR2bits
gpasm-1.4.2 #1169 (Jan  2 2016) build/default   9-13-2016  14:11:57         PAGE  3


LOC    OBJECT CODE    LINE  SOURCE TEXT
  VALUE

  0000                00107         extern  _PIE3bits
  0000                00108         extern  _PIR3bits
  0000                00109         extern  _IPR3bits
  0000                00110         extern  _EECON1bits
  0000                00111         extern  _TXSTA2bits
  0000                00112         extern  _RCSTAbits
  0000                00113         extern  _RCSTA1bits
  0000                00114         extern  _TXSTAbits
  0000                00115         extern  _TXSTA1bits
  0000                00116         extern  _CCP3CONbits
  0000                00117         extern  _ECCP3CONbits
  0000                00118         extern  _ECCP3DELbits
  0000                00119         extern  _ECCP3ASbits
  0000                00120         extern  _CCP2CONbits
  0000                00121         extern  _ECCP2CONbits
  0000                00122         extern  _ECCP2DELbits
  0000                00123         extern  _ECCP2ASbits
  0000                00124         extern  _CCP1CONbits
  0000                00125         extern  _ECCP1CONbits
  0000                00126         extern  _ECCP1DELbits
  0000                00127         extern  _ECCP1ASbits
  0000                00128         extern  _WDTCONbits
  0000                00129         extern  _ADCON1bits
  0000                00130         extern  _ANCON0bits
  0000                00131         extern  _ADCON0bits
  0000                00132         extern  _ANCON1bits
  0000                00133         extern  _SSP1CON2bits
  0000                00134         extern  _SSPCON2bits
  0000                00135         extern  _SSP1CON1bits
  0000                00136         extern  _SSPCON1bits
  0000                00137         extern  _SSP1STATbits
  0000                00138         extern  _SSPSTATbits
  0000                00139         extern  _SSP1MSKbits
  0000                00140         extern  _T2CONbits
  0000                00141         extern  _PADCFG1bits
  0000                00142         extern  _ODCON3bits
  0000                00143         extern  _T1CONbits
  0000                00144         extern  _ODCON2bits
  0000                00145         extern  _ODCON1bits
  0000                00146         extern  _RCONbits
  0000                00147         extern  _CM2CONbits
  0000                00148         extern  _CM2CON1bits
  0000                00149         extern  _CM1CONbits
  0000                00150         extern  _CM1CON1bits
  0000                00151         extern  _OSCCONbits
  0000                00152         extern  _REFOCONbits
  0000                00153         extern  _T0CONbits
  0000                00154         extern  _STATUSbits
  0000                00155         extern  _INTCON3bits
  0000                00156         extern  _INTCON2bits
  0000                00157         extern  _INTCONbits
  0000                00158         extern  _STKPTRbits
  0000                00159         extern  _PMSTAT
gpasm-1.4.2 #1169 (Jan  2 2016) build/default   9-13-2016  14:11:57         PAGE  4


LOC    OBJECT CODE    LINE  SOURCE TEXT
  VALUE

  0000                00160         extern  _PMSTATL
  0000                00161         extern  _PMSTATH
  0000                00162         extern  _PMEL
  0000                00163         extern  _PMEN
  0000                00164         extern  _PMEH
  0000                00165         extern  _PMDIN2
  0000                00166         extern  _PMDIN2L
  0000                00167         extern  _PMDIN2H
  0000                00168         extern  _PMDOUT2
  0000                00169         extern  _PMDOUT2L
  0000                00170         extern  _PMDOUT2H
  0000                00171         extern  _PMMODE
  0000                00172         extern  _PMMODEL
  0000                00173         extern  _PMMODEH
  0000                00174         extern  _PMCON
  0000                00175         extern  _PMCONL
  0000                00176         extern  _PMCONH
  0000                00177         extern  _UEP0
  0000                00178         extern  _UEP1
  0000                00179         extern  _UEP2
  0000                00180         extern  _UEP3
  0000                00181         extern  _UEP4
  0000                00182         extern  _UEP5
  0000                00183         extern  _UEP6
  0000                00184         extern  _UEP7
  0000                00185         extern  _UEP8
  0000                00186         extern  _UEP9
  0000                00187         extern  _UEP10
  0000                00188         extern  _UEP11
  0000                00189         extern  _UEP12
  0000                00190         extern  _UEP13
  0000                00191         extern  _UEP14
  0000                00192         extern  _UEP15
  0000                00193         extern  _UIE
  0000                00194         extern  _UEIE
  0000                00195         extern  _UADDR
  0000                00196         extern  _UCFG
  0000                00197         extern  _UFRM
  0000                00198         extern  _UFRML
  0000                00199         extern  _UFRMH
  0000                00200         extern  _UIR
  0000                00201         extern  _UEIR
  0000                00202         extern  _USTAT
  0000                00203         extern  _UCON
  0000                00204         extern  _PMDIN1
  0000                00205         extern  _PMDIN1L
  0000                00206         extern  _PMDIN1H
  0000                00207         extern  _PMADDR
  0000                00208         extern  _PMADDRL
  0000                00209         extern  _PMDOUT1
  0000                00210         extern  _PMDOUT1L
  0000                00211         extern  _PMADDRH
  0000                00212         extern  _PMDOUT1H
gpasm-1.4.2 #1169 (Jan  2 2016) build/default   9-13-2016  14:11:57         PAGE  5


LOC    OBJECT CODE    LINE  SOURCE TEXT
  VALUE

  0000                00213         extern  _CMSTAT
  0000                00214         extern  _CMSTATUS
  0000                00215         extern  _SSP2CON2
  0000                00216         extern  _SSP2CON1
  0000                00217         extern  _SSP2STAT
  0000                00218         extern  _SSP2ADD
  0000                00219         extern  _SSP2MSK
  0000                00220         extern  _SSP2BUF
  0000                00221         extern  _CCP5CON
  0000                00222         extern  _CCPR5
  0000                00223         extern  _CCPR5L
  0000                00224         extern  _CCPR5H
  0000                00225         extern  _CCP4CON
  0000                00226         extern  _CCPR4
  0000                00227         extern  _CCPR4L
  0000                00228         extern  _CCPR4H
  0000                00229         extern  _T4CON
  0000                00230         extern  _CVRCON
  0000                00231         extern  _PR4
  0000                00232         extern  _TMR4
  0000                00233         extern  _T3CON
  0000                00234         extern  _TMR3
  0000                00235         extern  _TMR3L
  0000                00236         extern  _TMR3H
  0000                00237         extern  _BAUDCON2
  0000                00238         extern  _SPBRGH2
  0000                00239         extern  _BAUDCON
  0000                00240         extern  _BAUDCON1
  0000                00241         extern  _SPBRGH
  0000                00242         extern  _SPBRGH1
  0000                00243         extern  _PORTA
  0000                00244         extern  _PORTB
  0000                00245         extern  _PORTC
  0000                00246         extern  _PORTD
  0000                00247         extern  _PORTE
  0000                00248         extern  _PORTF
  0000                00249         extern  _PORTG
  0000                00250         extern  _LATA
  0000                00251         extern  _LATB
  0000                00252         extern  _LATC
  0000                00253         extern  _LATD
  0000                00254         extern  _LATE
  0000                00255         extern  _LATF
  0000                00256         extern  _LATG
  0000                00257         extern  _DDRA
  0000                00258         extern  _TRISA
  0000                00259         extern  _DDRB
  0000                00260         extern  _TRISB
  0000                00261         extern  _DDRC
  0000                00262         extern  _TRISC
  0000                00263         extern  _DDRD
  0000                00264         extern  _TRISD
  0000                00265         extern  _DDRE
gpasm-1.4.2 #1169 (Jan  2 2016) build/default   9-13-2016  14:11:57         PAGE  6


LOC    OBJECT CODE    LINE  SOURCE TEXT
  VALUE

  0000                00266         extern  _TRISE
  0000                00267         extern  _DDRF
  0000                00268         extern  _TRISF
  0000                00269         extern  _DDRG
  0000                00270         extern  _TRISG
  0000                00271         extern  _OSCTUNE
  0000                00272         extern  _RCSTA2
  0000                00273         extern  _PIE1
  0000                00274         extern  _PIR1
  0000                00275         extern  _IPR1
  0000                00276         extern  _PIE2
  0000                00277         extern  _PIR2
  0000                00278         extern  _IPR2
  0000                00279         extern  _PIE3
  0000                00280         extern  _PIR3
  0000                00281         extern  _IPR3
  0000                00282         extern  _EECON1
  0000                00283         extern  _EECON2
  0000                00284         extern  _TXSTA2
  0000                00285         extern  _TXREG2
  0000                00286         extern  _RCREG2
  0000                00287         extern  _SPBRG2
  0000                00288         extern  _RCSTA
  0000                00289         extern  _RCSTA1
  0000                00290         extern  _TXSTA
  0000                00291         extern  _TXSTA1
  0000                00292         extern  _TXREG
  0000                00293         extern  _TXREG1
  0000                00294         extern  _RCREG
  0000                00295         extern  _RCREG1
  0000                00296         extern  _SPBRG
  0000                00297         extern  _SPBRG1
  0000                00298         extern  _CCP3CON
  0000                00299         extern  _ECCP3CON
  0000                00300         extern  _CCPR3
  0000                00301         extern  _CCPR3L
  0000                00302         extern  _CCPR3H
  0000                00303         extern  _ECCP3DEL
  0000                00304         extern  _ECCP3AS
  0000                00305         extern  _CCP2CON
  0000                00306         extern  _ECCP2CON
  0000                00307         extern  _CCPR2
  0000                00308         extern  _CCPR2L
  0000                00309         extern  _CCPR2H
  0000                00310         extern  _ECCP2DEL
  0000                00311         extern  _ECCP2AS
  0000                00312         extern  _CCP1CON
  0000                00313         extern  _ECCP1CON
  0000                00314         extern  _CCPR1
  0000                00315         extern  _CCPR1L
  0000                00316         extern  _CCPR1H
  0000                00317         extern  _ECCP1DEL
  0000                00318         extern  _ECCP1AS
gpasm-1.4.2 #1169 (Jan  2 2016) build/default   9-13-2016  14:11:57         PAGE  7


LOC    OBJECT CODE    LINE  SOURCE TEXT
  VALUE

  0000                00319         extern  _WDTCON
  0000                00320         extern  _ADCON1
  0000                00321         extern  _ANCON0
  0000                00322         extern  _ADCON0
  0000                00323         extern  _ANCON1
  0000                00324         extern  _ADRES
  0000                00325         extern  _ADRESL
  0000                00326         extern  _ADRESH
  0000                00327         extern  _SSP1CON2
  0000                00328         extern  _SSPCON2
  0000                00329         extern  _SSP1CON1
  0000                00330         extern  _SSPCON1
  0000                00331         extern  _SSP1STAT
  0000                00332         extern  _SSPSTAT
  0000                00333         extern  _SSP1ADD
  0000                00334         extern  _SSP1MSK
  0000                00335         extern  _SSPADD
  0000                00336         extern  _SSP1BUF
  0000                00337         extern  _SSPBUF
  0000                00338         extern  _T2CON
  0000                00339         extern  _PR2
  0000                00340         extern  _PADCFG1
  0000                00341         extern  _TMR2
  0000                00342         extern  _ODCON3
  0000                00343         extern  _T1CON
  0000                00344         extern  _ODCON2
  0000                00345         extern  _TMR1
  0000                00346         extern  _TMR1L
  0000                00347         extern  _ODCON1
  0000                00348         extern  _TMR1H
  0000                00349         extern  _RCON
  0000                00350         extern  _CM2CON
  0000                00351         extern  _CM2CON1
  0000                00352         extern  _CM1CON
  0000                00353         extern  _CM1CON1
  0000                00354         extern  _OSCCON
  0000                00355         extern  _REFOCON
  0000                00356         extern  _T0CON
  0000                00357         extern  _TMR0
  0000                00358         extern  _TMR0L
  0000                00359         extern  _TMR0H
  0000                00360         extern  _STATUS
  0000                00361         extern  _FSR2L
  0000                00362         extern  _FSR2H
  0000                00363         extern  _PLUSW2
  0000                00364         extern  _PREINC2
  0000                00365         extern  _POSTDEC2
  0000                00366         extern  _POSTINC2
  0000                00367         extern  _INDF2
  0000                00368         extern  _BSR
  0000                00369         extern  _FSR1L
  0000                00370         extern  _FSR1H
  0000                00371         extern  _PLUSW1
gpasm-1.4.2 #1169 (Jan  2 2016) build/default   9-13-2016  14:11:57         PAGE  8


LOC    OBJECT CODE    LINE  SOURCE TEXT
  VALUE

  0000                00372         extern  _PREINC1
  0000                00373         extern  _POSTDEC1
  0000                00374         extern  _POSTINC1
  0000                00375         extern  _INDF1
  0000                00376         extern  _WREG
  0000                00377         extern  _FSR0L
  0000                00378         extern  _FSR0H
  0000                00379         extern  _PLUSW0
  0000                00380         extern  _PREINC0
  0000                00381         extern  _POSTDEC0
  0000                00382         extern  _POSTINC0
  0000                00383         extern  _INDF0
  0000                00384         extern  _INTCON3
  0000                00385         extern  _INTCON2
  0000                00386         extern  _INTCON
  0000                00387         extern  _PROD
  0000                00388         extern  _PRODL
  0000                00389         extern  _PRODH
  0000                00390         extern  _TABLAT
  0000                00391         extern  _TBLPTR
  0000                00392         extern  _TBLPTRL
  0000                00393         extern  _TBLPTRH
  0000                00394         extern  _TBLPTRU
  0000                00395         extern  _PC
  0000                00396         extern  _PCL
  0000                00397         extern  _PCLATH
  0000                00398         extern  _PCLATU
  0000                00399         extern  _STKPTR
  0000                00400         extern  _TOS
  0000                00401         extern  _TOSL
  0000                00402         extern  _TOSH
  0000                00403         extern  _TOSU
  0000                00404         extern  _Port_Init
  0000                00405         extern  _Port_SetPinType
  0000                00406         extern  _Port_SetPin
  0000                00407         extern  _Port_GetPin
                      00408 
                      00409 ;--------------------------------------------------------
                      00410 ;       Equates to used internal registers
                      00411 ;--------------------------------------------------------
  00000FD8            00412 STATUS  equ     0xfd8
  00000FFA            00413 PCLATH  equ     0xffa
  00000FFB            00414 PCLATU  equ     0xffb
  00000FE8            00415 WREG    equ     0xfe8
  00000FE0            00416 BSR     equ     0xfe0
  00000FE9            00417 FSR0L   equ     0xfe9
  00000FEA            00418 FSR0H   equ     0xfea
  00000FE1            00419 FSR1L   equ     0xfe1
  00000FD9            00420 FSR2L   equ     0xfd9
  00000FE5            00421 POSTDEC1        equ     0xfe5
  00000FE4            00422 PREINC1 equ     0xfe4
  00000FF3            00423 PRODL   equ     0xff3
  00000FF4            00424 PRODH   equ     0xff4
gpasm-1.4.2 #1169 (Jan  2 2016) build/default   9-13-2016  14:11:57         PAGE  9


LOC    OBJECT CODE    LINE  SOURCE TEXT
  VALUE

                      00425 
                      00426 
                      00427 ; Internal registers
                      00428 .registers      udata_ovr       0x0000
000000                00429 r0x00   res     1
000001                00430 r0x01   res     1
000002                00431 r0x02   res     1
000003                00432 r0x03   res     1
000004                00433 r0x04   res     1
000005                00434 r0x05   res     1
                      00435 
                      00436 udata_main_0    udata
000000                00437 _main_PortC_1_48        res     14
                      00438 
                      00439 ;--------------------------------------------------------
                      00440 ; interrupt vector
                      00441 ;--------------------------------------------------------
                      00442 
                      00443 ;--------------------------------------------------------
                      00444 ; global & static initialisations
                      00445 ;--------------------------------------------------------
                      00446 ; ; Starting pCode block for absolute section
                      00447 ; ;-----------------------------------------
                      00448 S_main_ivec_0x1_highInterrupt   code    0X000008
000008                00449 ivec_0x1_highInterrupt:
000008 EF00 F000      00450         GOTO    _highInterrupt
                      00451 
                      00452 ; ; Starting pCode block for absolute section
                      00453 ; ;-----------------------------------------
                      00454 S_main_ivec_0x2_lowInterrupt    code    0X000018
000018                00455 ivec_0x2_lowInterrupt:
000018 EF00 F000      00456         GOTO    _lowInterrupt
                      00457 
                      00458 ; I code from now on!
                      00459 ; ; Starting pCode block
                      00460 S_main__main    code
000000                00461 _main:
                      00462 ;       .line   22; main.c      Port_Init(&PortC, ePortC);
000000 0E??           00463         MOVLW   HIGH(_main_PortC_1_48)
000002 6E??           00464         MOVWF   r0x01
000004 0E??           00465         MOVLW   LOW(_main_PortC_1_48)
000006 6E??           00466         MOVWF   r0x00
000008 0E80           00467         MOVLW   0x80
00000A 6E??           00468         MOVWF   r0x02
00000C 0E02           00469         MOVLW   0x02
00000E 6EE5           00470         MOVWF   POSTDEC1
000010 50??           00471         MOVF    r0x02, W
000012 6EE5           00472         MOVWF   POSTDEC1
000014 50??           00473         MOVF    r0x01, W
000016 6EE5           00474         MOVWF   POSTDEC1
000018 50??           00475         MOVF    r0x00, W
00001A 6EE5           00476         MOVWF   POSTDEC1
00001C EC?? F0??      00477         CALL    _Port_Init
gpasm-1.4.2 #1169 (Jan  2 2016) build/default   9-13-2016  14:11:57         PAGE 10


LOC    OBJECT CODE    LINE  SOURCE TEXT
  VALUE

000020 0E04           00478         MOVLW   0x04
000022 26E1           00479         ADDWF   FSR1L, F
                      00480 ;       .line   23; main.c      Port_SetPinType(&PortC, eP0 ,eTypeOutputPushPull);
000024 0E??           00481         MOVLW   HIGH(_main_PortC_1_48)
000026 6E??           00482         MOVWF   r0x01
000028 0E??           00483         MOVLW   LOW(_main_PortC_1_48)
00002A 6E??           00484         MOVWF   r0x00
00002C 0E80           00485         MOVLW   0x80
00002E 6E??           00486         MOVWF   r0x02
000030 0E03           00487         MOVLW   0x03
000032 6EE5           00488         MOVWF   POSTDEC1
000034 0E00           00489         MOVLW   0x00
000036 6EE5           00490         MOVWF   POSTDEC1
000038 50??           00491         MOVF    r0x02, W
00003A 6EE5           00492         MOVWF   POSTDEC1
00003C 50??           00493         MOVF    r0x01, W
00003E 6EE5           00494         MOVWF   POSTDEC1
000040 50??           00495         MOVF    r0x00, W
000042 6EE5           00496         MOVWF   POSTDEC1
000044 EC?? F0??      00497         CALL    _Port_SetPinType
000048 0E05           00498         MOVLW   0x05
00004A 26E1           00499         ADDWF   FSR1L, F
00004C                00500 _00113_DS_:
                      00501 ;       .line   28; main.c      while(count--);
00004C 0EE8           00502         MOVLW   0xe8
00004E 6E??           00503         MOVWF   r0x00
000050 0E03           00504         MOVLW   0x03
000052 6E??           00505         MOVWF   r0x01
000054                00506 _00105_DS_:
000054 C??? F???      00507         MOVFF   r0x00, r0x02
000058 C??? F???      00508         MOVFF   r0x01, r0x03
00005C 0EFF           00509         MOVLW   0xff
00005E 26??           00510         ADDWF   r0x00, F
000060 22??           00511         ADDWFC  r0x01, F
000062 50??           00512         MOVF    r0x02, W
000064 10??           00513         IORWF   r0x03, W
000066 E1??           00514         BNZ     _00105_DS_
                      00515 ;       .line   29; main.c      Port_SetPin(&PortC, eP0, !Port_GetPin(&PortC, eP0));
000068 0E??           00516         MOVLW   HIGH(_main_PortC_1_48)
00006A 6E??           00517         MOVWF   r0x01
00006C 0E??           00518         MOVLW   LOW(_main_PortC_1_48)
00006E 6E??           00519         MOVWF   r0x00
000070 0E80           00520         MOVLW   0x80
000072 6E??           00521         MOVWF   r0x02
000074 0E??           00522         MOVLW   HIGH(_main_PortC_1_48)
000076 6E??           00523         MOVWF   r0x04
000078 0E??           00524         MOVLW   LOW(_main_PortC_1_48)
00007A 6E??           00525         MOVWF   r0x03
00007C 0E80           00526         MOVLW   0x80
00007E 6E??           00527         MOVWF   r0x05
000080 0E00           00528         MOVLW   0x00
000082 6EE5           00529         MOVWF   POSTDEC1
000084 50??           00530         MOVF    r0x05, W
gpasm-1.4.2 #1169 (Jan  2 2016) build/default   9-13-2016  14:11:57         PAGE 11


LOC    OBJECT CODE    LINE  SOURCE TEXT
  VALUE

000086 6EE5           00531         MOVWF   POSTDEC1
000088 50??           00532         MOVF    r0x04, W
00008A 6EE5           00533         MOVWF   POSTDEC1
00008C 50??           00534         MOVF    r0x03, W
00008E 6EE5           00535         MOVWF   POSTDEC1
000090 EC?? F0??      00536         CALL    _Port_GetPin
000094 6E??           00537         MOVWF   r0x03
000096 0E04           00538         MOVLW   0x04
000098 26E1           00539         ADDWF   FSR1L, F
00009A 50??           00540         MOVF    r0x03, W
00009C 80D8           00541         BSF     STATUS, 0
00009E 66E8           00542         TSTFSZ  WREG
0000A0 90D8           00543         BCF     STATUS, 0
0000A2 6A??           00544         CLRF    r0x03
0000A4 36??           00545         RLCF    r0x03, F
0000A6 50??           00546         MOVF    r0x03, W
0000A8 6EE5           00547         MOVWF   POSTDEC1
0000AA 0E00           00548         MOVLW   0x00
0000AC 6EE5           00549         MOVWF   POSTDEC1
0000AE 50??           00550         MOVF    r0x02, W
0000B0 6EE5           00551         MOVWF   POSTDEC1
0000B2 50??           00552         MOVF    r0x01, W
0000B4 6EE5           00553         MOVWF   POSTDEC1
0000B6 50??           00554         MOVF    r0x00, W
0000B8 6EE5           00555         MOVWF   POSTDEC1
0000BA EC?? F0??      00556         CALL    _Port_SetPin
0000BE 0E05           00557         MOVLW   0x05
0000C0 26E1           00558         ADDWF   FSR1L, F
0000C2 D???           00559         BRA     _00113_DS_
0000C4 0012           00560         RETURN  
                      00561 
                      00562 ; ; Starting pCode block
                      00563 S_main__lowInterrupt    code
000000                00564 _lowInterrupt:
                      00565 ;       .line   34; main.c      void lowInterrupt(void)     __interrupt(2){}
000000 CFD8 FFE5      00566         MOVFF   STATUS, POSTDEC1
000004 CFE0 FFE5      00567         MOVFF   BSR, POSTDEC1
000008 6EE5           00568         MOVWF   POSTDEC1
00000A CFF3 FFE5      00569         MOVFF   PRODL, POSTDEC1
00000E CFF4 FFE5      00570         MOVFF   PRODH, POSTDEC1
000012 CFE9 FFE5      00571         MOVFF   FSR0L, POSTDEC1
000016 CFEA FFE5      00572         MOVFF   FSR0H, POSTDEC1
00001A CFFA FFE5      00573         MOVFF   PCLATH, POSTDEC1
00001E CFFB FFE5      00574         MOVFF   PCLATU, POSTDEC1
000022 CFD9 FFE5      00575         MOVFF   FSR2L, POSTDEC1
000026 CFE1 FFD9      00576         MOVFF   FSR1L, FSR2L
00002A CFE4 FFD9      00577         MOVFF   PREINC1, FSR2L
00002E CFE4 FFFB      00578         MOVFF   PREINC1, PCLATU
000032 CFE4 FFFA      00579         MOVFF   PREINC1, PCLATH
000036 CFE4 FFEA      00580         MOVFF   PREINC1, FSR0H
00003A CFE4 FFE9      00581         MOVFF   PREINC1, FSR0L
00003E CFE4 FFF4      00582         MOVFF   PREINC1, PRODH
000042 CFE4 FFF3      00583         MOVFF   PREINC1, PRODL
gpasm-1.4.2 #1169 (Jan  2 2016) build/default   9-13-2016  14:11:57         PAGE 12


LOC    OBJECT CODE    LINE  SOURCE TEXT
  VALUE

000046 50E4           00584         MOVF    PREINC1, W
000048 CFE4 FFE0      00585         MOVFF   PREINC1, BSR
00004C CFE4 FFD8      00586         MOVFF   PREINC1, STATUS
000050 0010           00587         RETFIE  
                      00588 
                      00589 ; ; Starting pCode block
                      00590 S_main__highInterrupt   code
000000                00591 _highInterrupt:
                      00592 ;       .line   33; main.c      void highInterrupt(void)    __interrupt(1){}
000000 CFD8 FFE5      00593         MOVFF   STATUS, POSTDEC1
000004 CFE0 FFE5      00594         MOVFF   BSR, POSTDEC1
000008 6EE5           00595         MOVWF   POSTDEC1
00000A CFF3 FFE5      00596         MOVFF   PRODL, POSTDEC1
00000E CFF4 FFE5      00597         MOVFF   PRODH, POSTDEC1
000012 CFE9 FFE5      00598         MOVFF   FSR0L, POSTDEC1
000016 CFEA FFE5      00599         MOVFF   FSR0H, POSTDEC1
00001A CFFA FFE5      00600         MOVFF   PCLATH, POSTDEC1
00001E CFFB FFE5      00601         MOVFF   PCLATU, POSTDEC1
000022 CFD9 FFE5      00602         MOVFF   FSR2L, POSTDEC1
000026 CFE1 FFD9      00603         MOVFF   FSR1L, FSR2L
00002A CFE4 FFD9      00604         MOVFF   PREINC1, FSR2L
00002E CFE4 FFFB      00605         MOVFF   PREINC1, PCLATU
000032 CFE4 FFFA      00606         MOVFF   PREINC1, PCLATH
000036 CFE4 FFEA      00607         MOVFF   PREINC1, FSR0H
00003A CFE4 FFE9      00608         MOVFF   PREINC1, FSR0L
00003E CFE4 FFF4      00609         MOVFF   PREINC1, PRODH
000042 CFE4 FFF3      00610         MOVFF   PREINC1, PRODL
000046 50E4           00611         MOVF    PREINC1, W
000048 CFE4 FFE0      00612         MOVFF   PREINC1, BSR
00004C CFE4 FFD8      00613         MOVFF   PREINC1, STATUS
000050 0010           00614         RETFIE  
                      00615 
                      00616 
                      00617 
                      00618 ; Statistics:
                      00619 ; code size:      366 (0x016e) bytes ( 0.28%)
                      00620 ;                 183 (0x00b7) words
                      00621 ; udata size:      14 (0x000e) bytes ( 0.38%)
                      00622 ; access size:      6 (0x0006) bytes
                      00623 
                      00624 
                      00625         end
gpasm-1.4.2 #1169 (Jan  2 2016) build/default   9-13-2016  14:11:57         PAGE 13


SYMBOL TABLE
  LABEL                             VALUE

BSR                               00000FE0
FSR0H                             00000FEA
FSR0L                             00000FE9
FSR1L                             00000FE1
FSR2L                             00000FD9
PCLATH                            00000FFA
PCLATU                            00000FFB
POSTDEC1                          00000FE5
PREINC1                           00000FE4
PRODH                             00000FF4
PRODL                             00000FF3
STATUS                            00000FD8
WREG                              00000FE8
_00105_DS_                        00000054
_00113_DS_                        0000004C
_ADCON0                           00000000
_ADCON0bits                       00000000
_ADCON1                           00000000
_ADCON1bits                       00000000
_ADRES                            00000000
_ADRESH                           00000000
_ADRESL                           00000000
_ANCON0                           00000000
_ANCON0bits                       00000000
_ANCON1                           00000000
_ANCON1bits                       00000000
_BAUDCON                          00000000
_BAUDCON1                         00000000
_BAUDCON1bits                     00000000
_BAUDCON2                         00000000
_BAUDCON2bits                     00000000
_BAUDCONbits                      00000000
_BSR                              00000000
_CCP1CON                          00000000
_CCP1CONbits                      00000000
_CCP2CON                          00000000
_CCP2CONbits                      00000000
_CCP3CON                          00000000
_CCP3CONbits                      00000000
_CCP4CON                          00000000
_CCP4CONbits                      00000000
_CCP5CON                          00000000
_CCP5CONbits                      00000000
_CCPR1                            00000000
_CCPR1H                           00000000
_CCPR1L                           00000000
_CCPR2                            00000000
_CCPR2H                           00000000
_CCPR2L                           00000000
_CCPR3                            00000000
_CCPR3H                           00000000
_CCPR3L                           00000000
_CCPR4                            00000000
gpasm-1.4.2 #1169 (Jan  2 2016) build/default   9-13-2016  14:11:57         PAGE 14


SYMBOL TABLE
  LABEL                             VALUE 

_CCPR4H                           00000000
_CCPR4L                           00000000
_CCPR5                            00000000
_CCPR5H                           00000000
_CCPR5L                           00000000
_CM1CON                           00000000
_CM1CON1                          00000000
_CM1CON1bits                      00000000
_CM1CONbits                       00000000
_CM2CON                           00000000
_CM2CON1                          00000000
_CM2CON1bits                      00000000
_CM2CONbits                       00000000
_CMSTAT                           00000000
_CMSTATUS                         00000000
_CMSTATUSbits                     00000000
_CMSTATbits                       00000000
_CVRCON                           00000000
_CVRCONbits                       00000000
_DDRA                             00000000
_DDRAbits                         00000000
_DDRB                             00000000
_DDRBbits                         00000000
_DDRC                             00000000
_DDRCbits                         00000000
_DDRD                             00000000
_DDRDbits                         00000000
_DDRE                             00000000
_DDREbits                         00000000
_DDRF                             00000000
_DDRFbits                         00000000
_DDRG                             00000000
_DDRGbits                         00000000
_ECCP1AS                          00000000
_ECCP1ASbits                      00000000
_ECCP1CON                         00000000
_ECCP1CONbits                     00000000
_ECCP1DEL                         00000000
_ECCP1DELbits                     00000000
_ECCP2AS                          00000000
_ECCP2ASbits                      00000000
_ECCP2CON                         00000000
_ECCP2CONbits                     00000000
_ECCP2DEL                         00000000
_ECCP2DELbits                     00000000
_ECCP3AS                          00000000
_ECCP3ASbits                      00000000
_ECCP3CON                         00000000
_ECCP3CONbits                     00000000
_ECCP3DEL                         00000000
_ECCP3DELbits                     00000000
_EECON1                           00000000
_EECON1bits                       00000000
gpasm-1.4.2 #1169 (Jan  2 2016) build/default   9-13-2016  14:11:57         PAGE 15


SYMBOL TABLE
  LABEL                             VALUE 

_EECON2                           00000000
_FSR0H                            00000000
_FSR0L                            00000000
_FSR1H                            00000000
_FSR1L                            00000000
_FSR2H                            00000000
_FSR2L                            00000000
_INDF0                            00000000
_INDF1                            00000000
_INDF2                            00000000
_INTCON                           00000000
_INTCON2                          00000000
_INTCON2bits                      00000000
_INTCON3                          00000000
_INTCON3bits                      00000000
_INTCONbits                       00000000
_IPR1                             00000000
_IPR1bits                         00000000
_IPR2                             00000000
_IPR2bits                         00000000
_IPR3                             00000000
_IPR3bits                         00000000
_LATA                             00000000
_LATAbits                         00000000
_LATB                             00000000
_LATBbits                         00000000
_LATC                             00000000
_LATCbits                         00000000
_LATD                             00000000
_LATDbits                         00000000
_LATE                             00000000
_LATEbits                         00000000
_LATF                             00000000
_LATFbits                         00000000
_LATG                             00000000
_LATGbits                         00000000
_ODCON1                           00000000
_ODCON1bits                       00000000
_ODCON2                           00000000
_ODCON2bits                       00000000
_ODCON3                           00000000
_ODCON3bits                       00000000
_OSCCON                           00000000
_OSCCONbits                       00000000
_OSCTUNE                          00000000
_OSCTUNEbits                      00000000
_PADCFG1                          00000000
_PADCFG1bits                      00000000
_PC                               00000000
_PCL                              00000000
_PCLATH                           00000000
_PCLATU                           00000000
_PIE1                             00000000
gpasm-1.4.2 #1169 (Jan  2 2016) build/default   9-13-2016  14:11:57         PAGE 16


SYMBOL TABLE
  LABEL                             VALUE 

_PIE1bits                         00000000
_PIE2                             00000000
_PIE2bits                         00000000
_PIE3                             00000000
_PIE3bits                         00000000
_PIR1                             00000000
_PIR1bits                         00000000
_PIR2                             00000000
_PIR2bits                         00000000
_PIR3                             00000000
_PIR3bits                         00000000
_PLUSW0                           00000000
_PLUSW1                           00000000
_PLUSW2                           00000000
_PMADDR                           00000000
_PMADDRH                          00000000
_PMADDRHbits                      00000000
_PMADDRL                          00000000
_PMCON                            00000000
_PMCONH                           00000000
_PMCONHbits                       00000000
_PMCONL                           00000000
_PMCONLbits                       00000000
_PMDIN1                           00000000
_PMDIN1H                          00000000
_PMDIN1L                          00000000
_PMDIN2                           00000000
_PMDIN2H                          00000000
_PMDIN2L                          00000000
_PMDOUT1                          00000000
_PMDOUT1H                         00000000
_PMDOUT1L                         00000000
_PMDOUT2                          00000000
_PMDOUT2H                         00000000
_PMDOUT2L                         00000000
_PMEH                             00000000
_PMEHbits                         00000000
_PMEL                             00000000
_PMELbits                         00000000
_PMEN                             00000000
_PMMODE                           00000000
_PMMODEH                          00000000
_PMMODEHbits                      00000000
_PMMODEL                          00000000
_PMMODELbits                      00000000
_PMSTAT                           00000000
_PMSTATH                          00000000
_PMSTATHbits                      00000000
_PMSTATL                          00000000
_PMSTATLbits                      00000000
_PORTA                            00000000
_PORTAbits                        00000000
_PORTB                            00000000
gpasm-1.4.2 #1169 (Jan  2 2016) build/default   9-13-2016  14:11:57         PAGE 17


SYMBOL TABLE
  LABEL                             VALUE 

_PORTBbits                        00000000
_PORTC                            00000000
_PORTCbits                        00000000
_PORTD                            00000000
_PORTDbits                        00000000
_PORTE                            00000000
_PORTEbits                        00000000
_PORTF                            00000000
_PORTFbits                        00000000
_PORTG                            00000000
_PORTGbits                        00000000
_POSTDEC0                         00000000
_POSTDEC1                         00000000
_POSTDEC2                         00000000
_POSTINC0                         00000000
_POSTINC1                         00000000
_POSTINC2                         00000000
_PR2                              00000000
_PR4                              00000000
_PREINC0                          00000000
_PREINC1                          00000000
_PREINC2                          00000000
_PROD                             00000000
_PRODH                            00000000
_PRODL                            00000000
_Port_GetPin                      00000000
_Port_Init                        00000000
_Port_SetPin                      00000000
_Port_SetPinType                  00000000
_RCON                             00000000
_RCONbits                         00000000
_RCREG                            00000000
_RCREG1                           00000000
_RCREG2                           00000000
_RCSTA                            00000000
_RCSTA1                           00000000
_RCSTA1bits                       00000000
_RCSTA2                           00000000
_RCSTA2bits                       00000000
_RCSTAbits                        00000000
_REFOCON                          00000000
_REFOCONbits                      00000000
_SPBRG                            00000000
_SPBRG1                           00000000
_SPBRG2                           00000000
_SPBRGH                           00000000
_SPBRGH1                          00000000
_SPBRGH2                          00000000
_SSP1ADD                          00000000
_SSP1BUF                          00000000
_SSP1CON1                         00000000
_SSP1CON1bits                     00000000
_SSP1CON2                         00000000
gpasm-1.4.2 #1169 (Jan  2 2016) build/default   9-13-2016  14:11:57         PAGE 18


SYMBOL TABLE
  LABEL                             VALUE 

_SSP1CON2bits                     00000000
_SSP1MSK                          00000000
_SSP1MSKbits                      00000000
_SSP1STAT                         00000000
_SSP1STATbits                     00000000
_SSP2ADD                          00000000
_SSP2BUF                          00000000
_SSP2CON1                         00000000
_SSP2CON1bits                     00000000
_SSP2CON2                         00000000
_SSP2CON2bits                     00000000
_SSP2MSK                          00000000
_SSP2MSKbits                      00000000
_SSP2STAT                         00000000
_SSP2STATbits                     00000000
_SSPADD                           00000000
_SSPBUF                           00000000
_SSPCON1                          00000000
_SSPCON1bits                      00000000
_SSPCON2                          00000000
_SSPCON2bits                      00000000
_SSPSTAT                          00000000
_SSPSTATbits                      00000000
_STATUS                           00000000
_STATUSbits                       00000000
_STKPTR                           00000000
_STKPTRbits                       00000000
_T0CON                            00000000
_T0CONbits                        00000000
_T1CON                            00000000
_T1CONbits                        00000000
_T2CON                            00000000
_T2CONbits                        00000000
_T3CON                            00000000
_T3CONbits                        00000000
_T4CON                            00000000
_T4CONbits                        00000000
_TABLAT                           00000000
_TBLPTR                           00000000
_TBLPTRH                          00000000
_TBLPTRL                          00000000
_TBLPTRU                          00000000
_TMR0                             00000000
_TMR0H                            00000000
_TMR0L                            00000000
_TMR1                             00000000
_TMR1H                            00000000
_TMR1L                            00000000
_TMR2                             00000000
_TMR3                             00000000
_TMR3H                            00000000
_TMR3L                            00000000
_TMR4                             00000000
gpasm-1.4.2 #1169 (Jan  2 2016) build/default   9-13-2016  14:11:57         PAGE 19


SYMBOL TABLE
  LABEL                             VALUE 

_TOS                              00000000
_TOSH                             00000000
_TOSL                             00000000
_TOSU                             00000000
_TRISA                            00000000
_TRISAbits                        00000000
_TRISB                            00000000
_TRISBbits                        00000000
_TRISC                            00000000
_TRISCbits                        00000000
_TRISD                            00000000
_TRISDbits                        00000000
_TRISE                            00000000
_TRISEbits                        00000000
_TRISF                            00000000
_TRISFbits                        00000000
_TRISG                            00000000
_TRISGbits                        00000000
_TXREG                            00000000
_TXREG1                           00000000
_TXREG2                           00000000
_TXSTA                            00000000
_TXSTA1                           00000000
_TXSTA1bits                       00000000
_TXSTA2                           00000000
_TXSTA2bits                       00000000
_TXSTAbits                        00000000
_UADDR                            00000000
_UADDRbits                        00000000
_UCFG                             00000000
_UCFGbits                         00000000
_UCON                             00000000
_UCONbits                         00000000
_UEIE                             00000000
_UEIEbits                         00000000
_UEIR                             00000000
_UEIRbits                         00000000
_UEP0                             00000000
_UEP0bits                         00000000
_UEP1                             00000000
_UEP10                            00000000
_UEP10bits                        00000000
_UEP11                            00000000
_UEP11bits                        00000000
_UEP12                            00000000
_UEP12bits                        00000000
_UEP13                            00000000
_UEP13bits                        00000000
_UEP14                            00000000
_UEP14bits                        00000000
_UEP15                            00000000
_UEP15bits                        00000000
_UEP1bits                         00000000
gpasm-1.4.2 #1169 (Jan  2 2016) build/default   9-13-2016  14:11:57         PAGE 20


SYMBOL TABLE
  LABEL                             VALUE 

_UEP2                             00000000
_UEP2bits                         00000000
_UEP3                             00000000
_UEP3bits                         00000000
_UEP4                             00000000
_UEP4bits                         00000000
_UEP5                             00000000
_UEP5bits                         00000000
_UEP6                             00000000
_UEP6bits                         00000000
_UEP7                             00000000
_UEP7bits                         00000000
_UEP8                             00000000
_UEP8bits                         00000000
_UEP9                             00000000
_UEP9bits                         00000000
_UFRM                             00000000
_UFRMH                            00000000
_UFRMHbits                        00000000
_UFRML                            00000000
_UFRMLbits                        00000000
_UIE                              00000000
_UIEbits                          00000000
_UIR                              00000000
_UIRbits                          00000000
_USTAT                            00000000
_USTATbits                        00000000
_WDTCON                           00000000
_WDTCONbits                       00000000
_WREG                             00000000
__18F65J50                        00000001
__ACC_RAM_LOW_END                 0000005F
__ACC_RAM_LOW_START               00000000
__CODE_END                        00007FF7
__CODE_START                      00000000
__CONFIG_END                      00007FFD
__CONFIG_START                    00007FF8
__VECTOR_INT_HIGH                 00000008
__VECTOR_INT_LOW                  00000018
__VECTOR_RESET                    00000000
_highInterrupt                    00000000
_lowInterrupt                     00000000
_main                             00000000
_main_PortC_1_48                  00000000
ivec_0x1_highInterrupt            00000008
ivec_0x2_lowInterrupt             00000018
r0x00                             00000000
r0x01                             00000001
r0x02                             00000002
r0x03                             00000003
r0x04                             00000004
r0x05                             00000005

gpasm-1.4.2 #1169 (Jan  2 2016) build/default   9-13-2016  14:11:57         PAGE 21




Errors   :     0
Warnings :     0 reported,     0 suppressed
Messages :     0 reported,     0 suppressed

