gpasm-1.4.2 #1169 (Jan  2 2016) build/default   9-13-2016  14:11:57         PAGE  1


LOC    OBJECT CODE    LINE  SOURCE TEXT
  VALUE

                      00001 ;--------------------------------------------------------
                      00002 ; File Created by SDCC : free open source ANSI-C Compiler
                      00003 ; Version 3.6.0 #9615 (MINGW64)
                      00004 ;--------------------------------------------------------
                      00005 ; PIC16 port for the Microchip 16-bit core micros
                      00006 ;--------------------------------------------------------
                      00007         list    p=18f65j50
                      00008         radix   dec
                      00009 
                      00010 
                      00011 ;--------------------------------------------------------
                      00012 ; public variables in this module
                      00013 ;--------------------------------------------------------
  0000                00014         global  _GetPortProperties
  0000                00015         global  _GetPortPORT
  0000                00016         global  _GetPortTRIS
  0000                00017         global  _GetPortLAT
  0000                00018         global  _Port_CheckPairType
  0000                00019         global  _Port_CheckQuadType
  0000                00020         global  _Port_CheckPortType
  0000                00021         global  _Port_Init
  0000                00022         global  _Port_SetPinType
  0000                00023         global  _Port_SetPin
  0000                00024         global  _Port_GetPin
  0000                00025         global  _Port_SetPairType
  0000                00026         global  _Port_SetPair
  0000                00027         global  _Port_GetPair
  0000                00028         global  _Port_SetQuadType
  0000                00029         global  _Port_SetQuad
  0000                00030         global  _Port_GetQuad
  0000                00031         global  _Port_SetType
  0000                00032         global  _Port_Set
  0000                00033         global  _Port_Get
                      00034 
                      00035 ;--------------------------------------------------------
                      00036 ; extern variables in this module
                      00037 ;--------------------------------------------------------
  0000                00038         extern  __gptrget3
  0000                00039         extern  __gptrput3
  0000                00040         extern  __gptrput1
  0000                00041         extern  __gptrget1
  0000                00042         extern  _PMSTATLbits
  0000                00043         extern  _PMSTATHbits
  0000                00044         extern  _PMELbits
  0000                00045         extern  _PMEHbits
  0000                00046         extern  _PMMODELbits
  0000                00047         extern  _PMMODEHbits
  0000                00048         extern  _PMCONLbits
  0000                00049         extern  _PMCONHbits
  0000                00050         extern  _UEP0bits
  0000                00051         extern  _UEP1bits
  0000                00052         extern  _UEP2bits
  0000                00053         extern  _UEP3bits
gpasm-1.4.2 #1169 (Jan  2 2016) build/default   9-13-2016  14:11:57         PAGE  2


LOC    OBJECT CODE    LINE  SOURCE TEXT
  VALUE

  0000                00054         extern  _UEP4bits
  0000                00055         extern  _UEP5bits
  0000                00056         extern  _UEP6bits
  0000                00057         extern  _UEP7bits
  0000                00058         extern  _UEP8bits
  0000                00059         extern  _UEP9bits
  0000                00060         extern  _UEP10bits
  0000                00061         extern  _UEP11bits
  0000                00062         extern  _UEP12bits
  0000                00063         extern  _UEP13bits
  0000                00064         extern  _UEP14bits
  0000                00065         extern  _UEP15bits
  0000                00066         extern  _UIEbits
  0000                00067         extern  _UEIEbits
  0000                00068         extern  _UADDRbits
  0000                00069         extern  _UCFGbits
  0000                00070         extern  _UFRMLbits
  0000                00071         extern  _UFRMHbits
  0000                00072         extern  _UIRbits
  0000                00073         extern  _UEIRbits
  0000                00074         extern  _USTATbits
  0000                00075         extern  _UCONbits
  0000                00076         extern  _PMADDRHbits
  0000                00077         extern  _CMSTATbits
  0000                00078         extern  _CMSTATUSbits
  0000                00079         extern  _SSP2CON2bits
  0000                00080         extern  _SSP2CON1bits
  0000                00081         extern  _SSP2STATbits
  0000                00082         extern  _SSP2MSKbits
  0000                00083         extern  _CCP5CONbits
  0000                00084         extern  _CCP4CONbits
  0000                00085         extern  _T4CONbits
  0000                00086         extern  _CVRCONbits
  0000                00087         extern  _T3CONbits
  0000                00088         extern  _BAUDCON2bits
  0000                00089         extern  _BAUDCONbits
  0000                00090         extern  _BAUDCON1bits
  0000                00091         extern  _PORTAbits
  0000                00092         extern  _PORTBbits
  0000                00093         extern  _PORTCbits
  0000                00094         extern  _PORTDbits
  0000                00095         extern  _PORTEbits
  0000                00096         extern  _PORTFbits
  0000                00097         extern  _PORTGbits
  0000                00098         extern  _LATAbits
  0000                00099         extern  _LATBbits
  0000                00100         extern  _LATCbits
  0000                00101         extern  _LATDbits
  0000                00102         extern  _LATEbits
  0000                00103         extern  _LATFbits
  0000                00104         extern  _LATGbits
  0000                00105         extern  _DDRAbits
  0000                00106         extern  _TRISAbits
gpasm-1.4.2 #1169 (Jan  2 2016) build/default   9-13-2016  14:11:57         PAGE  3


LOC    OBJECT CODE    LINE  SOURCE TEXT
  VALUE

  0000                00107         extern  _DDRBbits
  0000                00108         extern  _TRISBbits
  0000                00109         extern  _DDRCbits
  0000                00110         extern  _TRISCbits
  0000                00111         extern  _DDRDbits
  0000                00112         extern  _TRISDbits
  0000                00113         extern  _DDREbits
  0000                00114         extern  _TRISEbits
  0000                00115         extern  _DDRFbits
  0000                00116         extern  _TRISFbits
  0000                00117         extern  _DDRGbits
  0000                00118         extern  _TRISGbits
  0000                00119         extern  _OSCTUNEbits
  0000                00120         extern  _RCSTA2bits
  0000                00121         extern  _PIE1bits
  0000                00122         extern  _PIR1bits
  0000                00123         extern  _IPR1bits
  0000                00124         extern  _PIE2bits
  0000                00125         extern  _PIR2bits
  0000                00126         extern  _IPR2bits
  0000                00127         extern  _PIE3bits
  0000                00128         extern  _PIR3bits
  0000                00129         extern  _IPR3bits
  0000                00130         extern  _EECON1bits
  0000                00131         extern  _TXSTA2bits
  0000                00132         extern  _RCSTAbits
  0000                00133         extern  _RCSTA1bits
  0000                00134         extern  _TXSTAbits
  0000                00135         extern  _TXSTA1bits
  0000                00136         extern  _CCP3CONbits
  0000                00137         extern  _ECCP3CONbits
  0000                00138         extern  _ECCP3DELbits
  0000                00139         extern  _ECCP3ASbits
  0000                00140         extern  _CCP2CONbits
  0000                00141         extern  _ECCP2CONbits
  0000                00142         extern  _ECCP2DELbits
  0000                00143         extern  _ECCP2ASbits
  0000                00144         extern  _CCP1CONbits
  0000                00145         extern  _ECCP1CONbits
  0000                00146         extern  _ECCP1DELbits
  0000                00147         extern  _ECCP1ASbits
  0000                00148         extern  _WDTCONbits
  0000                00149         extern  _ADCON1bits
  0000                00150         extern  _ANCON0bits
  0000                00151         extern  _ADCON0bits
  0000                00152         extern  _ANCON1bits
  0000                00153         extern  _SSP1CON2bits
  0000                00154         extern  _SSPCON2bits
  0000                00155         extern  _SSP1CON1bits
  0000                00156         extern  _SSPCON1bits
  0000                00157         extern  _SSP1STATbits
  0000                00158         extern  _SSPSTATbits
  0000                00159         extern  _SSP1MSKbits
gpasm-1.4.2 #1169 (Jan  2 2016) build/default   9-13-2016  14:11:57         PAGE  4


LOC    OBJECT CODE    LINE  SOURCE TEXT
  VALUE

  0000                00160         extern  _T2CONbits
  0000                00161         extern  _PADCFG1bits
  0000                00162         extern  _ODCON3bits
  0000                00163         extern  _T1CONbits
  0000                00164         extern  _ODCON2bits
  0000                00165         extern  _ODCON1bits
  0000                00166         extern  _RCONbits
  0000                00167         extern  _CM2CONbits
  0000                00168         extern  _CM2CON1bits
  0000                00169         extern  _CM1CONbits
  0000                00170         extern  _CM1CON1bits
  0000                00171         extern  _OSCCONbits
  0000                00172         extern  _REFOCONbits
  0000                00173         extern  _T0CONbits
  0000                00174         extern  _STATUSbits
  0000                00175         extern  _INTCON3bits
  0000                00176         extern  _INTCON2bits
  0000                00177         extern  _INTCONbits
  0000                00178         extern  _STKPTRbits
  0000                00179         extern  _PMSTAT
  0000                00180         extern  _PMSTATL
  0000                00181         extern  _PMSTATH
  0000                00182         extern  _PMEL
  0000                00183         extern  _PMEN
  0000                00184         extern  _PMEH
  0000                00185         extern  _PMDIN2
  0000                00186         extern  _PMDIN2L
  0000                00187         extern  _PMDIN2H
  0000                00188         extern  _PMDOUT2
  0000                00189         extern  _PMDOUT2L
  0000                00190         extern  _PMDOUT2H
  0000                00191         extern  _PMMODE
  0000                00192         extern  _PMMODEL
  0000                00193         extern  _PMMODEH
  0000                00194         extern  _PMCON
  0000                00195         extern  _PMCONL
  0000                00196         extern  _PMCONH
  0000                00197         extern  _UEP0
  0000                00198         extern  _UEP1
  0000                00199         extern  _UEP2
  0000                00200         extern  _UEP3
  0000                00201         extern  _UEP4
  0000                00202         extern  _UEP5
  0000                00203         extern  _UEP6
  0000                00204         extern  _UEP7
  0000                00205         extern  _UEP8
  0000                00206         extern  _UEP9
  0000                00207         extern  _UEP10
  0000                00208         extern  _UEP11
  0000                00209         extern  _UEP12
  0000                00210         extern  _UEP13
  0000                00211         extern  _UEP14
  0000                00212         extern  _UEP15
gpasm-1.4.2 #1169 (Jan  2 2016) build/default   9-13-2016  14:11:57         PAGE  5


LOC    OBJECT CODE    LINE  SOURCE TEXT
  VALUE

  0000                00213         extern  _UIE
  0000                00214         extern  _UEIE
  0000                00215         extern  _UADDR
  0000                00216         extern  _UCFG
  0000                00217         extern  _UFRM
  0000                00218         extern  _UFRML
  0000                00219         extern  _UFRMH
  0000                00220         extern  _UIR
  0000                00221         extern  _UEIR
  0000                00222         extern  _USTAT
  0000                00223         extern  _UCON
  0000                00224         extern  _PMDIN1
  0000                00225         extern  _PMDIN1L
  0000                00226         extern  _PMDIN1H
  0000                00227         extern  _PMADDR
  0000                00228         extern  _PMADDRL
  0000                00229         extern  _PMDOUT1
  0000                00230         extern  _PMDOUT1L
  0000                00231         extern  _PMADDRH
  0000                00232         extern  _PMDOUT1H
  0000                00233         extern  _CMSTAT
  0000                00234         extern  _CMSTATUS
  0000                00235         extern  _SSP2CON2
  0000                00236         extern  _SSP2CON1
  0000                00237         extern  _SSP2STAT
  0000                00238         extern  _SSP2ADD
  0000                00239         extern  _SSP2MSK
  0000                00240         extern  _SSP2BUF
  0000                00241         extern  _CCP5CON
  0000                00242         extern  _CCPR5
  0000                00243         extern  _CCPR5L
  0000                00244         extern  _CCPR5H
  0000                00245         extern  _CCP4CON
  0000                00246         extern  _CCPR4
  0000                00247         extern  _CCPR4L
  0000                00248         extern  _CCPR4H
  0000                00249         extern  _T4CON
  0000                00250         extern  _CVRCON
  0000                00251         extern  _PR4
  0000                00252         extern  _TMR4
  0000                00253         extern  _T3CON
  0000                00254         extern  _TMR3
  0000                00255         extern  _TMR3L
  0000                00256         extern  _TMR3H
  0000                00257         extern  _BAUDCON2
  0000                00258         extern  _SPBRGH2
  0000                00259         extern  _BAUDCON
  0000                00260         extern  _BAUDCON1
  0000                00261         extern  _SPBRGH
  0000                00262         extern  _SPBRGH1
  0000                00263         extern  _PORTA
  0000                00264         extern  _PORTB
  0000                00265         extern  _PORTC
gpasm-1.4.2 #1169 (Jan  2 2016) build/default   9-13-2016  14:11:57         PAGE  6


LOC    OBJECT CODE    LINE  SOURCE TEXT
  VALUE

  0000                00266         extern  _PORTD
  0000                00267         extern  _PORTE
  0000                00268         extern  _PORTF
  0000                00269         extern  _PORTG
  0000                00270         extern  _LATA
  0000                00271         extern  _LATB
  0000                00272         extern  _LATC
  0000                00273         extern  _LATD
  0000                00274         extern  _LATE
  0000                00275         extern  _LATF
  0000                00276         extern  _LATG
  0000                00277         extern  _DDRA
  0000                00278         extern  _TRISA
  0000                00279         extern  _DDRB
  0000                00280         extern  _TRISB
  0000                00281         extern  _DDRC
  0000                00282         extern  _TRISC
  0000                00283         extern  _DDRD
  0000                00284         extern  _TRISD
  0000                00285         extern  _DDRE
  0000                00286         extern  _TRISE
  0000                00287         extern  _DDRF
  0000                00288         extern  _TRISF
  0000                00289         extern  _DDRG
  0000                00290         extern  _TRISG
  0000                00291         extern  _OSCTUNE
  0000                00292         extern  _RCSTA2
  0000                00293         extern  _PIE1
  0000                00294         extern  _PIR1
  0000                00295         extern  _IPR1
  0000                00296         extern  _PIE2
  0000                00297         extern  _PIR2
  0000                00298         extern  _IPR2
  0000                00299         extern  _PIE3
  0000                00300         extern  _PIR3
  0000                00301         extern  _IPR3
  0000                00302         extern  _EECON1
  0000                00303         extern  _EECON2
  0000                00304         extern  _TXSTA2
  0000                00305         extern  _TXREG2
  0000                00306         extern  _RCREG2
  0000                00307         extern  _SPBRG2
  0000                00308         extern  _RCSTA
  0000                00309         extern  _RCSTA1
  0000                00310         extern  _TXSTA
  0000                00311         extern  _TXSTA1
  0000                00312         extern  _TXREG
  0000                00313         extern  _TXREG1
  0000                00314         extern  _RCREG
  0000                00315         extern  _RCREG1
  0000                00316         extern  _SPBRG
  0000                00317         extern  _SPBRG1
  0000                00318         extern  _CCP3CON
gpasm-1.4.2 #1169 (Jan  2 2016) build/default   9-13-2016  14:11:57         PAGE  7


LOC    OBJECT CODE    LINE  SOURCE TEXT
  VALUE

  0000                00319         extern  _ECCP3CON
  0000                00320         extern  _CCPR3
  0000                00321         extern  _CCPR3L
  0000                00322         extern  _CCPR3H
  0000                00323         extern  _ECCP3DEL
  0000                00324         extern  _ECCP3AS
  0000                00325         extern  _CCP2CON
  0000                00326         extern  _ECCP2CON
  0000                00327         extern  _CCPR2
  0000                00328         extern  _CCPR2L
  0000                00329         extern  _CCPR2H
  0000                00330         extern  _ECCP2DEL
  0000                00331         extern  _ECCP2AS
  0000                00332         extern  _CCP1CON
  0000                00333         extern  _ECCP1CON
  0000                00334         extern  _CCPR1
  0000                00335         extern  _CCPR1L
  0000                00336         extern  _CCPR1H
  0000                00337         extern  _ECCP1DEL
  0000                00338         extern  _ECCP1AS
  0000                00339         extern  _WDTCON
  0000                00340         extern  _ADCON1
  0000                00341         extern  _ANCON0
  0000                00342         extern  _ADCON0
  0000                00343         extern  _ANCON1
  0000                00344         extern  _ADRES
  0000                00345         extern  _ADRESL
  0000                00346         extern  _ADRESH
  0000                00347         extern  _SSP1CON2
  0000                00348         extern  _SSPCON2
  0000                00349         extern  _SSP1CON1
  0000                00350         extern  _SSPCON1
  0000                00351         extern  _SSP1STAT
  0000                00352         extern  _SSPSTAT
  0000                00353         extern  _SSP1ADD
  0000                00354         extern  _SSP1MSK
  0000                00355         extern  _SSPADD
  0000                00356         extern  _SSP1BUF
  0000                00357         extern  _SSPBUF
  0000                00358         extern  _T2CON
  0000                00359         extern  _PR2
  0000                00360         extern  _PADCFG1
  0000                00361         extern  _TMR2
  0000                00362         extern  _ODCON3
  0000                00363         extern  _T1CON
  0000                00364         extern  _ODCON2
  0000                00365         extern  _TMR1
  0000                00366         extern  _TMR1L
  0000                00367         extern  _ODCON1
  0000                00368         extern  _TMR1H
  0000                00369         extern  _RCON
  0000                00370         extern  _CM2CON
  0000                00371         extern  _CM2CON1
gpasm-1.4.2 #1169 (Jan  2 2016) build/default   9-13-2016  14:11:57         PAGE  8


LOC    OBJECT CODE    LINE  SOURCE TEXT
  VALUE

  0000                00372         extern  _CM1CON
  0000                00373         extern  _CM1CON1
  0000                00374         extern  _OSCCON
  0000                00375         extern  _REFOCON
  0000                00376         extern  _T0CON
  0000                00377         extern  _TMR0
  0000                00378         extern  _TMR0L
  0000                00379         extern  _TMR0H
  0000                00380         extern  _STATUS
  0000                00381         extern  _FSR2L
  0000                00382         extern  _FSR2H
  0000                00383         extern  _PLUSW2
  0000                00384         extern  _PREINC2
  0000                00385         extern  _POSTDEC2
  0000                00386         extern  _POSTINC2
  0000                00387         extern  _INDF2
  0000                00388         extern  _BSR
  0000                00389         extern  _FSR1L
  0000                00390         extern  _FSR1H
  0000                00391         extern  _PLUSW1
  0000                00392         extern  _PREINC1
  0000                00393         extern  _POSTDEC1
  0000                00394         extern  _POSTINC1
  0000                00395         extern  _INDF1
  0000                00396         extern  _WREG
  0000                00397         extern  _FSR0L
  0000                00398         extern  _FSR0H
  0000                00399         extern  _PLUSW0
  0000                00400         extern  _PREINC0
  0000                00401         extern  _POSTDEC0
  0000                00402         extern  _POSTINC0
  0000                00403         extern  _INDF0
  0000                00404         extern  _INTCON3
  0000                00405         extern  _INTCON2
  0000                00406         extern  _INTCON
  0000                00407         extern  _PROD
  0000                00408         extern  _PRODL
  0000                00409         extern  _PRODH
  0000                00410         extern  _TABLAT
  0000                00411         extern  _TBLPTR
  0000                00412         extern  _TBLPTRL
  0000                00413         extern  _TBLPTRH
  0000                00414         extern  _TBLPTRU
  0000                00415         extern  _PC
  0000                00416         extern  _PCL
  0000                00417         extern  _PCLATH
  0000                00418         extern  _PCLATU
  0000                00419         extern  _STKPTR
  0000                00420         extern  _TOS
  0000                00421         extern  _TOSL
  0000                00422         extern  _TOSH
  0000                00423         extern  _TOSU
  0000                00424         extern  _Byte_SetBit
gpasm-1.4.2 #1169 (Jan  2 2016) build/default   9-13-2016  14:11:57         PAGE  9


LOC    OBJECT CODE    LINE  SOURCE TEXT
  VALUE

  0000                00425         extern  _Byte_SetPair
  0000                00426         extern  _Byte_SetQuad
  0000                00427         extern  _Byte_SetPort
  0000                00428         extern  _Word_SetPair
  0000                00429         extern  _Word_GetPair
  0000                00430         extern  _PortProperty_Valid
                      00431 
                      00432 ;--------------------------------------------------------
                      00433 ;       Equates to used internal registers
                      00434 ;--------------------------------------------------------
  00000FD8            00435 STATUS  equ     0xfd8
  00000FF9            00436 PCL     equ     0xff9
  00000FFA            00437 PCLATH  equ     0xffa
  00000FFB            00438 PCLATU  equ     0xffb
  00000FE8            00439 WREG    equ     0xfe8
  00000FF6            00440 TBLPTRL equ     0xff6
  00000FE9            00441 FSR0L   equ     0xfe9
  00000FE1            00442 FSR1L   equ     0xfe1
  00000FD9            00443 FSR2L   equ     0xfd9
  00000FE6            00444 POSTINC1        equ     0xfe6
  00000FE5            00445 POSTDEC1        equ     0xfe5
  00000FE4            00446 PREINC1 equ     0xfe4
  00000FDB            00447 PLUSW2  equ     0xfdb
  00000FF3            00448 PRODL   equ     0xff3
  00000FF4            00449 PRODH   equ     0xff4
                      00450 
                      00451 
                      00452 ; Internal registers
                      00453 .registers      udata_ovr       0x0000
000000                00454 r0x00   res     1
000001                00455 r0x01   res     1
000002                00456 r0x02   res     1
000003                00457 r0x03   res     1
000004                00458 r0x04   res     1
000005                00459 r0x05   res     1
000006                00460 r0x06   res     1
000007                00461 r0x07   res     1
000008                00462 r0x08   res     1
000009                00463 r0x09   res     1
00000A                00464 r0x0a   res     1
00000B                00465 r0x0b   res     1
00000C                00466 r0x0c   res     1
                      00467 
                      00468 ;--------------------------------------------------------
                      00469 ; global & static initialisations
                      00470 ;--------------------------------------------------------
                      00471 ; I code from now on!
                      00472 ; ; Starting pCode block
                      00473 S_Port__Port_Get        code
000000                00474 _Port_Get:
                      00475 ;       .line   575; Port.c     UINT8           Port_Get                (PortPtr pInput)
000000 CFD9 FFE5      00476         MOVFF   FSR2L, POSTDEC1
000004 CFE1 FFD9      00477         MOVFF   FSR1L, FSR2L
gpasm-1.4.2 #1169 (Jan  2 2016) build/default   9-13-2016  14:11:57         PAGE 10


LOC    OBJECT CODE    LINE  SOURCE TEXT
  VALUE

000008 C??? F???      00478         MOVFF   r0x00, POSTDEC1
00000C C??? F???      00479         MOVFF   r0x01, POSTDEC1
000010 C??? F???      00480         MOVFF   r0x02, POSTDEC1
000014 0E02           00481         MOVLW   0x02
000016 CFDB F000      00482         MOVFF   PLUSW2, r0x00
00001A 0E03           00483         MOVLW   0x03
00001C CFDB F000      00484         MOVFF   PLUSW2, r0x01
000020 0E04           00485         MOVLW   0x04
000022 CFDB F000      00486         MOVFF   PLUSW2, r0x02
                      00487 ;       .line   577; Port.c     return pInput->mInput->mBits & 0xFF;
000026 0E09           00488         MOVLW   0x09
000028 26??           00489         ADDWF   r0x00, F
00002A 0E00           00490         MOVLW   0x00
00002C 22??           00491         ADDWFC  r0x01, F
00002E 22??           00492         ADDWFC  r0x02, F
000030 C??? F???      00493         MOVFF   r0x00, FSR0L
000034 C??? F???      00494         MOVFF   r0x01, PRODL
000038 50??           00495         MOVF    r0x02, W
00003A EC?? F0??      00496         CALL    __gptrget3
00003E 6E??           00497         MOVWF   r0x00
000040 CFF3 F000      00498         MOVFF   PRODL, r0x01
000044 CFF4 F000      00499         MOVFF   PRODH, r0x02
000048 C??? F???      00500         MOVFF   r0x00, FSR0L
00004C C??? F???      00501         MOVFF   r0x01, PRODL
000050 50??           00502         MOVF    r0x02, W
000052 EC?? F0??      00503         CALL    __gptrget1
000056 0BFF           00504         ANDLW   0xff
000058 6E??           00505         MOVWF   r0x00
00005A 50??           00506         MOVF    r0x00, W
00005C CFE4 F000      00507         MOVFF   PREINC1, r0x02
000060 CFE4 F000      00508         MOVFF   PREINC1, r0x01
000064 CFE4 F000      00509         MOVFF   PREINC1, r0x00
000068 CFE4 FFD9      00510         MOVFF   PREINC1, FSR2L
00006C 0012           00511         RETURN  
                      00512 
                      00513 ; ; Starting pCode block
                      00514 S_Port__Port_Set        code
000000                00515 _Port_Set:
                      00516 ;       .line   532; Port.c     void            Port_Set                (PortPtr pInput, UINT8 pValue)
000000 CFD9 FFE5      00517         MOVFF   FSR2L, POSTDEC1
000004 CFE1 FFD9      00518         MOVFF   FSR1L, FSR2L
000008 C??? F???      00519         MOVFF   r0x00, POSTDEC1
00000C C??? F???      00520         MOVFF   r0x01, POSTDEC1
000010 C??? F???      00521         MOVFF   r0x02, POSTDEC1
000014 C??? F???      00522         MOVFF   r0x03, POSTDEC1
000018 C??? F???      00523         MOVFF   r0x04, POSTDEC1
00001C C??? F???      00524         MOVFF   r0x05, POSTDEC1
000020 C??? F???      00525         MOVFF   r0x06, POSTDEC1
000024 C??? F???      00526         MOVFF   r0x07, POSTDEC1
000028 C??? F???      00527         MOVFF   r0x08, POSTDEC1
00002C C??? F???      00528         MOVFF   r0x09, POSTDEC1
000030 C??? F???      00529         MOVFF   r0x0a, POSTDEC1
000034 C??? F???      00530         MOVFF   r0x0b, POSTDEC1
gpasm-1.4.2 #1169 (Jan  2 2016) build/default   9-13-2016  14:11:57         PAGE 11


LOC    OBJECT CODE    LINE  SOURCE TEXT
  VALUE

000038 C??? F???      00531         MOVFF   r0x0c, POSTDEC1
00003C 0E02           00532         MOVLW   0x02
00003E CFDB F000      00533         MOVFF   PLUSW2, r0x00
000042 0E03           00534         MOVLW   0x03
000044 CFDB F000      00535         MOVFF   PLUSW2, r0x01
000048 0E04           00536         MOVLW   0x04
00004A CFDB F000      00537         MOVFF   PLUSW2, r0x02
00004E 0E05           00538         MOVLW   0x05
000050 CFDB F000      00539         MOVFF   PLUSW2, r0x03
                      00540 ;       .line   534; Port.c     ePinType        Type = (ePinType)Word_GetPair(&pInput->mType, 0);
000054 50??           00541         MOVF    r0x00, W
000056 0F0C           00542         ADDLW   0x0c
000058 6E??           00543         MOVWF   r0x04
00005A 0E00           00544         MOVLW   0x00
00005C 20??           00545         ADDWFC  r0x01, W
00005E 6E??           00546         MOVWF   r0x05
000060 0E00           00547         MOVLW   0x00
000062 20??           00548         ADDWFC  r0x02, W
000064 6E??           00549         MOVWF   r0x06
000066 0E00           00550         MOVLW   0x00
000068 6EE5           00551         MOVWF   POSTDEC1
00006A 50??           00552         MOVF    r0x06, W
00006C 6EE5           00553         MOVWF   POSTDEC1
00006E 50??           00554         MOVF    r0x05, W
000070 6EE5           00555         MOVWF   POSTDEC1
000072 50??           00556         MOVF    r0x04, W
000074 6EE5           00557         MOVWF   POSTDEC1
000076 EC?? F0??      00558         CALL    _Word_GetPair
00007A 6E??           00559         MOVWF   r0x04
00007C 0E04           00560         MOVLW   0x04
00007E 26E1           00561         ADDWF   FSR1L, F
                      00562 ;       .line   535; Port.c     UINT16          TypeRequired = Type | (Type << 2) | (Type << 4) | (Type 
                            << 6) | (Type << 8) | (Type << 10) | (Type << 12) | (Type << 14);
000080 C??? F???      00563         MOVFF   r0x04, r0x05
000084 6A??           00564         CLRF    r0x06
000086 50??           00565         MOVF    r0x05, W
000088 6E??           00566         MOVWF   r0x07
00008A 26??           00567         ADDWF   r0x07, F
00008C 34??           00568         RLCF    r0x06, W
00008E 6E??           00569         MOVWF   r0x08
000090 90D8           00570         BCF     STATUS, 0
000092 36??           00571         RLCF    r0x07, F
000094 36??           00572         RLCF    r0x08, F
000096 50??           00573         MOVF    r0x05, W
000098 12??           00574         IORWF   r0x07, F
00009A 50??           00575         MOVF    r0x06, W
00009C 12??           00576         IORWF   r0x08, F
00009E 38??           00577         SWAPF   r0x06, W
0000A0 0BF0           00578         ANDLW   0xf0
0000A2 6E??           00579         MOVWF   r0x0a
0000A4 38??           00580         SWAPF   r0x05, W
0000A6 6E??           00581         MOVWF   r0x09
0000A8 0B0F           00582         ANDLW   0x0f
gpasm-1.4.2 #1169 (Jan  2 2016) build/default   9-13-2016  14:11:57         PAGE 12


LOC    OBJECT CODE    LINE  SOURCE TEXT
  VALUE

0000AA 1A??           00583         XORWF   r0x09, F
0000AC 26??           00584         ADDWF   r0x0a, F
0000AE 50??           00585         MOVF    r0x09, W
0000B0 12??           00586         IORWF   r0x07, F
0000B2 50??           00587         MOVF    r0x0a, W
0000B4 12??           00588         IORWF   r0x08, F
0000B6 40??           00589         RRNCF   r0x05, W
0000B8 6E??           00590         MOVWF   r0x09
0000BA 42??           00591         RRNCF   r0x09, F
0000BC 40??           00592         RRNCF   r0x06, W
0000BE 6E??           00593         MOVWF   r0x0a
0000C0 42??           00594         RRNCF   r0x0a, F
0000C2 0EC0           00595         MOVLW   0xc0
0000C4 16??           00596         ANDWF   r0x0a, F
0000C6 14??           00597         ANDWF   r0x09, W
0000C8 18??           00598         XORWF   r0x09, W
0000CA 12??           00599         IORWF   r0x0a, F
0000CC 1A??           00600         XORWF   r0x09, F
0000CE 50??           00601         MOVF    r0x09, W
0000D0 12??           00602         IORWF   r0x07, F
0000D2 50??           00603         MOVF    r0x0a, W
0000D4 12??           00604         IORWF   r0x08, F
0000D6 50??           00605         MOVF    r0x05, W
0000D8 6E??           00606         MOVWF   r0x0a
0000DA 6A??           00607         CLRF    r0x09
0000DC 50??           00608         MOVF    r0x09, W
0000DE 12??           00609         IORWF   r0x07, F
0000E0 50??           00610         MOVF    r0x0a, W
0000E2 12??           00611         IORWF   r0x08, F
0000E4 44??           00612         RLNCF   r0x05, W
0000E6 44E8           00613         RLNCF   WREG, W
0000E8 0BFC           00614         ANDLW   0xfc
0000EA 6E??           00615         MOVWF   r0x0a
0000EC 6A??           00616         CLRF    r0x09
0000EE 50??           00617         MOVF    r0x09, W
0000F0 12??           00618         IORWF   r0x07, F
0000F2 50??           00619         MOVF    r0x0a, W
0000F4 12??           00620         IORWF   r0x08, F
0000F6 38??           00621         SWAPF   r0x05, W
0000F8 0BF0           00622         ANDLW   0xf0
0000FA 6E??           00623         MOVWF   r0x0a
0000FC 6A??           00624         CLRF    r0x09
0000FE 50??           00625         MOVF    r0x09, W
000100 12??           00626         IORWF   r0x07, F
000102 50??           00627         MOVF    r0x0a, W
000104 12??           00628         IORWF   r0x08, F
000106 40??           00629         RRNCF   r0x05, W
000108 40E8           00630         RRNCF   WREG, W
00010A 0BC0           00631         ANDLW   0xc0
00010C 6E??           00632         MOVWF   r0x0a
00010E 6A??           00633         CLRF    r0x09
000110 50??           00634         MOVF    r0x09, W
000112 10??           00635         IORWF   r0x07, W
gpasm-1.4.2 #1169 (Jan  2 2016) build/default   9-13-2016  14:11:57         PAGE 13


LOC    OBJECT CODE    LINE  SOURCE TEXT
  VALUE

000114 6E??           00636         MOVWF   r0x05
000116 50??           00637         MOVF    r0x0a, W
000118 10??           00638         IORWF   r0x08, W
00011A 6E??           00639         MOVWF   r0x06
                      00640 ;       .line   536; Port.c     UINT16          TypeActual = Type;
00011C C??? F???      00641         MOVFF   r0x04, r0x07
000120 6A??           00642         CLRF    r0x08
                      00643 ;       .line   537; Port.c     TypeActual |= (ePinType)Word_GetPair(&pInput->mType, 1) << 2;
000122 50??           00644         MOVF    r0x00, W
000124 0F0C           00645         ADDLW   0x0c
000126 6E??           00646         MOVWF   r0x09
000128 0E00           00647         MOVLW   0x00
00012A 20??           00648         ADDWFC  r0x01, W
00012C 6E??           00649         MOVWF   r0x0a
00012E 0E00           00650         MOVLW   0x00
000130 20??           00651         ADDWFC  r0x02, W
000132 6E??           00652         MOVWF   r0x0b
000134 0E01           00653         MOVLW   0x01
000136 6EE5           00654         MOVWF   POSTDEC1
000138 50??           00655         MOVF    r0x0b, W
00013A 6EE5           00656         MOVWF   POSTDEC1
00013C 50??           00657         MOVF    r0x0a, W
00013E 6EE5           00658         MOVWF   POSTDEC1
000140 50??           00659         MOVF    r0x09, W
000142 6EE5           00660         MOVWF   POSTDEC1
000144 EC?? F0??      00661         CALL    _Word_GetPair
000148 6E??           00662         MOVWF   r0x09
00014A 0E04           00663         MOVLW   0x04
00014C 26E1           00664         ADDWF   FSR1L, F
00014E 6A??           00665         CLRF    r0x0a
000150 50??           00666         MOVF    r0x09, W
000152 6E??           00667         MOVWF   r0x0b
000154 26??           00668         ADDWF   r0x0b, F
000156 34??           00669         RLCF    r0x0a, W
000158 6E??           00670         MOVWF   r0x0c
00015A 90D8           00671         BCF     STATUS, 0
00015C 36??           00672         RLCF    r0x0b, F
00015E 36??           00673         RLCF    r0x0c, F
000160 50??           00674         MOVF    r0x0b, W
000162 6E??           00675         MOVWF   r0x09
000164 50??           00676         MOVF    r0x0c, W
000166 6E??           00677         MOVWF   r0x0a
000168 50??           00678         MOVF    r0x09, W
00016A 12??           00679         IORWF   r0x07, F
00016C 50??           00680         MOVF    r0x0a, W
00016E 12??           00681         IORWF   r0x08, F
                      00682 ;       .line   538; Port.c     TypeActual |= (ePinType)Word_GetPair(&pInput->mType, 2) << 4;
000170 50??           00683         MOVF    r0x00, W
000172 0F0C           00684         ADDLW   0x0c
000174 6E??           00685         MOVWF   r0x09
000176 0E00           00686         MOVLW   0x00
000178 20??           00687         ADDWFC  r0x01, W
00017A 6E??           00688         MOVWF   r0x0a
gpasm-1.4.2 #1169 (Jan  2 2016) build/default   9-13-2016  14:11:57         PAGE 14


LOC    OBJECT CODE    LINE  SOURCE TEXT
  VALUE

00017C 0E00           00689         MOVLW   0x00
00017E 20??           00690         ADDWFC  r0x02, W
000180 6E??           00691         MOVWF   r0x0b
000182 0E02           00692         MOVLW   0x02
000184 6EE5           00693         MOVWF   POSTDEC1
000186 50??           00694         MOVF    r0x0b, W
000188 6EE5           00695         MOVWF   POSTDEC1
00018A 50??           00696         MOVF    r0x0a, W
00018C 6EE5           00697         MOVWF   POSTDEC1
00018E 50??           00698         MOVF    r0x09, W
000190 6EE5           00699         MOVWF   POSTDEC1
000192 EC?? F0??      00700         CALL    _Word_GetPair
000196 6E??           00701         MOVWF   r0x09
000198 0E04           00702         MOVLW   0x04
00019A 26E1           00703         ADDWF   FSR1L, F
00019C 6A??           00704         CLRF    r0x0a
00019E 38??           00705         SWAPF   r0x0a, W
0001A0 0BF0           00706         ANDLW   0xf0
0001A2 6E??           00707         MOVWF   r0x0c
0001A4 38??           00708         SWAPF   r0x09, W
0001A6 6E??           00709         MOVWF   r0x0b
0001A8 0B0F           00710         ANDLW   0x0f
0001AA 1A??           00711         XORWF   r0x0b, F
0001AC 26??           00712         ADDWF   r0x0c, F
0001AE 50??           00713         MOVF    r0x0b, W
0001B0 6E??           00714         MOVWF   r0x09
0001B2 50??           00715         MOVF    r0x0c, W
0001B4 6E??           00716         MOVWF   r0x0a
0001B6 50??           00717         MOVF    r0x09, W
0001B8 12??           00718         IORWF   r0x07, F
0001BA 50??           00719         MOVF    r0x0a, W
0001BC 12??           00720         IORWF   r0x08, F
                      00721 ;       .line   539; Port.c     TypeActual |= (ePinType)Word_GetPair(&pInput->mType, 3) << 6;
0001BE 50??           00722         MOVF    r0x00, W
0001C0 0F0C           00723         ADDLW   0x0c
0001C2 6E??           00724         MOVWF   r0x09
0001C4 0E00           00725         MOVLW   0x00
0001C6 20??           00726         ADDWFC  r0x01, W
0001C8 6E??           00727         MOVWF   r0x0a
0001CA 0E00           00728         MOVLW   0x00
0001CC 20??           00729         ADDWFC  r0x02, W
0001CE 6E??           00730         MOVWF   r0x0b
0001D0 0E03           00731         MOVLW   0x03
0001D2 6EE5           00732         MOVWF   POSTDEC1
0001D4 50??           00733         MOVF    r0x0b, W
0001D6 6EE5           00734         MOVWF   POSTDEC1
0001D8 50??           00735         MOVF    r0x0a, W
0001DA 6EE5           00736         MOVWF   POSTDEC1
0001DC 50??           00737         MOVF    r0x09, W
0001DE 6EE5           00738         MOVWF   POSTDEC1
0001E0 EC?? F0??      00739         CALL    _Word_GetPair
0001E4 6E??           00740         MOVWF   r0x09
0001E6 0E04           00741         MOVLW   0x04
gpasm-1.4.2 #1169 (Jan  2 2016) build/default   9-13-2016  14:11:57         PAGE 15


LOC    OBJECT CODE    LINE  SOURCE TEXT
  VALUE

0001E8 26E1           00742         ADDWF   FSR1L, F
0001EA 6A??           00743         CLRF    r0x0a
0001EC 40??           00744         RRNCF   r0x09, W
0001EE 6E??           00745         MOVWF   r0x0b
0001F0 42??           00746         RRNCF   r0x0b, F
0001F2 40??           00747         RRNCF   r0x0a, W
0001F4 6E??           00748         MOVWF   r0x0c
0001F6 42??           00749         RRNCF   r0x0c, F
0001F8 0EC0           00750         MOVLW   0xc0
0001FA 16??           00751         ANDWF   r0x0c, F
0001FC 14??           00752         ANDWF   r0x0b, W
0001FE 18??           00753         XORWF   r0x0b, W
000200 12??           00754         IORWF   r0x0c, F
000202 1A??           00755         XORWF   r0x0b, F
000204 50??           00756         MOVF    r0x0b, W
000206 6E??           00757         MOVWF   r0x09
000208 50??           00758         MOVF    r0x0c, W
00020A 6E??           00759         MOVWF   r0x0a
00020C 50??           00760         MOVF    r0x09, W
00020E 12??           00761         IORWF   r0x07, F
000210 50??           00762         MOVF    r0x0a, W
000212 12??           00763         IORWF   r0x08, F
                      00764 ;       .line   540; Port.c     TypeActual |= (ePinType)Word_GetPair(&pInput->mType, 4) << 8;
000214 50??           00765         MOVF    r0x00, W
000216 0F0C           00766         ADDLW   0x0c
000218 6E??           00767         MOVWF   r0x09
00021A 0E00           00768         MOVLW   0x00
00021C 20??           00769         ADDWFC  r0x01, W
00021E 6E??           00770         MOVWF   r0x0a
000220 0E00           00771         MOVLW   0x00
000222 20??           00772         ADDWFC  r0x02, W
000224 6E??           00773         MOVWF   r0x0b
000226 0E04           00774         MOVLW   0x04
000228 6EE5           00775         MOVWF   POSTDEC1
00022A 50??           00776         MOVF    r0x0b, W
00022C 6EE5           00777         MOVWF   POSTDEC1
00022E 50??           00778         MOVF    r0x0a, W
000230 6EE5           00779         MOVWF   POSTDEC1
000232 50??           00780         MOVF    r0x09, W
000234 6EE5           00781         MOVWF   POSTDEC1
000236 EC?? F0??      00782         CALL    _Word_GetPair
00023A 6E??           00783         MOVWF   r0x09
00023C 0E04           00784         MOVLW   0x04
00023E 26E1           00785         ADDWF   FSR1L, F
000240 6A??           00786         CLRF    r0x0a
000242 50??           00787         MOVF    r0x09, W
000244 6E??           00788         MOVWF   r0x0c
000246 6A??           00789         CLRF    r0x0b
000248 50??           00790         MOVF    r0x0b, W
00024A 6E??           00791         MOVWF   r0x09
00024C 50??           00792         MOVF    r0x0c, W
00024E 6E??           00793         MOVWF   r0x0a
000250 50??           00794         MOVF    r0x09, W
gpasm-1.4.2 #1169 (Jan  2 2016) build/default   9-13-2016  14:11:57         PAGE 16


LOC    OBJECT CODE    LINE  SOURCE TEXT
  VALUE

000252 12??           00795         IORWF   r0x07, F
000254 50??           00796         MOVF    r0x0a, W
000256 12??           00797         IORWF   r0x08, F
                      00798 ;       .line   541; Port.c     TypeActual |= (ePinType)Word_GetPair(&pInput->mType, 5) << 10;
000258 50??           00799         MOVF    r0x00, W
00025A 0F0C           00800         ADDLW   0x0c
00025C 6E??           00801         MOVWF   r0x09
00025E 0E00           00802         MOVLW   0x00
000260 20??           00803         ADDWFC  r0x01, W
000262 6E??           00804         MOVWF   r0x0a
000264 0E00           00805         MOVLW   0x00
000266 20??           00806         ADDWFC  r0x02, W
000268 6E??           00807         MOVWF   r0x0b
00026A 0E05           00808         MOVLW   0x05
00026C 6EE5           00809         MOVWF   POSTDEC1
00026E 50??           00810         MOVF    r0x0b, W
000270 6EE5           00811         MOVWF   POSTDEC1
000272 50??           00812         MOVF    r0x0a, W
000274 6EE5           00813         MOVWF   POSTDEC1
000276 50??           00814         MOVF    r0x09, W
000278 6EE5           00815         MOVWF   POSTDEC1
00027A EC?? F0??      00816         CALL    _Word_GetPair
00027E 6E??           00817         MOVWF   r0x09
000280 0E04           00818         MOVLW   0x04
000282 26E1           00819         ADDWF   FSR1L, F
000284 6A??           00820         CLRF    r0x0a
000286 44??           00821         RLNCF   r0x09, W
000288 44E8           00822         RLNCF   WREG, W
00028A 0BFC           00823         ANDLW   0xfc
00028C 6E??           00824         MOVWF   r0x0c
00028E 6A??           00825         CLRF    r0x0b
000290 50??           00826         MOVF    r0x0b, W
000292 6E??           00827         MOVWF   r0x09
000294 50??           00828         MOVF    r0x0c, W
000296 6E??           00829         MOVWF   r0x0a
000298 50??           00830         MOVF    r0x09, W
00029A 12??           00831         IORWF   r0x07, F
00029C 50??           00832         MOVF    r0x0a, W
00029E 12??           00833         IORWF   r0x08, F
                      00834 ;       .line   542; Port.c     TypeActual |= (ePinType)Word_GetPair(&pInput->mType, 6) << 12;
0002A0 50??           00835         MOVF    r0x00, W
0002A2 0F0C           00836         ADDLW   0x0c
0002A4 6E??           00837         MOVWF   r0x09
0002A6 0E00           00838         MOVLW   0x00
0002A8 20??           00839         ADDWFC  r0x01, W
0002AA 6E??           00840         MOVWF   r0x0a
0002AC 0E00           00841         MOVLW   0x00
0002AE 20??           00842         ADDWFC  r0x02, W
0002B0 6E??           00843         MOVWF   r0x0b
0002B2 0E06           00844         MOVLW   0x06
0002B4 6EE5           00845         MOVWF   POSTDEC1
0002B6 50??           00846         MOVF    r0x0b, W
0002B8 6EE5           00847         MOVWF   POSTDEC1
gpasm-1.4.2 #1169 (Jan  2 2016) build/default   9-13-2016  14:11:57         PAGE 17


LOC    OBJECT CODE    LINE  SOURCE TEXT
  VALUE

0002BA 50??           00848         MOVF    r0x0a, W
0002BC 6EE5           00849         MOVWF   POSTDEC1
0002BE 50??           00850         MOVF    r0x09, W
0002C0 6EE5           00851         MOVWF   POSTDEC1
0002C2 EC?? F0??      00852         CALL    _Word_GetPair
0002C6 6E??           00853         MOVWF   r0x09
0002C8 0E04           00854         MOVLW   0x04
0002CA 26E1           00855         ADDWF   FSR1L, F
0002CC 6A??           00856         CLRF    r0x0a
0002CE 38??           00857         SWAPF   r0x09, W
0002D0 0BF0           00858         ANDLW   0xf0
0002D2 6E??           00859         MOVWF   r0x0c
0002D4 6A??           00860         CLRF    r0x0b
0002D6 50??           00861         MOVF    r0x0b, W
0002D8 6E??           00862         MOVWF   r0x09
0002DA 50??           00863         MOVF    r0x0c, W
0002DC 6E??           00864         MOVWF   r0x0a
0002DE 50??           00865         MOVF    r0x09, W
0002E0 12??           00866         IORWF   r0x07, F
0002E2 50??           00867         MOVF    r0x0a, W
0002E4 12??           00868         IORWF   r0x08, F
                      00869 ;       .line   543; Port.c     TypeActual |= (ePinType)Word_GetPair(&pInput->mType, 7) << 14;
0002E6 50??           00870         MOVF    r0x00, W
0002E8 0F0C           00871         ADDLW   0x0c
0002EA 6E??           00872         MOVWF   r0x09
0002EC 0E00           00873         MOVLW   0x00
0002EE 20??           00874         ADDWFC  r0x01, W
0002F0 6E??           00875         MOVWF   r0x0a
0002F2 0E00           00876         MOVLW   0x00
0002F4 20??           00877         ADDWFC  r0x02, W
0002F6 6E??           00878         MOVWF   r0x0b
0002F8 0E07           00879         MOVLW   0x07
0002FA 6EE5           00880         MOVWF   POSTDEC1
0002FC 50??           00881         MOVF    r0x0b, W
0002FE 6EE5           00882         MOVWF   POSTDEC1
000300 50??           00883         MOVF    r0x0a, W
000302 6EE5           00884         MOVWF   POSTDEC1
000304 50??           00885         MOVF    r0x09, W
000306 6EE5           00886         MOVWF   POSTDEC1
000308 EC?? F0??      00887         CALL    _Word_GetPair
00030C 6E??           00888         MOVWF   r0x09
00030E 0E04           00889         MOVLW   0x04
000310 26E1           00890         ADDWF   FSR1L, F
000312 6A??           00891         CLRF    r0x0a
000314 40??           00892         RRNCF   r0x09, W
000316 40E8           00893         RRNCF   WREG, W
000318 0BC0           00894         ANDLW   0xc0
00031A 6E??           00895         MOVWF   r0x0c
00031C 6A??           00896         CLRF    r0x0b
00031E 50??           00897         MOVF    r0x0b, W
000320 6E??           00898         MOVWF   r0x09
000322 50??           00899         MOVF    r0x0c, W
000324 6E??           00900         MOVWF   r0x0a
gpasm-1.4.2 #1169 (Jan  2 2016) build/default   9-13-2016  14:11:57         PAGE 18


LOC    OBJECT CODE    LINE  SOURCE TEXT
  VALUE

000326 50??           00901         MOVF    r0x09, W
000328 12??           00902         IORWF   r0x07, F
00032A 50??           00903         MOVF    r0x0a, W
00032C 12??           00904         IORWF   r0x08, F
                      00905 ;       .line   546; Port.c     if (TypeRequired == TypeActual)
00032E 50??           00906         MOVF    r0x05, W
000330 18??           00907         XORWF   r0x07, W
000332 E1??           00908         BNZ     _00506_DS_
000334 50??           00909         MOVF    r0x06, W
000336 18??           00910         XORWF   r0x08, W
000338 E0??           00911         BZ      _00507_DS_
00033A                00912 _00506_DS_:
00033A D???           00913         BRA     _00484_DS_
00033C                00914 _00507_DS_:
                      00915 ;       .line   549; Port.c     switch (Type)
00033C 0E04           00916         MOVLW   0x04
00033E 5C??           00917         SUBWF   r0x04, W
000340 B0D8           00918         BTFSC   STATUS, 0
000342 D???           00919         BRA     _00484_DS_
000344 6AFA           00920         CLRF    PCLATH
000346 6AFB           00921         CLRF    PCLATU
000348 34??           00922         RLCF    r0x04, W
00034A 36FA           00923         RLCF    PCLATH, F
00034C 34E8           00924         RLCF    WREG, W
00034E 36FA           00925         RLCF    PCLATH, F
000350 0BFC           00926         ANDLW   0xfc
000352 0F??           00927         ADDLW   LOW(_00509_DS_)
000354 6EE5           00928         MOVWF   POSTDEC1
000356 0E??           00929         MOVLW   HIGH(_00509_DS_)
000358 22FA           00930         ADDWFC  PCLATH, F
00035A 0E??           00931         MOVLW   UPPER(_00509_DS_)
00035C 22FB           00932         ADDWFC  PCLATU, F
00035E 50E4           00933         MOVF    PREINC1, W
000360 6EF9           00934         MOVWF   PCL
000362                00935 _00509_DS_:
000362 EF?? F0??      00936         GOTO    _00476_DS_
000366 EF?? F0??      00937         GOTO    _00477_DS_
00036A EF?? F0??      00938         GOTO    _00478_DS_
00036E EF?? F0??      00939         GOTO    _00479_DS_
000372                00940 _00476_DS_:
                      00941 ;       .line   552; Port.c     return;
000372 D???           00942         BRA     _00484_DS_
000374                00943 _00477_DS_:
                      00944 ;       .line   555; Port.c     Byte_SetPort(pInput->mDirection, pValue);
000374 50??           00945         MOVF    r0x00, W
000376 0F03           00946         ADDLW   0x03
000378 6E??           00947         MOVWF   r0x04
00037A 0E00           00948         MOVLW   0x00
00037C 20??           00949         ADDWFC  r0x01, W
00037E 6E??           00950         MOVWF   r0x05
000380 0E00           00951         MOVLW   0x00
000382 20??           00952         ADDWFC  r0x02, W
000384 6E??           00953         MOVWF   r0x06
gpasm-1.4.2 #1169 (Jan  2 2016) build/default   9-13-2016  14:11:57         PAGE 19


LOC    OBJECT CODE    LINE  SOURCE TEXT
  VALUE

000386 C??? F???      00954         MOVFF   r0x04, FSR0L
00038A C??? F???      00955         MOVFF   r0x05, PRODL
00038E 50??           00956         MOVF    r0x06, W
000390 EC?? F0??      00957         CALL    __gptrget3
000394 6E??           00958         MOVWF   r0x04
000396 CFF3 F000      00959         MOVFF   PRODL, r0x05
00039A CFF4 F000      00960         MOVFF   PRODH, r0x06
00039E 50??           00961         MOVF    r0x03, W
0003A0 6EE5           00962         MOVWF   POSTDEC1
0003A2 50??           00963         MOVF    r0x06, W
0003A4 6EE5           00964         MOVWF   POSTDEC1
0003A6 50??           00965         MOVF    r0x05, W
0003A8 6EE5           00966         MOVWF   POSTDEC1
0003AA 50??           00967         MOVF    r0x04, W
0003AC 6EE5           00968         MOVWF   POSTDEC1
0003AE EC?? F0??      00969         CALL    _Byte_SetPort
0003B2 0E04           00970         MOVLW   0x04
0003B4 26E1           00971         ADDWF   FSR1L, F
                      00972 ;       .line   556; Port.c     break;
0003B6 D???           00973         BRA     _00484_DS_
0003B8                00974 _00478_DS_:
                      00975 ;       .line   559; Port.c     pValue = ~pValue;
0003B8 1E??           00976         COMF    r0x03, F
                      00977 ;       .line   560; Port.c     Byte_SetPort(pInput->mDirection, pValue);
0003BA 50??           00978         MOVF    r0x00, W
0003BC 0F03           00979         ADDLW   0x03
0003BE 6E??           00980         MOVWF   r0x04
0003C0 0E00           00981         MOVLW   0x00
0003C2 20??           00982         ADDWFC  r0x01, W
0003C4 6E??           00983         MOVWF   r0x05
0003C6 0E00           00984         MOVLW   0x00
0003C8 20??           00985         ADDWFC  r0x02, W
0003CA 6E??           00986         MOVWF   r0x06
0003CC C??? F???      00987         MOVFF   r0x04, FSR0L
0003D0 C??? F???      00988         MOVFF   r0x05, PRODL
0003D4 50??           00989         MOVF    r0x06, W
0003D6 EC?? F0??      00990         CALL    __gptrget3
0003DA 6E??           00991         MOVWF   r0x04
0003DC CFF3 F000      00992         MOVFF   PRODL, r0x05
0003E0 CFF4 F000      00993         MOVFF   PRODH, r0x06
0003E4 50??           00994         MOVF    r0x03, W
0003E6 6EE5           00995         MOVWF   POSTDEC1
0003E8 50??           00996         MOVF    r0x06, W
0003EA 6EE5           00997         MOVWF   POSTDEC1
0003EC 50??           00998         MOVF    r0x05, W
0003EE 6EE5           00999         MOVWF   POSTDEC1
0003F0 50??           01000         MOVF    r0x04, W
0003F2 6EE5           01001         MOVWF   POSTDEC1
0003F4 EC?? F0??      01002         CALL    _Byte_SetPort
0003F8 0E04           01003         MOVLW   0x04
0003FA 26E1           01004         ADDWF   FSR1L, F
                      01005 ;       .line   561; Port.c     break;
0003FC D???           01006         BRA     _00484_DS_
gpasm-1.4.2 #1169 (Jan  2 2016) build/default   9-13-2016  14:11:57         PAGE 20


LOC    OBJECT CODE    LINE  SOURCE TEXT
  VALUE

0003FE                01007 _00479_DS_:
                      01008 ;       .line   564; Port.c     Byte_SetPort(pInput->mOutput, pValue);
0003FE 0E06           01009         MOVLW   0x06
000400 26??           01010         ADDWF   r0x00, F
000402 0E00           01011         MOVLW   0x00
000404 22??           01012         ADDWFC  r0x01, F
000406 22??           01013         ADDWFC  r0x02, F
000408 C??? F???      01014         MOVFF   r0x00, FSR0L
00040C C??? F???      01015         MOVFF   r0x01, PRODL
000410 50??           01016         MOVF    r0x02, W
000412 EC?? F0??      01017         CALL    __gptrget3
000416 6E??           01018         MOVWF   r0x00
000418 CFF3 F000      01019         MOVFF   PRODL, r0x01
00041C CFF4 F000      01020         MOVFF   PRODH, r0x02
000420 50??           01021         MOVF    r0x03, W
000422 6EE5           01022         MOVWF   POSTDEC1
000424 50??           01023         MOVF    r0x02, W
000426 6EE5           01024         MOVWF   POSTDEC1
000428 50??           01025         MOVF    r0x01, W
00042A 6EE5           01026         MOVWF   POSTDEC1
00042C 50??           01027         MOVF    r0x00, W
00042E 6EE5           01028         MOVWF   POSTDEC1
000430 EC?? F0??      01029         CALL    _Byte_SetPort
000434 0E04           01030         MOVLW   0x04
000436 26E1           01031         ADDWF   FSR1L, F
000438                01032 _00484_DS_:
                      01033 ;       .line   568; Port.c     }
000438 CFE4 F000      01034         MOVFF   PREINC1, r0x0c
00043C CFE4 F000      01035         MOVFF   PREINC1, r0x0b
000440 CFE4 F000      01036         MOVFF   PREINC1, r0x0a
000444 CFE4 F000      01037         MOVFF   PREINC1, r0x09
000448 CFE4 F000      01038         MOVFF   PREINC1, r0x08
00044C CFE4 F000      01039         MOVFF   PREINC1, r0x07
000450 CFE4 F000      01040         MOVFF   PREINC1, r0x06
000454 CFE4 F000      01041         MOVFF   PREINC1, r0x05
000458 CFE4 F000      01042         MOVFF   PREINC1, r0x04
00045C CFE4 F000      01043         MOVFF   PREINC1, r0x03
000460 CFE4 F000      01044         MOVFF   PREINC1, r0x02
000464 CFE4 F000      01045         MOVFF   PREINC1, r0x01
000468 CFE4 F000      01046         MOVFF   PREINC1, r0x00
00046C CFE4 FFD9      01047         MOVFF   PREINC1, FSR2L
000470 0012           01048         RETURN  
                      01049 
                      01050 ; ; Starting pCode block
                      01051 S_Port__Port_SetType    code
000000                01052 _Port_SetType:
                      01053 ;       .line   475; Port.c     ePinError       Port_SetType    (PortPtr pInput, ePinType pType)
000000 CFD9 FFE5      01054         MOVFF   FSR2L, POSTDEC1
000004 CFE1 FFD9      01055         MOVFF   FSR1L, FSR2L
000008 C??? F???      01056         MOVFF   r0x00, POSTDEC1
00000C C??? F???      01057         MOVFF   r0x01, POSTDEC1
000010 C??? F???      01058         MOVFF   r0x02, POSTDEC1
000014 C??? F???      01059         MOVFF   r0x03, POSTDEC1
gpasm-1.4.2 #1169 (Jan  2 2016) build/default   9-13-2016  14:11:57         PAGE 21


LOC    OBJECT CODE    LINE  SOURCE TEXT
  VALUE

000018 C??? F???      01060         MOVFF   r0x04, POSTDEC1
00001C C??? F???      01061         MOVFF   r0x05, POSTDEC1
000020 C??? F???      01062         MOVFF   r0x06, POSTDEC1
000024 C??? F???      01063         MOVFF   r0x07, POSTDEC1
000028 0E02           01064         MOVLW   0x02
00002A CFDB F000      01065         MOVFF   PLUSW2, r0x00
00002E 0E03           01066         MOVLW   0x03
000030 CFDB F000      01067         MOVFF   PLUSW2, r0x01
000034 0E04           01068         MOVLW   0x04
000036 CFDB F000      01069         MOVFF   PLUSW2, r0x02
00003A 0E05           01070         MOVLW   0x05
00003C CFDB F000      01071         MOVFF   PLUSW2, r0x03
                      01072 ;       .line   477; Port.c     ePinError Output = ePinErrorState;
000040 0E05           01073         MOVLW   0x05
000042 6E??           01074         MOVWF   r0x04
                      01075 ;       .line   479; Port.c     switch (pType)
000044 0E04           01076         MOVLW   0x04
000046 5C??           01077         SUBWF   r0x03, W
000048 B0D8           01078         BTFSC   STATUS, 0
00004A D???           01079         BRA     _00452_DS_
00004C 6AFA           01080         CLRF    PCLATH
00004E 6AFB           01081         CLRF    PCLATU
000050 34??           01082         RLCF    r0x03, W
000052 36FA           01083         RLCF    PCLATH, F
000054 34E8           01084         RLCF    WREG, W
000056 36FA           01085         RLCF    PCLATH, F
000058 0BFC           01086         ANDLW   0xfc
00005A 0F??           01087         ADDLW   LOW(_00471_DS_)
00005C 6EE5           01088         MOVWF   POSTDEC1
00005E 0E??           01089         MOVLW   HIGH(_00471_DS_)
000060 22FA           01090         ADDWFC  PCLATH, F
000062 0E??           01091         MOVLW   UPPER(_00471_DS_)
000064 22FB           01092         ADDWFC  PCLATU, F
000066 50E4           01093         MOVF    PREINC1, W
000068 6EF9           01094         MOVWF   PCL
00006A                01095 _00471_DS_:
00006A EF?? F0??      01096         GOTO    _00435_DS_
00006E EF?? F0??      01097         GOTO    _00439_DS_
000072 EF?? F0??      01098         GOTO    _00443_DS_
000076 EF?? F0??      01099         GOTO    _00447_DS_
00007A                01100 _00435_DS_:
                      01101 ;       .line   483; Port.c     if ((Output=Port_CheckPortType(pInput, eNone)) == ePinErrorNone)
00007A 0E03           01102         MOVLW   0x03
00007C 6EE5           01103         MOVWF   POSTDEC1
00007E 50??           01104         MOVF    r0x02, W
000080 6EE5           01105         MOVWF   POSTDEC1
000082 50??           01106         MOVF    r0x01, W
000084 6EE5           01107         MOVWF   POSTDEC1
000086 50??           01108         MOVF    r0x00, W
000088 6EE5           01109         MOVWF   POSTDEC1
00008A EC?? F0??      01110         CALL    _Port_CheckPortType
00008E 6E??           01111         MOVWF   r0x05
000090 0E04           01112         MOVLW   0x04
gpasm-1.4.2 #1169 (Jan  2 2016) build/default   9-13-2016  14:11:57         PAGE 22


LOC    OBJECT CODE    LINE  SOURCE TEXT
  VALUE

000092 26E1           01113         ADDWF   FSR1L, F
000094 C??? F???      01114         MOVFF   r0x05, r0x04
000098 50??           01115         MOVF    r0x05, W
00009A E1??           01116         BNZ     _00437_DS_
                      01117 ;       .line   484; Port.c     pInput->mDirection->mBits = 0xFF;
00009C 50??           01118         MOVF    r0x00, W
00009E 0F03           01119         ADDLW   0x03
0000A0 6E??           01120         MOVWF   r0x05
0000A2 0E00           01121         MOVLW   0x00
0000A4 20??           01122         ADDWFC  r0x01, W
0000A6 6E??           01123         MOVWF   r0x06
0000A8 0E00           01124         MOVLW   0x00
0000AA 20??           01125         ADDWFC  r0x02, W
0000AC 6E??           01126         MOVWF   r0x07
0000AE C??? F???      01127         MOVFF   r0x05, FSR0L
0000B2 C??? F???      01128         MOVFF   r0x06, PRODL
0000B6 50??           01129         MOVF    r0x07, W
0000B8 EC?? F0??      01130         CALL    __gptrget3
0000BC 6E??           01131         MOVWF   r0x05
0000BE CFF3 F000      01132         MOVFF   PRODL, r0x06
0000C2 CFF4 F000      01133         MOVFF   PRODH, r0x07
0000C6 0EFF           01134         MOVLW   0xff
0000C8 6EE5           01135         MOVWF   POSTDEC1
0000CA C??? F???      01136         MOVFF   r0x05, FSR0L
0000CE C??? F???      01137         MOVFF   r0x06, PRODL
0000D2 50??           01138         MOVF    r0x07, W
0000D4 EC?? F0??      01139         CALL    __gptrput1
0000D8 D???           01140         BRA     _00452_DS_
0000DA                01141 _00437_DS_:
                      01142 ;       .line   485; Port.c     else return Output;
0000DA 50??           01143         MOVF    r0x04, W
0000DC D???           01144         BRA     _00453_DS_
0000DE                01145 _00439_DS_:
                      01146 ;       .line   488; Port.c     if ((Output=Port_CheckPortType(pInput, eLow)) == ePinErrorNone)
0000DE 0E01           01147         MOVLW   0x01
0000E0 6EE5           01148         MOVWF   POSTDEC1
0000E2 50??           01149         MOVF    r0x02, W
0000E4 6EE5           01150         MOVWF   POSTDEC1
0000E6 50??           01151         MOVF    r0x01, W
0000E8 6EE5           01152         MOVWF   POSTDEC1
0000EA 50??           01153         MOVF    r0x00, W
0000EC 6EE5           01154         MOVWF   POSTDEC1
0000EE EC?? F0??      01155         CALL    _Port_CheckPortType
0000F2 6E??           01156         MOVWF   r0x05
0000F4 0E04           01157         MOVLW   0x04
0000F6 26E1           01158         ADDWF   FSR1L, F
0000F8 C??? F???      01159         MOVFF   r0x05, r0x04
0000FC 50??           01160         MOVF    r0x05, W
0000FE A4D8           01161         BTFSS   STATUS, 2
000100 D???           01162         BRA     _00441_DS_
                      01163 ;       .line   491; Port.c     pInput->mDirection->mBits = 0x00;
000102 50??           01164         MOVF    r0x00, W
000104 0F03           01165         ADDLW   0x03
gpasm-1.4.2 #1169 (Jan  2 2016) build/default   9-13-2016  14:11:57         PAGE 23


LOC    OBJECT CODE    LINE  SOURCE TEXT
  VALUE

000106 6E??           01166         MOVWF   r0x05
000108 0E00           01167         MOVLW   0x00
00010A 20??           01168         ADDWFC  r0x01, W
00010C 6E??           01169         MOVWF   r0x06
00010E 0E00           01170         MOVLW   0x00
000110 20??           01171         ADDWFC  r0x02, W
000112 6E??           01172         MOVWF   r0x07
000114 C??? F???      01173         MOVFF   r0x05, FSR0L
000118 C??? F???      01174         MOVFF   r0x06, PRODL
00011C 50??           01175         MOVF    r0x07, W
00011E EC?? F0??      01176         CALL    __gptrget3
000122 6E??           01177         MOVWF   r0x05
000124 CFF3 F000      01178         MOVFF   PRODL, r0x06
000128 CFF4 F000      01179         MOVFF   PRODH, r0x07
00012C 0E00           01180         MOVLW   0x00
00012E 6EE5           01181         MOVWF   POSTDEC1
000130 C??? F???      01182         MOVFF   r0x05, FSR0L
000134 C??? F???      01183         MOVFF   r0x06, PRODL
000138 50??           01184         MOVF    r0x07, W
00013A EC?? F0??      01185         CALL    __gptrput1
                      01186 ;       .line   494; Port.c     pInput->mOutput->mBits = 0x00;
00013E 50??           01187         MOVF    r0x00, W
000140 0F06           01188         ADDLW   0x06
000142 6E??           01189         MOVWF   r0x05
000144 0E00           01190         MOVLW   0x00
000146 20??           01191         ADDWFC  r0x01, W
000148 6E??           01192         MOVWF   r0x06
00014A 0E00           01193         MOVLW   0x00
00014C 20??           01194         ADDWFC  r0x02, W
00014E 6E??           01195         MOVWF   r0x07
000150 C??? F???      01196         MOVFF   r0x05, FSR0L
000154 C??? F???      01197         MOVFF   r0x06, PRODL
000158 50??           01198         MOVF    r0x07, W
00015A EC?? F0??      01199         CALL    __gptrget3
00015E 6E??           01200         MOVWF   r0x05
000160 CFF3 F000      01201         MOVFF   PRODL, r0x06
000164 CFF4 F000      01202         MOVFF   PRODH, r0x07
000168 0E00           01203         MOVLW   0x00
00016A 6EE5           01204         MOVWF   POSTDEC1
00016C C??? F???      01205         MOVFF   r0x05, FSR0L
000170 C??? F???      01206         MOVFF   r0x06, PRODL
000174 50??           01207         MOVF    r0x07, W
000176 EC?? F0??      01208         CALL    __gptrput1
00017A D???           01209         BRA     _00452_DS_
00017C                01210 _00441_DS_:
                      01211 ;       .line   496; Port.c     else return Output;
00017C 50??           01212         MOVF    r0x04, W
00017E D???           01213         BRA     _00453_DS_
000180                01214 _00443_DS_:
                      01215 ;       .line   499; Port.c     if ((Output=Port_CheckPortType(pInput, eHigh)) == ePinErrorNone)
000180 0E02           01216         MOVLW   0x02
000182 6EE5           01217         MOVWF   POSTDEC1
000184 50??           01218         MOVF    r0x02, W
gpasm-1.4.2 #1169 (Jan  2 2016) build/default   9-13-2016  14:11:57         PAGE 24


LOC    OBJECT CODE    LINE  SOURCE TEXT
  VALUE

000186 6EE5           01219         MOVWF   POSTDEC1
000188 50??           01220         MOVF    r0x01, W
00018A 6EE5           01221         MOVWF   POSTDEC1
00018C 50??           01222         MOVF    r0x00, W
00018E 6EE5           01223         MOVWF   POSTDEC1
000190 EC?? F0??      01224         CALL    _Port_CheckPortType
000194 6E??           01225         MOVWF   r0x05
000196 0E04           01226         MOVLW   0x04
000198 26E1           01227         ADDWF   FSR1L, F
00019A C??? F???      01228         MOVFF   r0x05, r0x04
00019E 50??           01229         MOVF    r0x05, W
0001A0 A4D8           01230         BTFSS   STATUS, 2
0001A2 D???           01231         BRA     _00445_DS_
                      01232 ;       .line   502; Port.c     pInput->mDirection->mBits = 0xFF;
0001A4 50??           01233         MOVF    r0x00, W
0001A6 0F03           01234         ADDLW   0x03
0001A8 6E??           01235         MOVWF   r0x05
0001AA 0E00           01236         MOVLW   0x00
0001AC 20??           01237         ADDWFC  r0x01, W
0001AE 6E??           01238         MOVWF   r0x06
0001B0 0E00           01239         MOVLW   0x00
0001B2 20??           01240         ADDWFC  r0x02, W
0001B4 6E??           01241         MOVWF   r0x07
0001B6 C??? F???      01242         MOVFF   r0x05, FSR0L
0001BA C??? F???      01243         MOVFF   r0x06, PRODL
0001BE 50??           01244         MOVF    r0x07, W
0001C0 EC?? F0??      01245         CALL    __gptrget3
0001C4 6E??           01246         MOVWF   r0x05
0001C6 CFF3 F000      01247         MOVFF   PRODL, r0x06
0001CA CFF4 F000      01248         MOVFF   PRODH, r0x07
0001CE 0EFF           01249         MOVLW   0xff
0001D0 6EE5           01250         MOVWF   POSTDEC1
0001D2 C??? F???      01251         MOVFF   r0x05, FSR0L
0001D6 C??? F???      01252         MOVFF   r0x06, PRODL
0001DA 50??           01253         MOVF    r0x07, W
0001DC EC?? F0??      01254         CALL    __gptrput1
                      01255 ;       .line   505; Port.c     pInput->mOutput->mBits = 0xFF;
0001E0 50??           01256         MOVF    r0x00, W
0001E2 0F06           01257         ADDLW   0x06
0001E4 6E??           01258         MOVWF   r0x05
0001E6 0E00           01259         MOVLW   0x00
0001E8 20??           01260         ADDWFC  r0x01, W
0001EA 6E??           01261         MOVWF   r0x06
0001EC 0E00           01262         MOVLW   0x00
0001EE 20??           01263         ADDWFC  r0x02, W
0001F0 6E??           01264         MOVWF   r0x07
0001F2 C??? F???      01265         MOVFF   r0x05, FSR0L
0001F6 C??? F???      01266         MOVFF   r0x06, PRODL
0001FA 50??           01267         MOVF    r0x07, W
0001FC EC?? F0??      01268         CALL    __gptrget3
000200 6E??           01269         MOVWF   r0x05
000202 CFF3 F000      01270         MOVFF   PRODL, r0x06
000206 CFF4 F000      01271         MOVFF   PRODH, r0x07
gpasm-1.4.2 #1169 (Jan  2 2016) build/default   9-13-2016  14:11:57         PAGE 25


LOC    OBJECT CODE    LINE  SOURCE TEXT
  VALUE

00020A 0EFF           01272         MOVLW   0xff
00020C 6EE5           01273         MOVWF   POSTDEC1
00020E C??? F???      01274         MOVFF   r0x05, FSR0L
000212 C??? F???      01275         MOVFF   r0x06, PRODL
000216 50??           01276         MOVF    r0x07, W
000218 EC?? F0??      01277         CALL    __gptrput1
00021C D???           01278         BRA     _00452_DS_
00021E                01279 _00445_DS_:
                      01280 ;       .line   507; Port.c     else return Output;
00021E 50??           01281         MOVF    r0x04, W
000220 D???           01282         BRA     _00453_DS_
000222                01283 _00447_DS_:
                      01284 ;       .line   510; Port.c     if ((Output=Port_CheckPortType(pInput, eHL)) == ePinErrorNone)
000222 0E00           01285         MOVLW   0x00
000224 6EE5           01286         MOVWF   POSTDEC1
000226 50??           01287         MOVF    r0x02, W
000228 6EE5           01288         MOVWF   POSTDEC1
00022A 50??           01289         MOVF    r0x01, W
00022C 6EE5           01290         MOVWF   POSTDEC1
00022E 50??           01291         MOVF    r0x00, W
000230 6EE5           01292         MOVWF   POSTDEC1
000232 EC?? F0??      01293         CALL    _Port_CheckPortType
000236 6E??           01294         MOVWF   r0x05
000238 0E04           01295         MOVLW   0x04
00023A 26E1           01296         ADDWF   FSR1L, F
00023C C??? F???      01297         MOVFF   r0x05, r0x04
000240 50??           01298         MOVF    r0x05, W
000242 E1??           01299         BNZ     _00449_DS_
                      01300 ;       .line   513; Port.c     pInput->mDirection->mBits = 0x00;
000244 50??           01301         MOVF    r0x00, W
000246 0F03           01302         ADDLW   0x03
000248 6E??           01303         MOVWF   r0x05
00024A 0E00           01304         MOVLW   0x00
00024C 20??           01305         ADDWFC  r0x01, W
00024E 6E??           01306         MOVWF   r0x06
000250 0E00           01307         MOVLW   0x00
000252 20??           01308         ADDWFC  r0x02, W
000254 6E??           01309         MOVWF   r0x07
000256 C??? F???      01310         MOVFF   r0x05, FSR0L
00025A C??? F???      01311         MOVFF   r0x06, PRODL
00025E 50??           01312         MOVF    r0x07, W
000260 EC?? F0??      01313         CALL    __gptrget3
000264 6E??           01314         MOVWF   r0x05
000266 CFF3 F000      01315         MOVFF   PRODL, r0x06
00026A CFF4 F000      01316         MOVFF   PRODH, r0x07
00026E 0E00           01317         MOVLW   0x00
000270 6EE5           01318         MOVWF   POSTDEC1
000272 C??? F???      01319         MOVFF   r0x05, FSR0L
000276 C??? F???      01320         MOVFF   r0x06, PRODL
00027A 50??           01321         MOVF    r0x07, W
00027C EC?? F0??      01322         CALL    __gptrput1
000280 D???           01323         BRA     _00452_DS_
000282                01324 _00449_DS_:
gpasm-1.4.2 #1169 (Jan  2 2016) build/default   9-13-2016  14:11:57         PAGE 26


LOC    OBJECT CODE    LINE  SOURCE TEXT
  VALUE

                      01325 ;       .line   515; Port.c     else return Output;
000282 50??           01326         MOVF    r0x04, W
000284 D???           01327         BRA     _00453_DS_
000286                01328 _00452_DS_:
                      01329 ;       .line   522; Port.c     Word_SetPair(&pInput->mType, 0, (UINT8)pType);
000286 50??           01330         MOVF    r0x00, W
000288 0F0C           01331         ADDLW   0x0c
00028A 6E??           01332         MOVWF   r0x05
00028C 0E00           01333         MOVLW   0x00
00028E 20??           01334         ADDWFC  r0x01, W
000290 6E??           01335         MOVWF   r0x06
000292 0E00           01336         MOVLW   0x00
000294 20??           01337         ADDWFC  r0x02, W
000296 6E??           01338         MOVWF   r0x07
000298 50??           01339         MOVF    r0x03, W
00029A 6EE5           01340         MOVWF   POSTDEC1
00029C 0E00           01341         MOVLW   0x00
00029E 6EE5           01342         MOVWF   POSTDEC1
0002A0 50??           01343         MOVF    r0x07, W
0002A2 6EE5           01344         MOVWF   POSTDEC1
0002A4 50??           01345         MOVF    r0x06, W
0002A6 6EE5           01346         MOVWF   POSTDEC1
0002A8 50??           01347         MOVF    r0x05, W
0002AA 6EE5           01348         MOVWF   POSTDEC1
0002AC EC?? F0??      01349         CALL    _Word_SetPair
0002B0 0E05           01350         MOVLW   0x05
0002B2 26E1           01351         ADDWF   FSR1L, F
                      01352 ;       .line   523; Port.c     Word_SetPair(&pInput->mType, 1, (UINT8)pType);
0002B4 50??           01353         MOVF    r0x00, W
0002B6 0F0C           01354         ADDLW   0x0c
0002B8 6E??           01355         MOVWF   r0x05
0002BA 0E00           01356         MOVLW   0x00
0002BC 20??           01357         ADDWFC  r0x01, W
0002BE 6E??           01358         MOVWF   r0x06
0002C0 0E00           01359         MOVLW   0x00
0002C2 20??           01360         ADDWFC  r0x02, W
0002C4 6E??           01361         MOVWF   r0x07
0002C6 50??           01362         MOVF    r0x03, W
0002C8 6EE5           01363         MOVWF   POSTDEC1
0002CA 0E01           01364         MOVLW   0x01
0002CC 6EE5           01365         MOVWF   POSTDEC1
0002CE 50??           01366         MOVF    r0x07, W
0002D0 6EE5           01367         MOVWF   POSTDEC1
0002D2 50??           01368         MOVF    r0x06, W
0002D4 6EE5           01369         MOVWF   POSTDEC1
0002D6 50??           01370         MOVF    r0x05, W
0002D8 6EE5           01371         MOVWF   POSTDEC1
0002DA EC?? F0??      01372         CALL    _Word_SetPair
0002DE 0E05           01373         MOVLW   0x05
0002E0 26E1           01374         ADDWF   FSR1L, F
                      01375 ;       .line   524; Port.c     Word_SetPair(&pInput->mType, 2, (UINT8)pType);
0002E2 50??           01376         MOVF    r0x00, W
0002E4 0F0C           01377         ADDLW   0x0c
gpasm-1.4.2 #1169 (Jan  2 2016) build/default   9-13-2016  14:11:57         PAGE 27


LOC    OBJECT CODE    LINE  SOURCE TEXT
  VALUE

0002E6 6E??           01378         MOVWF   r0x05
0002E8 0E00           01379         MOVLW   0x00
0002EA 20??           01380         ADDWFC  r0x01, W
0002EC 6E??           01381         MOVWF   r0x06
0002EE 0E00           01382         MOVLW   0x00
0002F0 20??           01383         ADDWFC  r0x02, W
0002F2 6E??           01384         MOVWF   r0x07
0002F4 50??           01385         MOVF    r0x03, W
0002F6 6EE5           01386         MOVWF   POSTDEC1
0002F8 0E02           01387         MOVLW   0x02
0002FA 6EE5           01388         MOVWF   POSTDEC1
0002FC 50??           01389         MOVF    r0x07, W
0002FE 6EE5           01390         MOVWF   POSTDEC1
000300 50??           01391         MOVF    r0x06, W
000302 6EE5           01392         MOVWF   POSTDEC1
000304 50??           01393         MOVF    r0x05, W
000306 6EE5           01394         MOVWF   POSTDEC1
000308 EC?? F0??      01395         CALL    _Word_SetPair
00030C 0E05           01396         MOVLW   0x05
00030E 26E1           01397         ADDWF   FSR1L, F
                      01398 ;       .line   525; Port.c     Word_SetPair(&pInput->mType, 3, (UINT8)pType);
000310 50??           01399         MOVF    r0x00, W
000312 0F0C           01400         ADDLW   0x0c
000314 6E??           01401         MOVWF   r0x05
000316 0E00           01402         MOVLW   0x00
000318 20??           01403         ADDWFC  r0x01, W
00031A 6E??           01404         MOVWF   r0x06
00031C 0E00           01405         MOVLW   0x00
00031E 20??           01406         ADDWFC  r0x02, W
000320 6E??           01407         MOVWF   r0x07
000322 50??           01408         MOVF    r0x03, W
000324 6EE5           01409         MOVWF   POSTDEC1
000326 0E03           01410         MOVLW   0x03
000328 6EE5           01411         MOVWF   POSTDEC1
00032A 50??           01412         MOVF    r0x07, W
00032C 6EE5           01413         MOVWF   POSTDEC1
00032E 50??           01414         MOVF    r0x06, W
000330 6EE5           01415         MOVWF   POSTDEC1
000332 50??           01416         MOVF    r0x05, W
000334 6EE5           01417         MOVWF   POSTDEC1
000336 EC?? F0??      01418         CALL    _Word_SetPair
00033A 0E05           01419         MOVLW   0x05
00033C 26E1           01420         ADDWF   FSR1L, F
                      01421 ;       .line   526; Port.c     Word_SetPair(&pInput->mType, 4, (UINT8)pType);
00033E 50??           01422         MOVF    r0x00, W
000340 0F0C           01423         ADDLW   0x0c
000342 6E??           01424         MOVWF   r0x05
000344 0E00           01425         MOVLW   0x00
000346 20??           01426         ADDWFC  r0x01, W
000348 6E??           01427         MOVWF   r0x06
00034A 0E00           01428         MOVLW   0x00
00034C 20??           01429         ADDWFC  r0x02, W
00034E 6E??           01430         MOVWF   r0x07
gpasm-1.4.2 #1169 (Jan  2 2016) build/default   9-13-2016  14:11:57         PAGE 28


LOC    OBJECT CODE    LINE  SOURCE TEXT
  VALUE

000350 50??           01431         MOVF    r0x03, W
000352 6EE5           01432         MOVWF   POSTDEC1
000354 0E04           01433         MOVLW   0x04
000356 6EE5           01434         MOVWF   POSTDEC1
000358 50??           01435         MOVF    r0x07, W
00035A 6EE5           01436         MOVWF   POSTDEC1
00035C 50??           01437         MOVF    r0x06, W
00035E 6EE5           01438         MOVWF   POSTDEC1
000360 50??           01439         MOVF    r0x05, W
000362 6EE5           01440         MOVWF   POSTDEC1
000364 EC?? F0??      01441         CALL    _Word_SetPair
000368 0E05           01442         MOVLW   0x05
00036A 26E1           01443         ADDWF   FSR1L, F
                      01444 ;       .line   527; Port.c     Word_SetPair(&pInput->mType, 5, (UINT8)pType);
00036C 50??           01445         MOVF    r0x00, W
00036E 0F0C           01446         ADDLW   0x0c
000370 6E??           01447         MOVWF   r0x05
000372 0E00           01448         MOVLW   0x00
000374 20??           01449         ADDWFC  r0x01, W
000376 6E??           01450         MOVWF   r0x06
000378 0E00           01451         MOVLW   0x00
00037A 20??           01452         ADDWFC  r0x02, W
00037C 6E??           01453         MOVWF   r0x07
00037E 50??           01454         MOVF    r0x03, W
000380 6EE5           01455         MOVWF   POSTDEC1
000382 0E05           01456         MOVLW   0x05
000384 6EE5           01457         MOVWF   POSTDEC1
000386 50??           01458         MOVF    r0x07, W
000388 6EE5           01459         MOVWF   POSTDEC1
00038A 50??           01460         MOVF    r0x06, W
00038C 6EE5           01461         MOVWF   POSTDEC1
00038E 50??           01462         MOVF    r0x05, W
000390 6EE5           01463         MOVWF   POSTDEC1
000392 EC?? F0??      01464         CALL    _Word_SetPair
000396 0E05           01465         MOVLW   0x05
000398 26E1           01466         ADDWF   FSR1L, F
                      01467 ;       .line   528; Port.c     Word_SetPair(&pInput->mType, 6, (UINT8)pType);
00039A 50??           01468         MOVF    r0x00, W
00039C 0F0C           01469         ADDLW   0x0c
00039E 6E??           01470         MOVWF   r0x05
0003A0 0E00           01471         MOVLW   0x00
0003A2 20??           01472         ADDWFC  r0x01, W
0003A4 6E??           01473         MOVWF   r0x06
0003A6 0E00           01474         MOVLW   0x00
0003A8 20??           01475         ADDWFC  r0x02, W
0003AA 6E??           01476         MOVWF   r0x07
0003AC 50??           01477         MOVF    r0x03, W
0003AE 6EE5           01478         MOVWF   POSTDEC1
0003B0 0E06           01479         MOVLW   0x06
0003B2 6EE5           01480         MOVWF   POSTDEC1
0003B4 50??           01481         MOVF    r0x07, W
0003B6 6EE5           01482         MOVWF   POSTDEC1
0003B8 50??           01483         MOVF    r0x06, W
gpasm-1.4.2 #1169 (Jan  2 2016) build/default   9-13-2016  14:11:57         PAGE 29


LOC    OBJECT CODE    LINE  SOURCE TEXT
  VALUE

0003BA 6EE5           01484         MOVWF   POSTDEC1
0003BC 50??           01485         MOVF    r0x05, W
0003BE 6EE5           01486         MOVWF   POSTDEC1
0003C0 EC?? F0??      01487         CALL    _Word_SetPair
0003C4 0E05           01488         MOVLW   0x05
0003C6 26E1           01489         ADDWF   FSR1L, F
                      01490 ;       .line   529; Port.c     Word_SetPair(&pInput->mType, 7, (UINT8)pType);
0003C8 0E0C           01491         MOVLW   0x0c
0003CA 26??           01492         ADDWF   r0x00, F
0003CC 0E00           01493         MOVLW   0x00
0003CE 22??           01494         ADDWFC  r0x01, F
0003D0 22??           01495         ADDWFC  r0x02, F
0003D2 50??           01496         MOVF    r0x03, W
0003D4 6EE5           01497         MOVWF   POSTDEC1
0003D6 0E07           01498         MOVLW   0x07
0003D8 6EE5           01499         MOVWF   POSTDEC1
0003DA 50??           01500         MOVF    r0x02, W
0003DC 6EE5           01501         MOVWF   POSTDEC1
0003DE 50??           01502         MOVF    r0x01, W
0003E0 6EE5           01503         MOVWF   POSTDEC1
0003E2 50??           01504         MOVF    r0x00, W
0003E4 6EE5           01505         MOVWF   POSTDEC1
0003E6 EC?? F0??      01506         CALL    _Word_SetPair
0003EA 0E05           01507         MOVLW   0x05
0003EC 26E1           01508         ADDWF   FSR1L, F
                      01509 ;       .line   530; Port.c     return Output;
0003EE 50??           01510         MOVF    r0x04, W
0003F0                01511 _00453_DS_:
0003F0 CFE4 F000      01512         MOVFF   PREINC1, r0x07
0003F4 CFE4 F000      01513         MOVFF   PREINC1, r0x06
0003F8 CFE4 F000      01514         MOVFF   PREINC1, r0x05
0003FC CFE4 F000      01515         MOVFF   PREINC1, r0x04
000400 CFE4 F000      01516         MOVFF   PREINC1, r0x03
000404 CFE4 F000      01517         MOVFF   PREINC1, r0x02
000408 CFE4 F000      01518         MOVFF   PREINC1, r0x01
00040C CFE4 F000      01519         MOVFF   PREINC1, r0x00
000410 CFE4 FFD9      01520         MOVFF   PREINC1, FSR2L
000414 0012           01521         RETURN  
                      01522 
                      01523 ; ; Starting pCode block
                      01524 S_Port__Port_GetQuad    code
000000                01525 _Port_GetQuad:
                      01526 ;       .line   467; Port.c     UINT8           Port_GetQuad    (PortPtr pInput, eQuad pQuad)
000000 CFD9 FFE5      01527         MOVFF   FSR2L, POSTDEC1
000004 CFE1 FFD9      01528         MOVFF   FSR1L, FSR2L
000008 C??? F???      01529         MOVFF   r0x00, POSTDEC1
00000C C??? F???      01530         MOVFF   r0x01, POSTDEC1
000010 C??? F???      01531         MOVFF   r0x02, POSTDEC1
000014 C??? F???      01532         MOVFF   r0x03, POSTDEC1
000018 0E02           01533         MOVLW   0x02
00001A CFDB F000      01534         MOVFF   PLUSW2, r0x00
00001E 0E03           01535         MOVLW   0x03
000020 CFDB F000      01536         MOVFF   PLUSW2, r0x01
gpasm-1.4.2 #1169 (Jan  2 2016) build/default   9-13-2016  14:11:57         PAGE 30


LOC    OBJECT CODE    LINE  SOURCE TEXT
  VALUE

000024 0E04           01537         MOVLW   0x04
000026 CFDB F000      01538         MOVFF   PLUSW2, r0x02
00002A 0E05           01539         MOVLW   0x05
00002C CFDB F000      01540         MOVFF   PLUSW2, r0x03
                      01541 ;       .line   469; Port.c     UINT8 Output = pInput->mInput->mBits;
000030 0E09           01542         MOVLW   0x09
000032 26??           01543         ADDWF   r0x00, F
000034 0E00           01544         MOVLW   0x00
000036 22??           01545         ADDWFC  r0x01, F
000038 22??           01546         ADDWFC  r0x02, F
00003A C??? F???      01547         MOVFF   r0x00, FSR0L
00003E C??? F???      01548         MOVFF   r0x01, PRODL
000042 50??           01549         MOVF    r0x02, W
000044 EC?? F0??      01550         CALL    __gptrget3
000048 6E??           01551         MOVWF   r0x00
00004A CFF3 F000      01552         MOVFF   PRODL, r0x01
00004E CFF4 F000      01553         MOVFF   PRODH, r0x02
000052 C??? F???      01554         MOVFF   r0x00, FSR0L
000056 C??? F???      01555         MOVFF   r0x01, PRODL
00005A 50??           01556         MOVF    r0x02, W
00005C EC?? F0??      01557         CALL    __gptrget1
000060 0BFF           01558         ANDLW   0xff
000062 6E??           01559         MOVWF   r0x00
                      01560 ; ;multiply lit val:0x04 by variable r0x03 and store in r0x03
                      01561 ;       .line   470; Port.c     Output >>= ((UINT8)pQuad * 4);
000064 50??           01562         MOVF    r0x03, W
000066 0D04           01563         MULLW   0x04
000068 50F4           01564         MOVF    PRODH, W
00006A 6E??           01565         MOVWF   r0x01
00006C CFF3 F000      01566         MOVFF   PRODL, r0x03
000070 50??           01567         MOVF    r0x03, W
000072 E0??           01568         BZ      _00427_DS_
000074 E6??           01569         BN      _00430_DS_
000076 6CE8           01570         NEGF    WREG
000078 90D8           01571         BCF     STATUS, 0
00007A                01572 _00428_DS_:
00007A 32??           01573         RRCF    r0x00, F
00007C 0F01           01574         ADDLW   0x01
00007E E3??           01575         BNC     _00428_DS_
000080 D???           01576         BRA     _00427_DS_
000082                01577 _00430_DS_:
000082 90D8           01578         BCF     STATUS, 0
000084                01579 _00429_DS_:
000084 36??           01580         RLCF    r0x00, F
000086 0F01           01581         ADDLW   0x01
000088 E3??           01582         BNC     _00429_DS_
00008A                01583 _00427_DS_:
                      01584 ;       .line   471; Port.c     Output &= 0b1111;
00008A 0E0F           01585         MOVLW   0x0f
00008C 16??           01586         ANDWF   r0x00, F
                      01587 ;       .line   472; Port.c     return Output;
00008E 50??           01588         MOVF    r0x00, W
000090 CFE4 F000      01589         MOVFF   PREINC1, r0x03
gpasm-1.4.2 #1169 (Jan  2 2016) build/default   9-13-2016  14:11:57         PAGE 31


LOC    OBJECT CODE    LINE  SOURCE TEXT
  VALUE

000094 CFE4 F000      01590         MOVFF   PREINC1, r0x02
000098 CFE4 F000      01591         MOVFF   PREINC1, r0x01
00009C CFE4 F000      01592         MOVFF   PREINC1, r0x00
0000A0 CFE4 FFD9      01593         MOVFF   PREINC1, FSR2L
0000A4 0012           01594         RETURN  
                      01595 
                      01596 ; ; Starting pCode block
                      01597 S_Port__Port_SetQuad    code
000000                01598 _Port_SetQuad:
                      01599 ;       .line   429; Port.c     void            Port_SetQuad    (PortPtr pInput, eQuad pQuad, UINT8 pVal
                            ue)
000000 CFD9 FFE5      01600         MOVFF   FSR2L, POSTDEC1
000004 CFE1 FFD9      01601         MOVFF   FSR1L, FSR2L
000008 C??? F???      01602         MOVFF   r0x00, POSTDEC1
00000C C??? F???      01603         MOVFF   r0x01, POSTDEC1
000010 C??? F???      01604         MOVFF   r0x02, POSTDEC1
000014 C??? F???      01605         MOVFF   r0x03, POSTDEC1
000018 C??? F???      01606         MOVFF   r0x04, POSTDEC1
00001C C??? F???      01607         MOVFF   r0x05, POSTDEC1
000020 C??? F???      01608         MOVFF   r0x06, POSTDEC1
000024 C??? F???      01609         MOVFF   r0x07, POSTDEC1
000028 C??? F???      01610         MOVFF   r0x08, POSTDEC1
00002C C??? F???      01611         MOVFF   r0x09, POSTDEC1
000030 C??? F???      01612         MOVFF   r0x0a, POSTDEC1
000034 C??? F???      01613         MOVFF   r0x0b, POSTDEC1
000038 C??? F???      01614         MOVFF   r0x0c, POSTDEC1
00003C 0E02           01615         MOVLW   0x02
00003E CFDB F000      01616         MOVFF   PLUSW2, r0x00
000042 0E03           01617         MOVLW   0x03
000044 CFDB F000      01618         MOVFF   PLUSW2, r0x01
000048 0E04           01619         MOVLW   0x04
00004A CFDB F000      01620         MOVFF   PLUSW2, r0x02
00004E 0E05           01621         MOVLW   0x05
000050 CFDB F000      01622         MOVFF   PLUSW2, r0x03
000054 0E06           01623         MOVLW   0x06
000056 CFDB F000      01624         MOVFF   PLUSW2, r0x04
                      01625 ;       .line   431; Port.c     ePinType        Type                    = (ePinType)Word_GetPair(&pInput
                            ->mType, ((UINT8)pQuad) * 4);
00005A 50??           01626         MOVF    r0x00, W
00005C 0F0C           01627         ADDLW   0x0c
00005E 6E??           01628         MOVWF   r0x05
000060 0E00           01629         MOVLW   0x00
000062 20??           01630         ADDWFC  r0x01, W
000064 6E??           01631         MOVWF   r0x06
000066 0E00           01632         MOVLW   0x00
000068 20??           01633         ADDWFC  r0x02, W
00006A 6E??           01634         MOVWF   r0x07
                      01635 ; ;multiply lit val:0x04 by variable r0x03 and store in r0x08
00006C 50??           01636         MOVF    r0x03, W
00006E 0D04           01637         MULLW   0x04
000070 CFF3 F000      01638         MOVFF   PRODL, r0x08
000074 50??           01639         MOVF    r0x08, W
000076 6EE5           01640         MOVWF   POSTDEC1
gpasm-1.4.2 #1169 (Jan  2 2016) build/default   9-13-2016  14:11:57         PAGE 32


LOC    OBJECT CODE    LINE  SOURCE TEXT
  VALUE

000078 50??           01641         MOVF    r0x07, W
00007A 6EE5           01642         MOVWF   POSTDEC1
00007C 50??           01643         MOVF    r0x06, W
00007E 6EE5           01644         MOVWF   POSTDEC1
000080 50??           01645         MOVF    r0x05, W
000082 6EE5           01646         MOVWF   POSTDEC1
000084 EC?? F0??      01647         CALL    _Word_GetPair
000088 6E??           01648         MOVWF   r0x05
00008A 0E04           01649         MOVLW   0x04
00008C 26E1           01650         ADDWF   FSR1L, F
                      01651 ;       .line   432; Port.c     UINT8           TypeRequired    = Type | (Type << 2) | (Type << 4) | (Ty
                            pe << 6);
00008E 44??           01652         RLNCF   r0x05, W
000090 44E8           01653         RLNCF   WREG, W
000092 0BFC           01654         ANDLW   0xfc
000094 6E??           01655         MOVWF   r0x06
000096 50??           01656         MOVF    r0x05, W
000098 12??           01657         IORWF   r0x06, F
00009A 38??           01658         SWAPF   r0x05, W
00009C 0BF0           01659         ANDLW   0xf0
00009E 6E??           01660         MOVWF   r0x07
0000A0 50??           01661         MOVF    r0x07, W
0000A2 12??           01662         IORWF   r0x06, F
0000A4 40??           01663         RRNCF   r0x05, W
0000A6 40E8           01664         RRNCF   WREG, W
0000A8 0BC0           01665         ANDLW   0xc0
0000AA 6E??           01666         MOVWF   r0x07
0000AC 50??           01667         MOVF    r0x07, W
0000AE 12??           01668         IORWF   r0x06, F
                      01669 ;       .line   435; Port.c     TypeActual |=   (ePinType)Word_GetPair(&pInput->mType, (UINT8)pQuad * 4 
                            + 1) << 2;
0000B0 50??           01670         MOVF    r0x00, W
0000B2 0F0C           01671         ADDLW   0x0c
0000B4 6E??           01672         MOVWF   r0x07
0000B6 0E00           01673         MOVLW   0x00
0000B8 20??           01674         ADDWFC  r0x01, W
0000BA 6E??           01675         MOVWF   r0x09
0000BC 0E00           01676         MOVLW   0x00
0000BE 20??           01677         ADDWFC  r0x02, W
0000C0 6E??           01678         MOVWF   r0x0a
0000C2 28??           01679         INCF    r0x08, W
0000C4 6E??           01680         MOVWF   r0x0b
0000C6 50??           01681         MOVF    r0x0b, W
0000C8 6EE5           01682         MOVWF   POSTDEC1
0000CA 50??           01683         MOVF    r0x0a, W
0000CC 6EE5           01684         MOVWF   POSTDEC1
0000CE 50??           01685         MOVF    r0x09, W
0000D0 6EE5           01686         MOVWF   POSTDEC1
0000D2 50??           01687         MOVF    r0x07, W
0000D4 6EE5           01688         MOVWF   POSTDEC1
0000D6 EC?? F0??      01689         CALL    _Word_GetPair
0000DA 6E??           01690         MOVWF   r0x07
0000DC 0E04           01691         MOVLW   0x04
gpasm-1.4.2 #1169 (Jan  2 2016) build/default   9-13-2016  14:11:57         PAGE 33


LOC    OBJECT CODE    LINE  SOURCE TEXT
  VALUE

0000DE 26E1           01692         ADDWF   FSR1L, F
0000E0 44??           01693         RLNCF   r0x07, W
0000E2 44E8           01694         RLNCF   WREG, W
0000E4 0BFC           01695         ANDLW   0xfc
0000E6 6E??           01696         MOVWF   r0x09
0000E8 50??           01697         MOVF    r0x09, W
0000EA 10??           01698         IORWF   r0x05, W
0000EC 6E??           01699         MOVWF   r0x07
                      01700 ;       .line   436; Port.c     TypeActual |=   (ePinType)Word_GetPair(&pInput->mType, (UINT8)pQuad * 4 
                            + 2) << 4;
0000EE 50??           01701         MOVF    r0x00, W
0000F0 0F0C           01702         ADDLW   0x0c
0000F2 6E??           01703         MOVWF   r0x09
0000F4 0E00           01704         MOVLW   0x00
0000F6 20??           01705         ADDWFC  r0x01, W
0000F8 6E??           01706         MOVWF   r0x0a
0000FA 0E00           01707         MOVLW   0x00
0000FC 20??           01708         ADDWFC  r0x02, W
0000FE 6E??           01709         MOVWF   r0x0b
000100 0E02           01710         MOVLW   0x02
000102 24??           01711         ADDWF   r0x08, W
000104 6E??           01712         MOVWF   r0x0c
000106 50??           01713         MOVF    r0x0c, W
000108 6EE5           01714         MOVWF   POSTDEC1
00010A 50??           01715         MOVF    r0x0b, W
00010C 6EE5           01716         MOVWF   POSTDEC1
00010E 50??           01717         MOVF    r0x0a, W
000110 6EE5           01718         MOVWF   POSTDEC1
000112 50??           01719         MOVF    r0x09, W
000114 6EE5           01720         MOVWF   POSTDEC1
000116 EC?? F0??      01721         CALL    _Word_GetPair
00011A 6E??           01722         MOVWF   r0x09
00011C 0E04           01723         MOVLW   0x04
00011E 26E1           01724         ADDWF   FSR1L, F
000120 38??           01725         SWAPF   r0x09, W
000122 0BF0           01726         ANDLW   0xf0
000124 6E??           01727         MOVWF   r0x0a
000126 50??           01728         MOVF    r0x0a, W
000128 12??           01729         IORWF   r0x07, F
                      01730 ;       .line   437; Port.c     TypeActual |=   (ePinType)Word_GetPair(&pInput->mType, (UINT8)pQuad * 4 
                            + 3) << 6;
00012A 50??           01731         MOVF    r0x00, W
00012C 0F0C           01732         ADDLW   0x0c
00012E 6E??           01733         MOVWF   r0x09
000130 0E00           01734         MOVLW   0x00
000132 20??           01735         ADDWFC  r0x01, W
000134 6E??           01736         MOVWF   r0x0a
000136 0E00           01737         MOVLW   0x00
000138 20??           01738         ADDWFC  r0x02, W
00013A 6E??           01739         MOVWF   r0x0b
00013C 0E03           01740         MOVLW   0x03
00013E 26??           01741         ADDWF   r0x08, F
000140 50??           01742         MOVF    r0x08, W
gpasm-1.4.2 #1169 (Jan  2 2016) build/default   9-13-2016  14:11:57         PAGE 34


LOC    OBJECT CODE    LINE  SOURCE TEXT
  VALUE

000142 6EE5           01743         MOVWF   POSTDEC1
000144 50??           01744         MOVF    r0x0b, W
000146 6EE5           01745         MOVWF   POSTDEC1
000148 50??           01746         MOVF    r0x0a, W
00014A 6EE5           01747         MOVWF   POSTDEC1
00014C 50??           01748         MOVF    r0x09, W
00014E 6EE5           01749         MOVWF   POSTDEC1
000150 EC?? F0??      01750         CALL    _Word_GetPair
000154 6E??           01751         MOVWF   r0x08
000156 0E04           01752         MOVLW   0x04
000158 26E1           01753         ADDWF   FSR1L, F
00015A 40??           01754         RRNCF   r0x08, W
00015C 40E8           01755         RRNCF   WREG, W
00015E 0BC0           01756         ANDLW   0xc0
000160 6E??           01757         MOVWF   r0x09
000162 50??           01758         MOVF    r0x09, W
000164 12??           01759         IORWF   r0x07, F
                      01760 ;       .line   440; Port.c     if (TypeRequired == TypeActual)
000166 50??           01761         MOVF    r0x06, W
000168 18??           01762         XORWF   r0x07, W
00016A E0??           01763         BZ      _00418_DS_
00016C D???           01764         BRA     _00403_DS_
00016E                01765 _00418_DS_:
                      01766 ;       .line   442; Port.c     switch (Type)
00016E 0E04           01767         MOVLW   0x04
000170 5C??           01768         SUBWF   r0x05, W
000172 B0D8           01769         BTFSC   STATUS, 0
000174 D???           01770         BRA     _00403_DS_
000176 6AFA           01771         CLRF    PCLATH
000178 6AFB           01772         CLRF    PCLATU
00017A 34??           01773         RLCF    r0x05, W
00017C 36FA           01774         RLCF    PCLATH, F
00017E 34E8           01775         RLCF    WREG, W
000180 36FA           01776         RLCF    PCLATH, F
000182 0BFC           01777         ANDLW   0xfc
000184 0F??           01778         ADDLW   LOW(_00420_DS_)
000186 6EE5           01779         MOVWF   POSTDEC1
000188 0E??           01780         MOVLW   HIGH(_00420_DS_)
00018A 22FA           01781         ADDWFC  PCLATH, F
00018C 0E??           01782         MOVLW   UPPER(_00420_DS_)
00018E 22FB           01783         ADDWFC  PCLATU, F
000190 50E4           01784         MOVF    PREINC1, W
000192 6EF9           01785         MOVWF   PCL
000194                01786 _00420_DS_:
000194 EF?? F0??      01787         GOTO    _00395_DS_
000198 EF?? F0??      01788         GOTO    _00396_DS_
00019C EF?? F0??      01789         GOTO    _00397_DS_
0001A0 EF?? F0??      01790         GOTO    _00398_DS_
0001A4                01791 _00395_DS_:
                      01792 ;       .line   445; Port.c     return;
0001A4 D???           01793         BRA     _00403_DS_
0001A6                01794 _00396_DS_:
                      01795 ;       .line   448; Port.c     pValue &= 0xF;
gpasm-1.4.2 #1169 (Jan  2 2016) build/default   9-13-2016  14:11:57         PAGE 35


LOC    OBJECT CODE    LINE  SOURCE TEXT
  VALUE

0001A6 0E0F           01796         MOVLW   0x0f
0001A8 16??           01797         ANDWF   r0x04, F
                      01798 ;       .line   449; Port.c     Byte_SetQuad(pInput->mDirection, pQuad, pValue);
0001AA 50??           01799         MOVF    r0x00, W
0001AC 0F03           01800         ADDLW   0x03
0001AE 6E??           01801         MOVWF   r0x05
0001B0 0E00           01802         MOVLW   0x00
0001B2 20??           01803         ADDWFC  r0x01, W
0001B4 6E??           01804         MOVWF   r0x06
0001B6 0E00           01805         MOVLW   0x00
0001B8 20??           01806         ADDWFC  r0x02, W
0001BA 6E??           01807         MOVWF   r0x07
0001BC C??? F???      01808         MOVFF   r0x05, FSR0L
0001C0 C??? F???      01809         MOVFF   r0x06, PRODL
0001C4 50??           01810         MOVF    r0x07, W
0001C6 EC?? F0??      01811         CALL    __gptrget3
0001CA 6E??           01812         MOVWF   r0x05
0001CC CFF3 F000      01813         MOVFF   PRODL, r0x06
0001D0 CFF4 F000      01814         MOVFF   PRODH, r0x07
0001D4 50??           01815         MOVF    r0x04, W
0001D6 6EE5           01816         MOVWF   POSTDEC1
0001D8 50??           01817         MOVF    r0x03, W
0001DA 6EE5           01818         MOVWF   POSTDEC1
0001DC 50??           01819         MOVF    r0x07, W
0001DE 6EE5           01820         MOVWF   POSTDEC1
0001E0 50??           01821         MOVF    r0x06, W
0001E2 6EE5           01822         MOVWF   POSTDEC1
0001E4 50??           01823         MOVF    r0x05, W
0001E6 6EE5           01824         MOVWF   POSTDEC1
0001E8 EC?? F0??      01825         CALL    _Byte_SetQuad
0001EC 0E05           01826         MOVLW   0x05
0001EE 26E1           01827         ADDWF   FSR1L, F
                      01828 ;       .line   450; Port.c     break;
0001F0 D???           01829         BRA     _00403_DS_
0001F2                01830 _00397_DS_:
                      01831 ;       .line   453; Port.c     pValue &= 0xF;
0001F2 0E0F           01832         MOVLW   0x0f
0001F4 16??           01833         ANDWF   r0x04, F
                      01834 ;       .line   454; Port.c     pValue = ~pValue;
0001F6 1E??           01835         COMF    r0x04, F
                      01836 ;       .line   455; Port.c     Byte_SetQuad(pInput->mDirection, pQuad, pValue);
0001F8 50??           01837         MOVF    r0x00, W
0001FA 0F03           01838         ADDLW   0x03
0001FC 6E??           01839         MOVWF   r0x05
0001FE 0E00           01840         MOVLW   0x00
000200 20??           01841         ADDWFC  r0x01, W
000202 6E??           01842         MOVWF   r0x06
000204 0E00           01843         MOVLW   0x00
000206 20??           01844         ADDWFC  r0x02, W
000208 6E??           01845         MOVWF   r0x07
00020A C??? F???      01846         MOVFF   r0x05, FSR0L
00020E C??? F???      01847         MOVFF   r0x06, PRODL
000212 50??           01848         MOVF    r0x07, W
gpasm-1.4.2 #1169 (Jan  2 2016) build/default   9-13-2016  14:11:57         PAGE 36


LOC    OBJECT CODE    LINE  SOURCE TEXT
  VALUE

000214 EC?? F0??      01849         CALL    __gptrget3
000218 6E??           01850         MOVWF   r0x05
00021A CFF3 F000      01851         MOVFF   PRODL, r0x06
00021E CFF4 F000      01852         MOVFF   PRODH, r0x07
000222 50??           01853         MOVF    r0x04, W
000224 6EE5           01854         MOVWF   POSTDEC1
000226 50??           01855         MOVF    r0x03, W
000228 6EE5           01856         MOVWF   POSTDEC1
00022A 50??           01857         MOVF    r0x07, W
00022C 6EE5           01858         MOVWF   POSTDEC1
00022E 50??           01859         MOVF    r0x06, W
000230 6EE5           01860         MOVWF   POSTDEC1
000232 50??           01861         MOVF    r0x05, W
000234 6EE5           01862         MOVWF   POSTDEC1
000236 EC?? F0??      01863         CALL    _Byte_SetQuad
00023A 0E05           01864         MOVLW   0x05
00023C 26E1           01865         ADDWF   FSR1L, F
                      01866 ;       .line   456; Port.c     break;
00023E D???           01867         BRA     _00403_DS_
000240                01868 _00398_DS_:
                      01869 ;       .line   459; Port.c     pValue &= 0xF;
000240 0E0F           01870         MOVLW   0x0f
000242 16??           01871         ANDWF   r0x04, F
                      01872 ;       .line   460; Port.c     Byte_SetQuad(pInput->mOutput, pQuad, pValue);
000244 0E06           01873         MOVLW   0x06
000246 26??           01874         ADDWF   r0x00, F
000248 0E00           01875         MOVLW   0x00
00024A 22??           01876         ADDWFC  r0x01, F
00024C 22??           01877         ADDWFC  r0x02, F
00024E C??? F???      01878         MOVFF   r0x00, FSR0L
000252 C??? F???      01879         MOVFF   r0x01, PRODL
000256 50??           01880         MOVF    r0x02, W
000258 EC?? F0??      01881         CALL    __gptrget3
00025C 6E??           01882         MOVWF   r0x00
00025E CFF3 F000      01883         MOVFF   PRODL, r0x01
000262 CFF4 F000      01884         MOVFF   PRODH, r0x02
000266 50??           01885         MOVF    r0x04, W
000268 6EE5           01886         MOVWF   POSTDEC1
00026A 50??           01887         MOVF    r0x03, W
00026C 6EE5           01888         MOVWF   POSTDEC1
00026E 50??           01889         MOVF    r0x02, W
000270 6EE5           01890         MOVWF   POSTDEC1
000272 50??           01891         MOVF    r0x01, W
000274 6EE5           01892         MOVWF   POSTDEC1
000276 50??           01893         MOVF    r0x00, W
000278 6EE5           01894         MOVWF   POSTDEC1
00027A EC?? F0??      01895         CALL    _Byte_SetQuad
00027E 0E05           01896         MOVLW   0x05
000280 26E1           01897         ADDWF   FSR1L, F
000282                01898 _00403_DS_:
                      01899 ;       .line   464; Port.c     };
000282 CFE4 F000      01900         MOVFF   PREINC1, r0x0c
000286 CFE4 F000      01901         MOVFF   PREINC1, r0x0b
gpasm-1.4.2 #1169 (Jan  2 2016) build/default   9-13-2016  14:11:57         PAGE 37


LOC    OBJECT CODE    LINE  SOURCE TEXT
  VALUE

00028A CFE4 F000      01902         MOVFF   PREINC1, r0x0a
00028E CFE4 F000      01903         MOVFF   PREINC1, r0x09
000292 CFE4 F000      01904         MOVFF   PREINC1, r0x08
000296 CFE4 F000      01905         MOVFF   PREINC1, r0x07
00029A CFE4 F000      01906         MOVFF   PREINC1, r0x06
00029E CFE4 F000      01907         MOVFF   PREINC1, r0x05
0002A2 CFE4 F000      01908         MOVFF   PREINC1, r0x04
0002A6 CFE4 F000      01909         MOVFF   PREINC1, r0x03
0002AA CFE4 F000      01910         MOVFF   PREINC1, r0x02
0002AE CFE4 F000      01911         MOVFF   PREINC1, r0x01
0002B2 CFE4 F000      01912         MOVFF   PREINC1, r0x00
0002B6 CFE4 FFD9      01913         MOVFF   PREINC1, FSR2L
0002BA 0012           01914         RETURN  
                      01915 
                      01916 ; ; Starting pCode block
                      01917 S_Port__Port_SetQuadType        code
000000                01918 _Port_SetQuadType:
                      01919 ;       .line   368; Port.c     ePinError       Port_SetQuadType(PortPtr pInput, eQuad pQuad, ePinType p
                            Type)
000000 CFD9 FFE5      01920         MOVFF   FSR2L, POSTDEC1
000004 CFE1 FFD9      01921         MOVFF   FSR1L, FSR2L
000008 C??? F???      01922         MOVFF   r0x00, POSTDEC1
00000C C??? F???      01923         MOVFF   r0x01, POSTDEC1
000010 C??? F???      01924         MOVFF   r0x02, POSTDEC1
000014 C??? F???      01925         MOVFF   r0x03, POSTDEC1
000018 C??? F???      01926         MOVFF   r0x04, POSTDEC1
00001C C??? F???      01927         MOVFF   r0x05, POSTDEC1
000020 C??? F???      01928         MOVFF   r0x06, POSTDEC1
000024 C??? F???      01929         MOVFF   r0x07, POSTDEC1
000028 C??? F???      01930         MOVFF   r0x08, POSTDEC1
00002C C??? F???      01931         MOVFF   r0x09, POSTDEC1
000030 0E02           01932         MOVLW   0x02
000032 CFDB F000      01933         MOVFF   PLUSW2, r0x00
000036 0E03           01934         MOVLW   0x03
000038 CFDB F000      01935         MOVFF   PLUSW2, r0x01
00003C 0E04           01936         MOVLW   0x04
00003E CFDB F000      01937         MOVFF   PLUSW2, r0x02
000042 0E05           01938         MOVLW   0x05
000044 CFDB F000      01939         MOVFF   PLUSW2, r0x03
000048 0E06           01940         MOVLW   0x06
00004A CFDB F000      01941         MOVFF   PLUSW2, r0x04
                      01942 ;       .line   370; Port.c     ePinError Output = ePinErrorState;
00004E 0E05           01943         MOVLW   0x05
000050 6E??           01944         MOVWF   r0x05
                      01945 ;       .line   372; Port.c     switch (pType)
000052 0E04           01946         MOVLW   0x04
000054 5C??           01947         SUBWF   r0x04, W
000056 B0D8           01948         BTFSC   STATUS, 0
000058 D???           01949         BRA     _00371_DS_
00005A 6AFA           01950         CLRF    PCLATH
00005C 6AFB           01951         CLRF    PCLATU
00005E 34??           01952         RLCF    r0x04, W
000060 36FA           01953         RLCF    PCLATH, F
gpasm-1.4.2 #1169 (Jan  2 2016) build/default   9-13-2016  14:11:57         PAGE 38


LOC    OBJECT CODE    LINE  SOURCE TEXT
  VALUE

000062 34E8           01954         RLCF    WREG, W
000064 36FA           01955         RLCF    PCLATH, F
000066 0BFC           01956         ANDLW   0xfc
000068 0F??           01957         ADDLW   LOW(_00390_DS_)
00006A 6EE5           01958         MOVWF   POSTDEC1
00006C 0E??           01959         MOVLW   HIGH(_00390_DS_)
00006E 22FA           01960         ADDWFC  PCLATH, F
000070 0E??           01961         MOVLW   UPPER(_00390_DS_)
000072 22FB           01962         ADDWFC  PCLATU, F
000074 50E4           01963         MOVF    PREINC1, W
000076 6EF9           01964         MOVWF   PCL
000078                01965 _00390_DS_:
000078 EF?? F0??      01966         GOTO    _00354_DS_
00007C EF?? F0??      01967         GOTO    _00358_DS_
000080 EF?? F0??      01968         GOTO    _00362_DS_
000084 EF?? F0??      01969         GOTO    _00366_DS_
000088                01970 _00354_DS_:
                      01971 ;       .line   375; Port.c     if ((Output = Port_CheckQuadType(pInput, pQuad, eNone)) == ePinErrorNone
                            )
000088 0E03           01972         MOVLW   0x03
00008A 6EE5           01973         MOVWF   POSTDEC1
00008C 50??           01974         MOVF    r0x03, W
00008E 6EE5           01975         MOVWF   POSTDEC1
000090 50??           01976         MOVF    r0x02, W
000092 6EE5           01977         MOVWF   POSTDEC1
000094 50??           01978         MOVF    r0x01, W
000096 6EE5           01979         MOVWF   POSTDEC1
000098 50??           01980         MOVF    r0x00, W
00009A 6EE5           01981         MOVWF   POSTDEC1
00009C EC?? F0??      01982         CALL    _Port_CheckQuadType
0000A0 6E??           01983         MOVWF   r0x06
0000A2 0E05           01984         MOVLW   0x05
0000A4 26E1           01985         ADDWF   FSR1L, F
0000A6 C??? F???      01986         MOVFF   r0x06, r0x05
0000AA 50??           01987         MOVF    r0x06, W
0000AC A4D8           01988         BTFSS   STATUS, 2
0000AE D???           01989         BRA     _00356_DS_
                      01990 ;       .line   378; Port.c     Byte_SetQuad(pInput->mDirection, (UINT8)pQuad, 0b1111);
0000B0 50??           01991         MOVF    r0x00, W
0000B2 0F03           01992         ADDLW   0x03
0000B4 6E??           01993         MOVWF   r0x06
0000B6 0E00           01994         MOVLW   0x00
0000B8 20??           01995         ADDWFC  r0x01, W
0000BA 6E??           01996         MOVWF   r0x07
0000BC 0E00           01997         MOVLW   0x00
0000BE 20??           01998         ADDWFC  r0x02, W
0000C0 6E??           01999         MOVWF   r0x08
0000C2 C??? F???      02000         MOVFF   r0x06, FSR0L
0000C6 C??? F???      02001         MOVFF   r0x07, PRODL
0000CA 50??           02002         MOVF    r0x08, W
0000CC EC?? F0??      02003         CALL    __gptrget3
0000D0 6E??           02004         MOVWF   r0x06
0000D2 CFF3 F000      02005         MOVFF   PRODL, r0x07
gpasm-1.4.2 #1169 (Jan  2 2016) build/default   9-13-2016  14:11:57         PAGE 39


LOC    OBJECT CODE    LINE  SOURCE TEXT
  VALUE

0000D6 CFF4 F000      02006         MOVFF   PRODH, r0x08
0000DA 0E0F           02007         MOVLW   0x0f
0000DC 6EE5           02008         MOVWF   POSTDEC1
0000DE 50??           02009         MOVF    r0x03, W
0000E0 6EE5           02010         MOVWF   POSTDEC1
0000E2 50??           02011         MOVF    r0x08, W
0000E4 6EE5           02012         MOVWF   POSTDEC1
0000E6 50??           02013         MOVF    r0x07, W
0000E8 6EE5           02014         MOVWF   POSTDEC1
0000EA 50??           02015         MOVF    r0x06, W
0000EC 6EE5           02016         MOVWF   POSTDEC1
0000EE EC?? F0??      02017         CALL    _Byte_SetQuad
0000F2 0E05           02018         MOVLW   0x05
0000F4 26E1           02019         ADDWF   FSR1L, F
                      02020 ;       .line   381; Port.c     Byte_SetQuad(pInput->mOutput, (UINT8)pQuad, 0b0000);
0000F6 50??           02021         MOVF    r0x00, W
0000F8 0F06           02022         ADDLW   0x06
0000FA 6E??           02023         MOVWF   r0x06
0000FC 0E00           02024         MOVLW   0x00
0000FE 20??           02025         ADDWFC  r0x01, W
000100 6E??           02026         MOVWF   r0x07
000102 0E00           02027         MOVLW   0x00
000104 20??           02028         ADDWFC  r0x02, W
000106 6E??           02029         MOVWF   r0x08
000108 C??? F???      02030         MOVFF   r0x06, FSR0L
00010C C??? F???      02031         MOVFF   r0x07, PRODL
000110 50??           02032         MOVF    r0x08, W
000112 EC?? F0??      02033         CALL    __gptrget3
000116 6E??           02034         MOVWF   r0x06
000118 CFF3 F000      02035         MOVFF   PRODL, r0x07
00011C CFF4 F000      02036         MOVFF   PRODH, r0x08
000120 0E00           02037         MOVLW   0x00
000122 6EE5           02038         MOVWF   POSTDEC1
000124 50??           02039         MOVF    r0x03, W
000126 6EE5           02040         MOVWF   POSTDEC1
000128 50??           02041         MOVF    r0x08, W
00012A 6EE5           02042         MOVWF   POSTDEC1
00012C 50??           02043         MOVF    r0x07, W
00012E 6EE5           02044         MOVWF   POSTDEC1
000130 50??           02045         MOVF    r0x06, W
000132 6EE5           02046         MOVWF   POSTDEC1
000134 EC?? F0??      02047         CALL    _Byte_SetQuad
000138 0E05           02048         MOVLW   0x05
00013A 26E1           02049         ADDWF   FSR1L, F
00013C D???           02050         BRA     _00371_DS_
00013E                02051 _00356_DS_:
                      02052 ;       .line   383; Port.c     else return Output;
00013E 50??           02053         MOVF    r0x05, W
000140 D???           02054         BRA     _00372_DS_
000142                02055 _00358_DS_:
                      02056 ;       .line   386; Port.c     if ((Output = Port_CheckQuadType(pInput, pQuad, eNone)) == ePinErrorNone
                            )
000142 0E03           02057         MOVLW   0x03
gpasm-1.4.2 #1169 (Jan  2 2016) build/default   9-13-2016  14:11:57         PAGE 40


LOC    OBJECT CODE    LINE  SOURCE TEXT
  VALUE

000144 6EE5           02058         MOVWF   POSTDEC1
000146 50??           02059         MOVF    r0x03, W
000148 6EE5           02060         MOVWF   POSTDEC1
00014A 50??           02061         MOVF    r0x02, W
00014C 6EE5           02062         MOVWF   POSTDEC1
00014E 50??           02063         MOVF    r0x01, W
000150 6EE5           02064         MOVWF   POSTDEC1
000152 50??           02065         MOVF    r0x00, W
000154 6EE5           02066         MOVWF   POSTDEC1
000156 EC?? F0??      02067         CALL    _Port_CheckQuadType
00015A 6E??           02068         MOVWF   r0x06
00015C 0E05           02069         MOVLW   0x05
00015E 26E1           02070         ADDWF   FSR1L, F
000160 C??? F???      02071         MOVFF   r0x06, r0x05
000164 50??           02072         MOVF    r0x06, W
000166 A4D8           02073         BTFSS   STATUS, 2
000168 D???           02074         BRA     _00360_DS_
                      02075 ;       .line   389; Port.c     Byte_SetQuad(pInput->mDirection, (UINT8)pQuad, 0b0000);
00016A 50??           02076         MOVF    r0x00, W
00016C 0F03           02077         ADDLW   0x03
00016E 6E??           02078         MOVWF   r0x06
000170 0E00           02079         MOVLW   0x00
000172 20??           02080         ADDWFC  r0x01, W
000174 6E??           02081         MOVWF   r0x07
000176 0E00           02082         MOVLW   0x00
000178 20??           02083         ADDWFC  r0x02, W
00017A 6E??           02084         MOVWF   r0x08
00017C C??? F???      02085         MOVFF   r0x06, FSR0L
000180 C??? F???      02086         MOVFF   r0x07, PRODL
000184 50??           02087         MOVF    r0x08, W
000186 EC?? F0??      02088         CALL    __gptrget3
00018A 6E??           02089         MOVWF   r0x06
00018C CFF3 F000      02090         MOVFF   PRODL, r0x07
000190 CFF4 F000      02091         MOVFF   PRODH, r0x08
000194 0E00           02092         MOVLW   0x00
000196 6EE5           02093         MOVWF   POSTDEC1
000198 50??           02094         MOVF    r0x03, W
00019A 6EE5           02095         MOVWF   POSTDEC1
00019C 50??           02096         MOVF    r0x08, W
00019E 6EE5           02097         MOVWF   POSTDEC1
0001A0 50??           02098         MOVF    r0x07, W
0001A2 6EE5           02099         MOVWF   POSTDEC1
0001A4 50??           02100         MOVF    r0x06, W
0001A6 6EE5           02101         MOVWF   POSTDEC1
0001A8 EC?? F0??      02102         CALL    _Byte_SetQuad
0001AC 0E05           02103         MOVLW   0x05
0001AE 26E1           02104         ADDWF   FSR1L, F
                      02105 ;       .line   392; Port.c     Byte_SetQuad(pInput->mOutput, (UINT8)pQuad, 0b0000);
0001B0 50??           02106         MOVF    r0x00, W
0001B2 0F06           02107         ADDLW   0x06
0001B4 6E??           02108         MOVWF   r0x06
0001B6 0E00           02109         MOVLW   0x00
0001B8 20??           02110         ADDWFC  r0x01, W
gpasm-1.4.2 #1169 (Jan  2 2016) build/default   9-13-2016  14:11:57         PAGE 41


LOC    OBJECT CODE    LINE  SOURCE TEXT
  VALUE

0001BA 6E??           02111         MOVWF   r0x07
0001BC 0E00           02112         MOVLW   0x00
0001BE 20??           02113         ADDWFC  r0x02, W
0001C0 6E??           02114         MOVWF   r0x08
0001C2 C??? F???      02115         MOVFF   r0x06, FSR0L
0001C6 C??? F???      02116         MOVFF   r0x07, PRODL
0001CA 50??           02117         MOVF    r0x08, W
0001CC EC?? F0??      02118         CALL    __gptrget3
0001D0 6E??           02119         MOVWF   r0x06
0001D2 CFF3 F000      02120         MOVFF   PRODL, r0x07
0001D6 CFF4 F000      02121         MOVFF   PRODH, r0x08
0001DA 0E00           02122         MOVLW   0x00
0001DC 6EE5           02123         MOVWF   POSTDEC1
0001DE 50??           02124         MOVF    r0x03, W
0001E0 6EE5           02125         MOVWF   POSTDEC1
0001E2 50??           02126         MOVF    r0x08, W
0001E4 6EE5           02127         MOVWF   POSTDEC1
0001E6 50??           02128         MOVF    r0x07, W
0001E8 6EE5           02129         MOVWF   POSTDEC1
0001EA 50??           02130         MOVF    r0x06, W
0001EC 6EE5           02131         MOVWF   POSTDEC1
0001EE EC?? F0??      02132         CALL    _Byte_SetQuad
0001F2 0E05           02133         MOVLW   0x05
0001F4 26E1           02134         ADDWF   FSR1L, F
0001F6 D???           02135         BRA     _00371_DS_
0001F8                02136 _00360_DS_:
                      02137 ;       .line   394; Port.c     else return Output;
0001F8 50??           02138         MOVF    r0x05, W
0001FA D???           02139         BRA     _00372_DS_
0001FC                02140 _00362_DS_:
                      02141 ;       .line   397; Port.c     if ((Output = Port_CheckQuadType(pInput, pQuad, eNone)) == ePinErrorNone
                            )
0001FC 0E03           02142         MOVLW   0x03
0001FE 6EE5           02143         MOVWF   POSTDEC1
000200 50??           02144         MOVF    r0x03, W
000202 6EE5           02145         MOVWF   POSTDEC1
000204 50??           02146         MOVF    r0x02, W
000206 6EE5           02147         MOVWF   POSTDEC1
000208 50??           02148         MOVF    r0x01, W
00020A 6EE5           02149         MOVWF   POSTDEC1
00020C 50??           02150         MOVF    r0x00, W
00020E 6EE5           02151         MOVWF   POSTDEC1
000210 EC?? F0??      02152         CALL    _Port_CheckQuadType
000214 6E??           02153         MOVWF   r0x06
000216 0E05           02154         MOVLW   0x05
000218 26E1           02155         ADDWF   FSR1L, F
00021A C??? F???      02156         MOVFF   r0x06, r0x05
00021E 50??           02157         MOVF    r0x06, W
000220 A4D8           02158         BTFSS   STATUS, 2
000222 D???           02159         BRA     _00364_DS_
                      02160 ;       .line   400; Port.c     Byte_SetQuad(pInput->mDirection, (UINT8)pQuad, 0b1111);
000224 50??           02161         MOVF    r0x00, W
000226 0F03           02162         ADDLW   0x03
gpasm-1.4.2 #1169 (Jan  2 2016) build/default   9-13-2016  14:11:57         PAGE 42


LOC    OBJECT CODE    LINE  SOURCE TEXT
  VALUE

000228 6E??           02163         MOVWF   r0x06
00022A 0E00           02164         MOVLW   0x00
00022C 20??           02165         ADDWFC  r0x01, W
00022E 6E??           02166         MOVWF   r0x07
000230 0E00           02167         MOVLW   0x00
000232 20??           02168         ADDWFC  r0x02, W
000234 6E??           02169         MOVWF   r0x08
000236 C??? F???      02170         MOVFF   r0x06, FSR0L
00023A C??? F???      02171         MOVFF   r0x07, PRODL
00023E 50??           02172         MOVF    r0x08, W
000240 EC?? F0??      02173         CALL    __gptrget3
000244 6E??           02174         MOVWF   r0x06
000246 CFF3 F000      02175         MOVFF   PRODL, r0x07
00024A CFF4 F000      02176         MOVFF   PRODH, r0x08
00024E 0E0F           02177         MOVLW   0x0f
000250 6EE5           02178         MOVWF   POSTDEC1
000252 50??           02179         MOVF    r0x03, W
000254 6EE5           02180         MOVWF   POSTDEC1
000256 50??           02181         MOVF    r0x08, W
000258 6EE5           02182         MOVWF   POSTDEC1
00025A 50??           02183         MOVF    r0x07, W
00025C 6EE5           02184         MOVWF   POSTDEC1
00025E 50??           02185         MOVF    r0x06, W
000260 6EE5           02186         MOVWF   POSTDEC1
000262 EC?? F0??      02187         CALL    _Byte_SetQuad
000266 0E05           02188         MOVLW   0x05
000268 26E1           02189         ADDWF   FSR1L, F
                      02190 ;       .line   403; Port.c     Byte_SetQuad(pInput->mOutput, (UINT8)pQuad, 0b1111);
00026A 50??           02191         MOVF    r0x00, W
00026C 0F06           02192         ADDLW   0x06
00026E 6E??           02193         MOVWF   r0x06
000270 0E00           02194         MOVLW   0x00
000272 20??           02195         ADDWFC  r0x01, W
000274 6E??           02196         MOVWF   r0x07
000276 0E00           02197         MOVLW   0x00
000278 20??           02198         ADDWFC  r0x02, W
00027A 6E??           02199         MOVWF   r0x08
00027C C??? F???      02200         MOVFF   r0x06, FSR0L
000280 C??? F???      02201         MOVFF   r0x07, PRODL
000284 50??           02202         MOVF    r0x08, W
000286 EC?? F0??      02203         CALL    __gptrget3
00028A 6E??           02204         MOVWF   r0x06
00028C CFF3 F000      02205         MOVFF   PRODL, r0x07
000290 CFF4 F000      02206         MOVFF   PRODH, r0x08
000294 0E0F           02207         MOVLW   0x0f
000296 6EE5           02208         MOVWF   POSTDEC1
000298 50??           02209         MOVF    r0x03, W
00029A 6EE5           02210         MOVWF   POSTDEC1
00029C 50??           02211         MOVF    r0x08, W
00029E 6EE5           02212         MOVWF   POSTDEC1
0002A0 50??           02213         MOVF    r0x07, W
0002A2 6EE5           02214         MOVWF   POSTDEC1
0002A4 50??           02215         MOVF    r0x06, W
gpasm-1.4.2 #1169 (Jan  2 2016) build/default   9-13-2016  14:11:57         PAGE 43


LOC    OBJECT CODE    LINE  SOURCE TEXT
  VALUE

0002A6 6EE5           02216         MOVWF   POSTDEC1
0002A8 EC?? F0??      02217         CALL    _Byte_SetQuad
0002AC 0E05           02218         MOVLW   0x05
0002AE 26E1           02219         ADDWF   FSR1L, F
0002B0 D???           02220         BRA     _00371_DS_
0002B2                02221 _00364_DS_:
                      02222 ;       .line   405; Port.c     else return Output;
0002B2 50??           02223         MOVF    r0x05, W
0002B4 D???           02224         BRA     _00372_DS_
0002B6                02225 _00366_DS_:
                      02226 ;       .line   408; Port.c     if ((Output = Port_CheckQuadType(pInput, pQuad, eNone)) == ePinErrorNone
                            )
0002B6 0E03           02227         MOVLW   0x03
0002B8 6EE5           02228         MOVWF   POSTDEC1
0002BA 50??           02229         MOVF    r0x03, W
0002BC 6EE5           02230         MOVWF   POSTDEC1
0002BE 50??           02231         MOVF    r0x02, W
0002C0 6EE5           02232         MOVWF   POSTDEC1
0002C2 50??           02233         MOVF    r0x01, W
0002C4 6EE5           02234         MOVWF   POSTDEC1
0002C6 50??           02235         MOVF    r0x00, W
0002C8 6EE5           02236         MOVWF   POSTDEC1
0002CA EC?? F0??      02237         CALL    _Port_CheckQuadType
0002CE 6E??           02238         MOVWF   r0x06
0002D0 0E05           02239         MOVLW   0x05
0002D2 26E1           02240         ADDWF   FSR1L, F
0002D4 C??? F???      02241         MOVFF   r0x06, r0x05
0002D8 50??           02242         MOVF    r0x06, W
0002DA A4D8           02243         BTFSS   STATUS, 2
0002DC D???           02244         BRA     _00368_DS_
                      02245 ;       .line   411; Port.c     Byte_SetQuad(pInput->mDirection, (UINT8)pQuad, 0b0000);
0002DE 50??           02246         MOVF    r0x00, W
0002E0 0F03           02247         ADDLW   0x03
0002E2 6E??           02248         MOVWF   r0x06
0002E4 0E00           02249         MOVLW   0x00
0002E6 20??           02250         ADDWFC  r0x01, W
0002E8 6E??           02251         MOVWF   r0x07
0002EA 0E00           02252         MOVLW   0x00
0002EC 20??           02253         ADDWFC  r0x02, W
0002EE 6E??           02254         MOVWF   r0x08
0002F0 C??? F???      02255         MOVFF   r0x06, FSR0L
0002F4 C??? F???      02256         MOVFF   r0x07, PRODL
0002F8 50??           02257         MOVF    r0x08, W
0002FA EC?? F0??      02258         CALL    __gptrget3
0002FE 6E??           02259         MOVWF   r0x06
000300 CFF3 F000      02260         MOVFF   PRODL, r0x07
000304 CFF4 F000      02261         MOVFF   PRODH, r0x08
000308 0E00           02262         MOVLW   0x00
00030A 6EE5           02263         MOVWF   POSTDEC1
00030C 50??           02264         MOVF    r0x03, W
00030E 6EE5           02265         MOVWF   POSTDEC1
000310 50??           02266         MOVF    r0x08, W
000312 6EE5           02267         MOVWF   POSTDEC1
gpasm-1.4.2 #1169 (Jan  2 2016) build/default   9-13-2016  14:11:57         PAGE 44


LOC    OBJECT CODE    LINE  SOURCE TEXT
  VALUE

000314 50??           02268         MOVF    r0x07, W
000316 6EE5           02269         MOVWF   POSTDEC1
000318 50??           02270         MOVF    r0x06, W
00031A 6EE5           02271         MOVWF   POSTDEC1
00031C EC?? F0??      02272         CALL    _Byte_SetQuad
000320 0E05           02273         MOVLW   0x05
000322 26E1           02274         ADDWF   FSR1L, F
                      02275 ;       .line   414; Port.c     Byte_SetQuad(pInput->mOutput, (UINT8)pQuad, 0b0000);
000324 50??           02276         MOVF    r0x00, W
000326 0F06           02277         ADDLW   0x06
000328 6E??           02278         MOVWF   r0x06
00032A 0E00           02279         MOVLW   0x00
00032C 20??           02280         ADDWFC  r0x01, W
00032E 6E??           02281         MOVWF   r0x07
000330 0E00           02282         MOVLW   0x00
000332 20??           02283         ADDWFC  r0x02, W
000334 6E??           02284         MOVWF   r0x08
000336 C??? F???      02285         MOVFF   r0x06, FSR0L
00033A C??? F???      02286         MOVFF   r0x07, PRODL
00033E 50??           02287         MOVF    r0x08, W
000340 EC?? F0??      02288         CALL    __gptrget3
000344 6E??           02289         MOVWF   r0x06
000346 CFF3 F000      02290         MOVFF   PRODL, r0x07
00034A CFF4 F000      02291         MOVFF   PRODH, r0x08
00034E 0E00           02292         MOVLW   0x00
000350 6EE5           02293         MOVWF   POSTDEC1
000352 50??           02294         MOVF    r0x03, W
000354 6EE5           02295         MOVWF   POSTDEC1
000356 50??           02296         MOVF    r0x08, W
000358 6EE5           02297         MOVWF   POSTDEC1
00035A 50??           02298         MOVF    r0x07, W
00035C 6EE5           02299         MOVWF   POSTDEC1
00035E 50??           02300         MOVF    r0x06, W
000360 6EE5           02301         MOVWF   POSTDEC1
000362 EC?? F0??      02302         CALL    _Byte_SetQuad
000366 0E05           02303         MOVLW   0x05
000368 26E1           02304         ADDWF   FSR1L, F
00036A D???           02305         BRA     _00371_DS_
00036C                02306 _00368_DS_:
                      02307 ;       .line   416; Port.c     else return Output;
00036C 50??           02308         MOVF    r0x05, W
00036E D???           02309         BRA     _00372_DS_
000370                02310 _00371_DS_:
                      02311 ;       .line   423; Port.c     Word_SetPair(&pInput->mType, (UINT8)pQuad * 4,          (UINT8)pType);
000370 50??           02312         MOVF    r0x00, W
000372 0F0C           02313         ADDLW   0x0c
000374 6E??           02314         MOVWF   r0x06
000376 0E00           02315         MOVLW   0x00
000378 20??           02316         ADDWFC  r0x01, W
00037A 6E??           02317         MOVWF   r0x07
00037C 0E00           02318         MOVLW   0x00
00037E 20??           02319         ADDWFC  r0x02, W
000380 6E??           02320         MOVWF   r0x08
gpasm-1.4.2 #1169 (Jan  2 2016) build/default   9-13-2016  14:11:57         PAGE 45


LOC    OBJECT CODE    LINE  SOURCE TEXT
  VALUE

                      02321 ; ;multiply lit val:0x04 by variable r0x03 and store in r0x03
000382 50??           02322         MOVF    r0x03, W
000384 0D04           02323         MULLW   0x04
000386 CFF3 F000      02324         MOVFF   PRODL, r0x03
00038A 50??           02325         MOVF    r0x04, W
00038C 6EE5           02326         MOVWF   POSTDEC1
00038E 50??           02327         MOVF    r0x03, W
000390 6EE5           02328         MOVWF   POSTDEC1
000392 50??           02329         MOVF    r0x08, W
000394 6EE5           02330         MOVWF   POSTDEC1
000396 50??           02331         MOVF    r0x07, W
000398 6EE5           02332         MOVWF   POSTDEC1
00039A 50??           02333         MOVF    r0x06, W
00039C 6EE5           02334         MOVWF   POSTDEC1
00039E EC?? F0??      02335         CALL    _Word_SetPair
0003A2 0E05           02336         MOVLW   0x05
0003A4 26E1           02337         ADDWF   FSR1L, F
                      02338 ;       .line   424; Port.c     Word_SetPair(&pInput->mType, (UINT8)pQuad * 4 + 1,      (UINT8)pType);
0003A6 50??           02339         MOVF    r0x00, W
0003A8 0F0C           02340         ADDLW   0x0c
0003AA 6E??           02341         MOVWF   r0x06
0003AC 0E00           02342         MOVLW   0x00
0003AE 20??           02343         ADDWFC  r0x01, W
0003B0 6E??           02344         MOVWF   r0x07
0003B2 0E00           02345         MOVLW   0x00
0003B4 20??           02346         ADDWFC  r0x02, W
0003B6 6E??           02347         MOVWF   r0x08
0003B8 28??           02348         INCF    r0x03, W
0003BA 6E??           02349         MOVWF   r0x09
0003BC 50??           02350         MOVF    r0x04, W
0003BE 6EE5           02351         MOVWF   POSTDEC1
0003C0 50??           02352         MOVF    r0x09, W
0003C2 6EE5           02353         MOVWF   POSTDEC1
0003C4 50??           02354         MOVF    r0x08, W
0003C6 6EE5           02355         MOVWF   POSTDEC1
0003C8 50??           02356         MOVF    r0x07, W
0003CA 6EE5           02357         MOVWF   POSTDEC1
0003CC 50??           02358         MOVF    r0x06, W
0003CE 6EE5           02359         MOVWF   POSTDEC1
0003D0 EC?? F0??      02360         CALL    _Word_SetPair
0003D4 0E05           02361         MOVLW   0x05
0003D6 26E1           02362         ADDWF   FSR1L, F
                      02363 ;       .line   425; Port.c     Word_SetPair(&pInput->mType, (UINT8)pQuad * 4 + 2,      (UINT8)pType);
0003D8 50??           02364         MOVF    r0x00, W
0003DA 0F0C           02365         ADDLW   0x0c
0003DC 6E??           02366         MOVWF   r0x06
0003DE 0E00           02367         MOVLW   0x00
0003E0 20??           02368         ADDWFC  r0x01, W
0003E2 6E??           02369         MOVWF   r0x07
0003E4 0E00           02370         MOVLW   0x00
0003E6 20??           02371         ADDWFC  r0x02, W
0003E8 6E??           02372         MOVWF   r0x08
0003EA 0E02           02373         MOVLW   0x02
gpasm-1.4.2 #1169 (Jan  2 2016) build/default   9-13-2016  14:11:57         PAGE 46


LOC    OBJECT CODE    LINE  SOURCE TEXT
  VALUE

0003EC 24??           02374         ADDWF   r0x03, W
0003EE 6E??           02375         MOVWF   r0x09
0003F0 50??           02376         MOVF    r0x04, W
0003F2 6EE5           02377         MOVWF   POSTDEC1
0003F4 50??           02378         MOVF    r0x09, W
0003F6 6EE5           02379         MOVWF   POSTDEC1
0003F8 50??           02380         MOVF    r0x08, W
0003FA 6EE5           02381         MOVWF   POSTDEC1
0003FC 50??           02382         MOVF    r0x07, W
0003FE 6EE5           02383         MOVWF   POSTDEC1
000400 50??           02384         MOVF    r0x06, W
000402 6EE5           02385         MOVWF   POSTDEC1
000404 EC?? F0??      02386         CALL    _Word_SetPair
000408 0E05           02387         MOVLW   0x05
00040A 26E1           02388         ADDWF   FSR1L, F
                      02389 ;       .line   426; Port.c     Word_SetPair(&pInput->mType, (UINT8)pQuad * 4 + 3,      (UINT8)pType);
00040C 0E0C           02390         MOVLW   0x0c
00040E 26??           02391         ADDWF   r0x00, F
000410 0E00           02392         MOVLW   0x00
000412 22??           02393         ADDWFC  r0x01, F
000414 22??           02394         ADDWFC  r0x02, F
000416 0E03           02395         MOVLW   0x03
000418 26??           02396         ADDWF   r0x03, F
00041A 50??           02397         MOVF    r0x04, W
00041C 6EE5           02398         MOVWF   POSTDEC1
00041E 50??           02399         MOVF    r0x03, W
000420 6EE5           02400         MOVWF   POSTDEC1
000422 50??           02401         MOVF    r0x02, W
000424 6EE5           02402         MOVWF   POSTDEC1
000426 50??           02403         MOVF    r0x01, W
000428 6EE5           02404         MOVWF   POSTDEC1
00042A 50??           02405         MOVF    r0x00, W
00042C 6EE5           02406         MOVWF   POSTDEC1
00042E EC?? F0??      02407         CALL    _Word_SetPair
000432 0E05           02408         MOVLW   0x05
000434 26E1           02409         ADDWF   FSR1L, F
                      02410 ;       .line   427; Port.c     return Output;
000436 50??           02411         MOVF    r0x05, W
000438                02412 _00372_DS_:
000438 CFE4 F000      02413         MOVFF   PREINC1, r0x09
00043C CFE4 F000      02414         MOVFF   PREINC1, r0x08
000440 CFE4 F000      02415         MOVFF   PREINC1, r0x07
000444 CFE4 F000      02416         MOVFF   PREINC1, r0x06
000448 CFE4 F000      02417         MOVFF   PREINC1, r0x05
00044C CFE4 F000      02418         MOVFF   PREINC1, r0x04
000450 CFE4 F000      02419         MOVFF   PREINC1, r0x03
000454 CFE4 F000      02420         MOVFF   PREINC1, r0x02
000458 CFE4 F000      02421         MOVFF   PREINC1, r0x01
00045C CFE4 F000      02422         MOVFF   PREINC1, r0x00
000460 CFE4 FFD9      02423         MOVFF   PREINC1, FSR2L
000464 0012           02424         RETURN  
                      02425 
                      02426 ; ; Starting pCode block
gpasm-1.4.2 #1169 (Jan  2 2016) build/default   9-13-2016  14:11:57         PAGE 47


LOC    OBJECT CODE    LINE  SOURCE TEXT
  VALUE

                      02427 S_Port__Port_GetPair    code
000000                02428 _Port_GetPair:
                      02429 ;       .line   360; Port.c     UINT8           Port_GetPair    (PortPtr pInput, ePair pPair)
000000 CFD9 FFE5      02430         MOVFF   FSR2L, POSTDEC1
000004 CFE1 FFD9      02431         MOVFF   FSR1L, FSR2L
000008 C??? F???      02432         MOVFF   r0x00, POSTDEC1
00000C C??? F???      02433         MOVFF   r0x01, POSTDEC1
000010 C??? F???      02434         MOVFF   r0x02, POSTDEC1
000014 C??? F???      02435         MOVFF   r0x03, POSTDEC1
000018 0E02           02436         MOVLW   0x02
00001A CFDB F000      02437         MOVFF   PLUSW2, r0x00
00001E 0E03           02438         MOVLW   0x03
000020 CFDB F000      02439         MOVFF   PLUSW2, r0x01
000024 0E04           02440         MOVLW   0x04
000026 CFDB F000      02441         MOVFF   PLUSW2, r0x02
00002A 0E05           02442         MOVLW   0x05
00002C CFDB F000      02443         MOVFF   PLUSW2, r0x03
                      02444 ;       .line   362; Port.c     UINT8 Output = pInput->mInput->mBits;
000030 0E09           02445         MOVLW   0x09
000032 26??           02446         ADDWF   r0x00, F
000034 0E00           02447         MOVLW   0x00
000036 22??           02448         ADDWFC  r0x01, F
000038 22??           02449         ADDWFC  r0x02, F
00003A C??? F???      02450         MOVFF   r0x00, FSR0L
00003E C??? F???      02451         MOVFF   r0x01, PRODL
000042 50??           02452         MOVF    r0x02, W
000044 EC?? F0??      02453         CALL    __gptrget3
000048 6E??           02454         MOVWF   r0x00
00004A CFF3 F000      02455         MOVFF   PRODL, r0x01
00004E CFF4 F000      02456         MOVFF   PRODH, r0x02
000052 C??? F???      02457         MOVFF   r0x00, FSR0L
000056 C??? F???      02458         MOVFF   r0x01, PRODL
00005A 50??           02459         MOVF    r0x02, W
00005C EC?? F0??      02460         CALL    __gptrget1
000060 0BFF           02461         ANDLW   0xff
000062 6E??           02462         MOVWF   r0x00
                      02463 ; ;multiply lit val:0x02 by variable r0x03 and store in r0x03
                      02464 ;       .line   363; Port.c     Output >>= ((UINT8)pPair * 2);
000064 50??           02465         MOVF    r0x03, W
000066 0D02           02466         MULLW   0x02
000068 50F4           02467         MOVF    PRODH, W
00006A 6E??           02468         MOVWF   r0x01
00006C CFF3 F000      02469         MOVFF   PRODL, r0x03
000070 50??           02470         MOVF    r0x03, W
000072 E0??           02471         BZ      _00346_DS_
000074 E6??           02472         BN      _00349_DS_
000076 6CE8           02473         NEGF    WREG
000078 90D8           02474         BCF     STATUS, 0
00007A                02475 _00347_DS_:
00007A 32??           02476         RRCF    r0x00, F
00007C 0F01           02477         ADDLW   0x01
00007E E3??           02478         BNC     _00347_DS_
000080 D???           02479         BRA     _00346_DS_
gpasm-1.4.2 #1169 (Jan  2 2016) build/default   9-13-2016  14:11:57         PAGE 48


LOC    OBJECT CODE    LINE  SOURCE TEXT
  VALUE

000082                02480 _00349_DS_:
000082 90D8           02481         BCF     STATUS, 0
000084                02482 _00348_DS_:
000084 36??           02483         RLCF    r0x00, F
000086 0F01           02484         ADDLW   0x01
000088 E3??           02485         BNC     _00348_DS_
00008A                02486 _00346_DS_:
                      02487 ;       .line   364; Port.c     Output &= 0b11;
00008A 0E03           02488         MOVLW   0x03
00008C 16??           02489         ANDWF   r0x00, F
                      02490 ;       .line   365; Port.c     return Output;
00008E 50??           02491         MOVF    r0x00, W
000090 CFE4 F000      02492         MOVFF   PREINC1, r0x03
000094 CFE4 F000      02493         MOVFF   PREINC1, r0x02
000098 CFE4 F000      02494         MOVFF   PREINC1, r0x01
00009C CFE4 F000      02495         MOVFF   PREINC1, r0x00
0000A0 CFE4 FFD9      02496         MOVFF   PREINC1, FSR2L
0000A4 0012           02497         RETURN  
                      02498 
                      02499 ; ; Starting pCode block
                      02500 S_Port__Port_SetPair    code
000000                02501 _Port_SetPair:
                      02502 ;       .line   321; Port.c     void            Port_SetPair    (PortPtr pInput, ePair pPair, UINT8 pVal
                            ue)
000000 CFD9 FFE5      02503         MOVFF   FSR2L, POSTDEC1
000004 CFE1 FFD9      02504         MOVFF   FSR1L, FSR2L
000008 C??? F???      02505         MOVFF   r0x00, POSTDEC1
00000C C??? F???      02506         MOVFF   r0x01, POSTDEC1
000010 C??? F???      02507         MOVFF   r0x02, POSTDEC1
000014 C??? F???      02508         MOVFF   r0x03, POSTDEC1
000018 C??? F???      02509         MOVFF   r0x04, POSTDEC1
00001C C??? F???      02510         MOVFF   r0x05, POSTDEC1
000020 C??? F???      02511         MOVFF   r0x06, POSTDEC1
000024 C??? F???      02512         MOVFF   r0x07, POSTDEC1
000028 C??? F???      02513         MOVFF   r0x08, POSTDEC1
00002C C??? F???      02514         MOVFF   r0x09, POSTDEC1
000030 C??? F???      02515         MOVFF   r0x0a, POSTDEC1
000034 0E02           02516         MOVLW   0x02
000036 CFDB F000      02517         MOVFF   PLUSW2, r0x00
00003A 0E03           02518         MOVLW   0x03
00003C CFDB F000      02519         MOVFF   PLUSW2, r0x01
000040 0E04           02520         MOVLW   0x04
000042 CFDB F000      02521         MOVFF   PLUSW2, r0x02
000046 0E05           02522         MOVLW   0x05
000048 CFDB F000      02523         MOVFF   PLUSW2, r0x03
00004C 0E06           02524         MOVLW   0x06
00004E CFDB F000      02525         MOVFF   PLUSW2, r0x04
                      02526 ;       .line   323; Port.c     ePinType        Type = (ePinType)Word_GetPair(&pInput->mType, ((UINT8)pP
                            air) * 2);
000052 50??           02527         MOVF    r0x00, W
000054 0F0C           02528         ADDLW   0x0c
000056 6E??           02529         MOVWF   r0x05
000058 0E00           02530         MOVLW   0x00
gpasm-1.4.2 #1169 (Jan  2 2016) build/default   9-13-2016  14:11:57         PAGE 49


LOC    OBJECT CODE    LINE  SOURCE TEXT
  VALUE

00005A 20??           02531         ADDWFC  r0x01, W
00005C 6E??           02532         MOVWF   r0x06
00005E 0E00           02533         MOVLW   0x00
000060 20??           02534         ADDWFC  r0x02, W
000062 6E??           02535         MOVWF   r0x07
                      02536 ; ;multiply lit val:0x02 by variable r0x03 and store in r0x08
000064 50??           02537         MOVF    r0x03, W
000066 0D02           02538         MULLW   0x02
000068 CFF3 F000      02539         MOVFF   PRODL, r0x08
00006C 50??           02540         MOVF    r0x08, W
00006E 6EE5           02541         MOVWF   POSTDEC1
000070 50??           02542         MOVF    r0x07, W
000072 6EE5           02543         MOVWF   POSTDEC1
000074 50??           02544         MOVF    r0x06, W
000076 6EE5           02545         MOVWF   POSTDEC1
000078 50??           02546         MOVF    r0x05, W
00007A 6EE5           02547         MOVWF   POSTDEC1
00007C EC?? F0??      02548         CALL    _Word_GetPair
000080 6E??           02549         MOVWF   r0x05
000082 0E04           02550         MOVLW   0x04
000084 26E1           02551         ADDWF   FSR1L, F
                      02552 ;       .line   324; Port.c     UINT8           TypeRequired = Type | (Type << 2);
000086 44??           02553         RLNCF   r0x05, W
000088 44E8           02554         RLNCF   WREG, W
00008A 0BFC           02555         ANDLW   0xfc
00008C 6E??           02556         MOVWF   r0x06
00008E 50??           02557         MOVF    r0x05, W
000090 12??           02558         IORWF   r0x06, F
                      02559 ;       .line   326; Port.c     TypeActual |= (ePinType)Word_GetPair(&pInput->mType, (UINT8)pPair * 2 + 
                            1) << 2;
000092 50??           02560         MOVF    r0x00, W
000094 0F0C           02561         ADDLW   0x0c
000096 6E??           02562         MOVWF   r0x07
000098 0E00           02563         MOVLW   0x00
00009A 20??           02564         ADDWFC  r0x01, W
00009C 6E??           02565         MOVWF   r0x09
00009E 0E00           02566         MOVLW   0x00
0000A0 20??           02567         ADDWFC  r0x02, W
0000A2 6E??           02568         MOVWF   r0x0a
0000A4 2A??           02569         INCF    r0x08, F
0000A6 50??           02570         MOVF    r0x08, W
0000A8 6EE5           02571         MOVWF   POSTDEC1
0000AA 50??           02572         MOVF    r0x0a, W
0000AC 6EE5           02573         MOVWF   POSTDEC1
0000AE 50??           02574         MOVF    r0x09, W
0000B0 6EE5           02575         MOVWF   POSTDEC1
0000B2 50??           02576         MOVF    r0x07, W
0000B4 6EE5           02577         MOVWF   POSTDEC1
0000B6 EC?? F0??      02578         CALL    _Word_GetPair
0000BA 6E??           02579         MOVWF   r0x07
0000BC 0E04           02580         MOVLW   0x04
0000BE 26E1           02581         ADDWF   FSR1L, F
0000C0 44??           02582         RLNCF   r0x07, W
gpasm-1.4.2 #1169 (Jan  2 2016) build/default   9-13-2016  14:11:57         PAGE 50


LOC    OBJECT CODE    LINE  SOURCE TEXT
  VALUE

0000C2 44E8           02583         RLNCF   WREG, W
0000C4 0BFC           02584         ANDLW   0xfc
0000C6 6E??           02585         MOVWF   r0x08
0000C8 50??           02586         MOVF    r0x08, W
0000CA 10??           02587         IORWF   r0x05, W
0000CC 6E??           02588         MOVWF   r0x07
                      02589 ;       .line   329; Port.c     if (TypeRequired == TypeActual)
0000CE 50??           02590         MOVF    r0x06, W
0000D0 18??           02591         XORWF   r0x07, W
0000D2 E0??           02592         BZ      _00337_DS_
0000D4 D???           02593         BRA     _00326_DS_
0000D6                02594 _00337_DS_:
                      02595 ;       .line   331; Port.c     switch (Type)
0000D6 0E04           02596         MOVLW   0x04
0000D8 5C??           02597         SUBWF   r0x05, W
0000DA B0D8           02598         BTFSC   STATUS, 0
0000DC D???           02599         BRA     _00326_DS_
0000DE 6AFA           02600         CLRF    PCLATH
0000E0 6AFB           02601         CLRF    PCLATU
0000E2 34??           02602         RLCF    r0x05, W
0000E4 36FA           02603         RLCF    PCLATH, F
0000E6 34E8           02604         RLCF    WREG, W
0000E8 36FA           02605         RLCF    PCLATH, F
0000EA 0BFC           02606         ANDLW   0xfc
0000EC 0F??           02607         ADDLW   LOW(_00339_DS_)
0000EE 6EE5           02608         MOVWF   POSTDEC1
0000F0 0E??           02609         MOVLW   HIGH(_00339_DS_)
0000F2 22FA           02610         ADDWFC  PCLATH, F
0000F4 0E??           02611         MOVLW   UPPER(_00339_DS_)
0000F6 22FB           02612         ADDWFC  PCLATU, F
0000F8 50E4           02613         MOVF    PREINC1, W
0000FA 6EF9           02614         MOVWF   PCL
0000FC                02615 _00339_DS_:
0000FC EF?? F0??      02616         GOTO    _00318_DS_
000100 EF?? F0??      02617         GOTO    _00319_DS_
000104 EF?? F0??      02618         GOTO    _00320_DS_
000108 EF?? F0??      02619         GOTO    _00321_DS_
00010C                02620 _00318_DS_:
                      02621 ;       .line   334; Port.c     return;
00010C D???           02622         BRA     _00326_DS_
00010E                02623 _00319_DS_:
                      02624 ;       .line   337; Port.c     pValue &= 0x03;
00010E 0E03           02625         MOVLW   0x03
000110 16??           02626         ANDWF   r0x04, F
                      02627 ;       .line   338; Port.c     Byte_SetPair(pInput->mDirection, pPair, pValue);
000112 50??           02628         MOVF    r0x00, W
000114 0F03           02629         ADDLW   0x03
000116 6E??           02630         MOVWF   r0x05
000118 0E00           02631         MOVLW   0x00
00011A 20??           02632         ADDWFC  r0x01, W
00011C 6E??           02633         MOVWF   r0x06
00011E 0E00           02634         MOVLW   0x00
000120 20??           02635         ADDWFC  r0x02, W
gpasm-1.4.2 #1169 (Jan  2 2016) build/default   9-13-2016  14:11:57         PAGE 51


LOC    OBJECT CODE    LINE  SOURCE TEXT
  VALUE

000122 6E??           02636         MOVWF   r0x07
000124 C??? F???      02637         MOVFF   r0x05, FSR0L
000128 C??? F???      02638         MOVFF   r0x06, PRODL
00012C 50??           02639         MOVF    r0x07, W
00012E EC?? F0??      02640         CALL    __gptrget3
000132 6E??           02641         MOVWF   r0x05
000134 CFF3 F000      02642         MOVFF   PRODL, r0x06
000138 CFF4 F000      02643         MOVFF   PRODH, r0x07
00013C 50??           02644         MOVF    r0x04, W
00013E 6EE5           02645         MOVWF   POSTDEC1
000140 50??           02646         MOVF    r0x03, W
000142 6EE5           02647         MOVWF   POSTDEC1
000144 50??           02648         MOVF    r0x07, W
000146 6EE5           02649         MOVWF   POSTDEC1
000148 50??           02650         MOVF    r0x06, W
00014A 6EE5           02651         MOVWF   POSTDEC1
00014C 50??           02652         MOVF    r0x05, W
00014E 6EE5           02653         MOVWF   POSTDEC1
000150 EC?? F0??      02654         CALL    _Byte_SetPair
000154 0E05           02655         MOVLW   0x05
000156 26E1           02656         ADDWF   FSR1L, F
                      02657 ;       .line   339; Port.c     break;
000158 D???           02658         BRA     _00326_DS_
00015A                02659 _00320_DS_:
                      02660 ;       .line   342; Port.c     pValue = ~pValue;
00015A 1E??           02661         COMF    r0x04, F
                      02662 ;       .line   343; Port.c     pValue &= 0x03;
00015C 0E03           02663         MOVLW   0x03
00015E 16??           02664         ANDWF   r0x04, F
                      02665 ;       .line   344; Port.c     Byte_SetPair(pInput->mDirection, pPair, pValue);
000160 50??           02666         MOVF    r0x00, W
000162 0F03           02667         ADDLW   0x03
000164 6E??           02668         MOVWF   r0x05
000166 0E00           02669         MOVLW   0x00
000168 20??           02670         ADDWFC  r0x01, W
00016A 6E??           02671         MOVWF   r0x06
00016C 0E00           02672         MOVLW   0x00
00016E 20??           02673         ADDWFC  r0x02, W
000170 6E??           02674         MOVWF   r0x07
000172 C??? F???      02675         MOVFF   r0x05, FSR0L
000176 C??? F???      02676         MOVFF   r0x06, PRODL
00017A 50??           02677         MOVF    r0x07, W
00017C EC?? F0??      02678         CALL    __gptrget3
000180 6E??           02679         MOVWF   r0x05
000182 CFF3 F000      02680         MOVFF   PRODL, r0x06
000186 CFF4 F000      02681         MOVFF   PRODH, r0x07
00018A 50??           02682         MOVF    r0x04, W
00018C 6EE5           02683         MOVWF   POSTDEC1
00018E 50??           02684         MOVF    r0x03, W
000190 6EE5           02685         MOVWF   POSTDEC1
000192 50??           02686         MOVF    r0x07, W
000194 6EE5           02687         MOVWF   POSTDEC1
000196 50??           02688         MOVF    r0x06, W
gpasm-1.4.2 #1169 (Jan  2 2016) build/default   9-13-2016  14:11:57         PAGE 52


LOC    OBJECT CODE    LINE  SOURCE TEXT
  VALUE

000198 6EE5           02689         MOVWF   POSTDEC1
00019A 50??           02690         MOVF    r0x05, W
00019C 6EE5           02691         MOVWF   POSTDEC1
00019E EC?? F0??      02692         CALL    _Byte_SetPair
0001A2 0E05           02693         MOVLW   0x05
0001A4 26E1           02694         ADDWF   FSR1L, F
                      02695 ;       .line   345; Port.c     break;
0001A6 D???           02696         BRA     _00326_DS_
0001A8                02697 _00321_DS_:
                      02698 ;       .line   348; Port.c     pValue &= 0x03;
0001A8 0E03           02699         MOVLW   0x03
0001AA 16??           02700         ANDWF   r0x04, F
                      02701 ;       .line   349; Port.c     Byte_SetPair(pInput->mOutput, pPair, pValue);
0001AC 0E06           02702         MOVLW   0x06
0001AE 26??           02703         ADDWF   r0x00, F
0001B0 0E00           02704         MOVLW   0x00
0001B2 22??           02705         ADDWFC  r0x01, F
0001B4 22??           02706         ADDWFC  r0x02, F
0001B6 C??? F???      02707         MOVFF   r0x00, FSR0L
0001BA C??? F???      02708         MOVFF   r0x01, PRODL
0001BE 50??           02709         MOVF    r0x02, W
0001C0 EC?? F0??      02710         CALL    __gptrget3
0001C4 6E??           02711         MOVWF   r0x00
0001C6 CFF3 F000      02712         MOVFF   PRODL, r0x01
0001CA CFF4 F000      02713         MOVFF   PRODH, r0x02
0001CE 50??           02714         MOVF    r0x04, W
0001D0 6EE5           02715         MOVWF   POSTDEC1
0001D2 50??           02716         MOVF    r0x03, W
0001D4 6EE5           02717         MOVWF   POSTDEC1
0001D6 50??           02718         MOVF    r0x02, W
0001D8 6EE5           02719         MOVWF   POSTDEC1
0001DA 50??           02720         MOVF    r0x01, W
0001DC 6EE5           02721         MOVWF   POSTDEC1
0001DE 50??           02722         MOVF    r0x00, W
0001E0 6EE5           02723         MOVWF   POSTDEC1
0001E2 EC?? F0??      02724         CALL    _Byte_SetPair
0001E6 0E05           02725         MOVLW   0x05
0001E8 26E1           02726         ADDWF   FSR1L, F
0001EA                02727 _00326_DS_:
                      02728 ;       .line   353; Port.c     }
0001EA CFE4 F000      02729         MOVFF   PREINC1, r0x0a
0001EE CFE4 F000      02730         MOVFF   PREINC1, r0x09
0001F2 CFE4 F000      02731         MOVFF   PREINC1, r0x08
0001F6 CFE4 F000      02732         MOVFF   PREINC1, r0x07
0001FA CFE4 F000      02733         MOVFF   PREINC1, r0x06
0001FE CFE4 F000      02734         MOVFF   PREINC1, r0x05
000202 CFE4 F000      02735         MOVFF   PREINC1, r0x04
000206 CFE4 F000      02736         MOVFF   PREINC1, r0x03
00020A CFE4 F000      02737         MOVFF   PREINC1, r0x02
00020E CFE4 F000      02738         MOVFF   PREINC1, r0x01
000212 CFE4 F000      02739         MOVFF   PREINC1, r0x00
000216 CFE4 FFD9      02740         MOVFF   PREINC1, FSR2L
00021A 0012           02741         RETURN  
gpasm-1.4.2 #1169 (Jan  2 2016) build/default   9-13-2016  14:11:57         PAGE 53


LOC    OBJECT CODE    LINE  SOURCE TEXT
  VALUE

                      02742 
                      02743 ; ; Starting pCode block
                      02744 S_Port__Port_SetPairType        code
000000                02745 _Port_SetPairType:
                      02746 ;       .line   262; Port.c     ePinError       Port_SetPairType(PortPtr pInput, ePair pPair, ePinType p
                            Type)
000000 CFD9 FFE5      02747         MOVFF   FSR2L, POSTDEC1
000004 CFE1 FFD9      02748         MOVFF   FSR1L, FSR2L
000008 C??? F???      02749         MOVFF   r0x00, POSTDEC1
00000C C??? F???      02750         MOVFF   r0x01, POSTDEC1
000010 C??? F???      02751         MOVFF   r0x02, POSTDEC1
000014 C??? F???      02752         MOVFF   r0x03, POSTDEC1
000018 C??? F???      02753         MOVFF   r0x04, POSTDEC1
00001C C??? F???      02754         MOVFF   r0x05, POSTDEC1
000020 C??? F???      02755         MOVFF   r0x06, POSTDEC1
000024 C??? F???      02756         MOVFF   r0x07, POSTDEC1
000028 C??? F???      02757         MOVFF   r0x08, POSTDEC1
00002C 0E02           02758         MOVLW   0x02
00002E CFDB F000      02759         MOVFF   PLUSW2, r0x00
000032 0E03           02760         MOVLW   0x03
000034 CFDB F000      02761         MOVFF   PLUSW2, r0x01
000038 0E04           02762         MOVLW   0x04
00003A CFDB F000      02763         MOVFF   PLUSW2, r0x02
00003E 0E05           02764         MOVLW   0x05
000040 CFDB F000      02765         MOVFF   PLUSW2, r0x03
000044 0E06           02766         MOVLW   0x06
000046 CFDB F000      02767         MOVFF   PLUSW2, r0x04
                      02768 ;       .line   264; Port.c     ePinError Output = ePinErrorState;
00004A 0E05           02769         MOVLW   0x05
00004C 6E??           02770         MOVWF   r0x05
                      02771 ;       .line   266; Port.c     switch (pType)
00004E 0E04           02772         MOVLW   0x04
000050 5C??           02773         SUBWF   r0x04, W
000052 B0D8           02774         BTFSC   STATUS, 0
000054 D???           02775         BRA     _00294_DS_
000056 6AFA           02776         CLRF    PCLATH
000058 6AFB           02777         CLRF    PCLATU
00005A 34??           02778         RLCF    r0x04, W
00005C 36FA           02779         RLCF    PCLATH, F
00005E 34E8           02780         RLCF    WREG, W
000060 36FA           02781         RLCF    PCLATH, F
000062 0BFC           02782         ANDLW   0xfc
000064 0F??           02783         ADDLW   LOW(_00313_DS_)
000066 6EE5           02784         MOVWF   POSTDEC1
000068 0E??           02785         MOVLW   HIGH(_00313_DS_)
00006A 22FA           02786         ADDWFC  PCLATH, F
00006C 0E??           02787         MOVLW   UPPER(_00313_DS_)
00006E 22FB           02788         ADDWFC  PCLATU, F
000070 50E4           02789         MOVF    PREINC1, W
000072 6EF9           02790         MOVWF   PCL
000074                02791 _00313_DS_:
000074 EF?? F0??      02792         GOTO    _00277_DS_
000078 EF?? F0??      02793         GOTO    _00281_DS_
gpasm-1.4.2 #1169 (Jan  2 2016) build/default   9-13-2016  14:11:57         PAGE 54


LOC    OBJECT CODE    LINE  SOURCE TEXT
  VALUE

00007C EF?? F0??      02794         GOTO    _00285_DS_
000080 EF?? F0??      02795         GOTO    _00289_DS_
000084                02796 _00277_DS_:
                      02797 ;       .line   269; Port.c     if ( (Output=Port_CheckPairType(pInput, pPair, eNone)) == ePinErrorNone)
000084 0E03           02798         MOVLW   0x03
000086 6EE5           02799         MOVWF   POSTDEC1
000088 50??           02800         MOVF    r0x03, W
00008A 6EE5           02801         MOVWF   POSTDEC1
00008C 50??           02802         MOVF    r0x02, W
00008E 6EE5           02803         MOVWF   POSTDEC1
000090 50??           02804         MOVF    r0x01, W
000092 6EE5           02805         MOVWF   POSTDEC1
000094 50??           02806         MOVF    r0x00, W
000096 6EE5           02807         MOVWF   POSTDEC1
000098 EC?? F0??      02808         CALL    _Port_CheckPairType
00009C 6E??           02809         MOVWF   r0x06
00009E 0E05           02810         MOVLW   0x05
0000A0 26E1           02811         ADDWF   FSR1L, F
0000A2 C??? F???      02812         MOVFF   r0x06, r0x05
0000A6 50??           02813         MOVF    r0x06, W
0000A8 A4D8           02814         BTFSS   STATUS, 2
0000AA D???           02815         BRA     _00279_DS_
                      02816 ;       .line   272; Port.c     Byte_SetPair(pInput->mDirection, (UINT8)pPair, 0b11);
0000AC 50??           02817         MOVF    r0x00, W
0000AE 0F03           02818         ADDLW   0x03
0000B0 6E??           02819         MOVWF   r0x06
0000B2 0E00           02820         MOVLW   0x00
0000B4 20??           02821         ADDWFC  r0x01, W
0000B6 6E??           02822         MOVWF   r0x07
0000B8 0E00           02823         MOVLW   0x00
0000BA 20??           02824         ADDWFC  r0x02, W
0000BC 6E??           02825         MOVWF   r0x08
0000BE C??? F???      02826         MOVFF   r0x06, FSR0L
0000C2 C??? F???      02827         MOVFF   r0x07, PRODL
0000C6 50??           02828         MOVF    r0x08, W
0000C8 EC?? F0??      02829         CALL    __gptrget3
0000CC 6E??           02830         MOVWF   r0x06
0000CE CFF3 F000      02831         MOVFF   PRODL, r0x07
0000D2 CFF4 F000      02832         MOVFF   PRODH, r0x08
0000D6 0E03           02833         MOVLW   0x03
0000D8 6EE5           02834         MOVWF   POSTDEC1
0000DA 50??           02835         MOVF    r0x03, W
0000DC 6EE5           02836         MOVWF   POSTDEC1
0000DE 50??           02837         MOVF    r0x08, W
0000E0 6EE5           02838         MOVWF   POSTDEC1
0000E2 50??           02839         MOVF    r0x07, W
0000E4 6EE5           02840         MOVWF   POSTDEC1
0000E6 50??           02841         MOVF    r0x06, W
0000E8 6EE5           02842         MOVWF   POSTDEC1
0000EA EC?? F0??      02843         CALL    _Byte_SetPair
0000EE 0E05           02844         MOVLW   0x05
0000F0 26E1           02845         ADDWF   FSR1L, F
                      02846 ;       .line   275; Port.c     Byte_SetPair(pInput->mOutput, (UINT8)pPair, 0b00);
gpasm-1.4.2 #1169 (Jan  2 2016) build/default   9-13-2016  14:11:57         PAGE 55


LOC    OBJECT CODE    LINE  SOURCE TEXT
  VALUE

0000F2 50??           02847         MOVF    r0x00, W
0000F4 0F06           02848         ADDLW   0x06
0000F6 6E??           02849         MOVWF   r0x06
0000F8 0E00           02850         MOVLW   0x00
0000FA 20??           02851         ADDWFC  r0x01, W
0000FC 6E??           02852         MOVWF   r0x07
0000FE 0E00           02853         MOVLW   0x00
000100 20??           02854         ADDWFC  r0x02, W
000102 6E??           02855         MOVWF   r0x08
000104 C??? F???      02856         MOVFF   r0x06, FSR0L
000108 C??? F???      02857         MOVFF   r0x07, PRODL
00010C 50??           02858         MOVF    r0x08, W
00010E EC?? F0??      02859         CALL    __gptrget3
000112 6E??           02860         MOVWF   r0x06
000114 CFF3 F000      02861         MOVFF   PRODL, r0x07
000118 CFF4 F000      02862         MOVFF   PRODH, r0x08
00011C 0E00           02863         MOVLW   0x00
00011E 6EE5           02864         MOVWF   POSTDEC1
000120 50??           02865         MOVF    r0x03, W
000122 6EE5           02866         MOVWF   POSTDEC1
000124 50??           02867         MOVF    r0x08, W
000126 6EE5           02868         MOVWF   POSTDEC1
000128 50??           02869         MOVF    r0x07, W
00012A 6EE5           02870         MOVWF   POSTDEC1
00012C 50??           02871         MOVF    r0x06, W
00012E 6EE5           02872         MOVWF   POSTDEC1
000130 EC?? F0??      02873         CALL    _Byte_SetPair
000134 0E05           02874         MOVLW   0x05
000136 26E1           02875         ADDWF   FSR1L, F
000138 D???           02876         BRA     _00294_DS_
00013A                02877 _00279_DS_:
                      02878 ;       .line   277; Port.c     else return Output;
00013A 50??           02879         MOVF    r0x05, W
00013C D???           02880         BRA     _00295_DS_
00013E                02881 _00281_DS_:
                      02882 ;       .line   280; Port.c     if ((Output = Port_CheckPairType(pInput, pPair, eLow)) == ePinErrorNone)
00013E 0E01           02883         MOVLW   0x01
000140 6EE5           02884         MOVWF   POSTDEC1
000142 50??           02885         MOVF    r0x03, W
000144 6EE5           02886         MOVWF   POSTDEC1
000146 50??           02887         MOVF    r0x02, W
000148 6EE5           02888         MOVWF   POSTDEC1
00014A 50??           02889         MOVF    r0x01, W
00014C 6EE5           02890         MOVWF   POSTDEC1
00014E 50??           02891         MOVF    r0x00, W
000150 6EE5           02892         MOVWF   POSTDEC1
000152 EC?? F0??      02893         CALL    _Port_CheckPairType
000156 6E??           02894         MOVWF   r0x06
000158 0E05           02895         MOVLW   0x05
00015A 26E1           02896         ADDWF   FSR1L, F
00015C C??? F???      02897         MOVFF   r0x06, r0x05
000160 50??           02898         MOVF    r0x06, W
000162 A4D8           02899         BTFSS   STATUS, 2
gpasm-1.4.2 #1169 (Jan  2 2016) build/default   9-13-2016  14:11:57         PAGE 56


LOC    OBJECT CODE    LINE  SOURCE TEXT
  VALUE

000164 D???           02900         BRA     _00283_DS_
                      02901 ;       .line   283; Port.c     Byte_SetPair(pInput->mDirection, (UINT8)pPair, 0b00);
000166 50??           02902         MOVF    r0x00, W
000168 0F03           02903         ADDLW   0x03
00016A 6E??           02904         MOVWF   r0x06
00016C 0E00           02905         MOVLW   0x00
00016E 20??           02906         ADDWFC  r0x01, W
000170 6E??           02907         MOVWF   r0x07
000172 0E00           02908         MOVLW   0x00
000174 20??           02909         ADDWFC  r0x02, W
000176 6E??           02910         MOVWF   r0x08
000178 C??? F???      02911         MOVFF   r0x06, FSR0L
00017C C??? F???      02912         MOVFF   r0x07, PRODL
000180 50??           02913         MOVF    r0x08, W
000182 EC?? F0??      02914         CALL    __gptrget3
000186 6E??           02915         MOVWF   r0x06
000188 CFF3 F000      02916         MOVFF   PRODL, r0x07
00018C CFF4 F000      02917         MOVFF   PRODH, r0x08
000190 0E00           02918         MOVLW   0x00
000192 6EE5           02919         MOVWF   POSTDEC1
000194 50??           02920         MOVF    r0x03, W
000196 6EE5           02921         MOVWF   POSTDEC1
000198 50??           02922         MOVF    r0x08, W
00019A 6EE5           02923         MOVWF   POSTDEC1
00019C 50??           02924         MOVF    r0x07, W
00019E 6EE5           02925         MOVWF   POSTDEC1
0001A0 50??           02926         MOVF    r0x06, W
0001A2 6EE5           02927         MOVWF   POSTDEC1
0001A4 EC?? F0??      02928         CALL    _Byte_SetPair
0001A8 0E05           02929         MOVLW   0x05
0001AA 26E1           02930         ADDWF   FSR1L, F
                      02931 ;       .line   286; Port.c     Byte_SetPair(pInput->mOutput, (UINT8)pPair, 0b00);
0001AC 50??           02932         MOVF    r0x00, W
0001AE 0F06           02933         ADDLW   0x06
0001B0 6E??           02934         MOVWF   r0x06
0001B2 0E00           02935         MOVLW   0x00
0001B4 20??           02936         ADDWFC  r0x01, W
0001B6 6E??           02937         MOVWF   r0x07
0001B8 0E00           02938         MOVLW   0x00
0001BA 20??           02939         ADDWFC  r0x02, W
0001BC 6E??           02940         MOVWF   r0x08
0001BE C??? F???      02941         MOVFF   r0x06, FSR0L
0001C2 C??? F???      02942         MOVFF   r0x07, PRODL
0001C6 50??           02943         MOVF    r0x08, W
0001C8 EC?? F0??      02944         CALL    __gptrget3
0001CC 6E??           02945         MOVWF   r0x06
0001CE CFF3 F000      02946         MOVFF   PRODL, r0x07
0001D2 CFF4 F000      02947         MOVFF   PRODH, r0x08
0001D6 0E00           02948         MOVLW   0x00
0001D8 6EE5           02949         MOVWF   POSTDEC1
0001DA 50??           02950         MOVF    r0x03, W
0001DC 6EE5           02951         MOVWF   POSTDEC1
0001DE 50??           02952         MOVF    r0x08, W
gpasm-1.4.2 #1169 (Jan  2 2016) build/default   9-13-2016  14:11:57         PAGE 57


LOC    OBJECT CODE    LINE  SOURCE TEXT
  VALUE

0001E0 6EE5           02953         MOVWF   POSTDEC1
0001E2 50??           02954         MOVF    r0x07, W
0001E4 6EE5           02955         MOVWF   POSTDEC1
0001E6 50??           02956         MOVF    r0x06, W
0001E8 6EE5           02957         MOVWF   POSTDEC1
0001EA EC?? F0??      02958         CALL    _Byte_SetPair
0001EE 0E05           02959         MOVLW   0x05
0001F0 26E1           02960         ADDWF   FSR1L, F
0001F2 D???           02961         BRA     _00294_DS_
0001F4                02962 _00283_DS_:
                      02963 ;       .line   288; Port.c     else return Output;
0001F4 50??           02964         MOVF    r0x05, W
0001F6 D???           02965         BRA     _00295_DS_
0001F8                02966 _00285_DS_:
                      02967 ;       .line   291; Port.c     if ((Output = Port_CheckPairType(pInput, pPair, eHigh)) == ePinErrorNone
                            )
0001F8 0E02           02968         MOVLW   0x02
0001FA 6EE5           02969         MOVWF   POSTDEC1
0001FC 50??           02970         MOVF    r0x03, W
0001FE 6EE5           02971         MOVWF   POSTDEC1
000200 50??           02972         MOVF    r0x02, W
000202 6EE5           02973         MOVWF   POSTDEC1
000204 50??           02974         MOVF    r0x01, W
000206 6EE5           02975         MOVWF   POSTDEC1
000208 50??           02976         MOVF    r0x00, W
00020A 6EE5           02977         MOVWF   POSTDEC1
00020C EC?? F0??      02978         CALL    _Port_CheckPairType
000210 6E??           02979         MOVWF   r0x06
000212 0E05           02980         MOVLW   0x05
000214 26E1           02981         ADDWF   FSR1L, F
000216 C??? F???      02982         MOVFF   r0x06, r0x05
00021A 50??           02983         MOVF    r0x06, W
00021C A4D8           02984         BTFSS   STATUS, 2
00021E D???           02985         BRA     _00287_DS_
                      02986 ;       .line   294; Port.c     Byte_SetPair(pInput->mDirection, (UINT8)pPair, 0b11);
000220 50??           02987         MOVF    r0x00, W
000222 0F03           02988         ADDLW   0x03
000224 6E??           02989         MOVWF   r0x06
000226 0E00           02990         MOVLW   0x00
000228 20??           02991         ADDWFC  r0x01, W
00022A 6E??           02992         MOVWF   r0x07
00022C 0E00           02993         MOVLW   0x00
00022E 20??           02994         ADDWFC  r0x02, W
000230 6E??           02995         MOVWF   r0x08
000232 C??? F???      02996         MOVFF   r0x06, FSR0L
000236 C??? F???      02997         MOVFF   r0x07, PRODL
00023A 50??           02998         MOVF    r0x08, W
00023C EC?? F0??      02999         CALL    __gptrget3
000240 6E??           03000         MOVWF   r0x06
000242 CFF3 F000      03001         MOVFF   PRODL, r0x07
000246 CFF4 F000      03002         MOVFF   PRODH, r0x08
00024A 0E03           03003         MOVLW   0x03
00024C 6EE5           03004         MOVWF   POSTDEC1
gpasm-1.4.2 #1169 (Jan  2 2016) build/default   9-13-2016  14:11:57         PAGE 58


LOC    OBJECT CODE    LINE  SOURCE TEXT
  VALUE

00024E 50??           03005         MOVF    r0x03, W
000250 6EE5           03006         MOVWF   POSTDEC1
000252 50??           03007         MOVF    r0x08, W
000254 6EE5           03008         MOVWF   POSTDEC1
000256 50??           03009         MOVF    r0x07, W
000258 6EE5           03010         MOVWF   POSTDEC1
00025A 50??           03011         MOVF    r0x06, W
00025C 6EE5           03012         MOVWF   POSTDEC1
00025E EC?? F0??      03013         CALL    _Byte_SetPair
000262 0E05           03014         MOVLW   0x05
000264 26E1           03015         ADDWF   FSR1L, F
                      03016 ;       .line   297; Port.c     Byte_SetPair(pInput->mOutput, (UINT8)pPair, 0b11);
000266 50??           03017         MOVF    r0x00, W
000268 0F06           03018         ADDLW   0x06
00026A 6E??           03019         MOVWF   r0x06
00026C 0E00           03020         MOVLW   0x00
00026E 20??           03021         ADDWFC  r0x01, W
000270 6E??           03022         MOVWF   r0x07
000272 0E00           03023         MOVLW   0x00
000274 20??           03024         ADDWFC  r0x02, W
000276 6E??           03025         MOVWF   r0x08
000278 C??? F???      03026         MOVFF   r0x06, FSR0L
00027C C??? F???      03027         MOVFF   r0x07, PRODL
000280 50??           03028         MOVF    r0x08, W
000282 EC?? F0??      03029         CALL    __gptrget3
000286 6E??           03030         MOVWF   r0x06
000288 CFF3 F000      03031         MOVFF   PRODL, r0x07
00028C CFF4 F000      03032         MOVFF   PRODH, r0x08
000290 0E03           03033         MOVLW   0x03
000292 6EE5           03034         MOVWF   POSTDEC1
000294 50??           03035         MOVF    r0x03, W
000296 6EE5           03036         MOVWF   POSTDEC1
000298 50??           03037         MOVF    r0x08, W
00029A 6EE5           03038         MOVWF   POSTDEC1
00029C 50??           03039         MOVF    r0x07, W
00029E 6EE5           03040         MOVWF   POSTDEC1
0002A0 50??           03041         MOVF    r0x06, W
0002A2 6EE5           03042         MOVWF   POSTDEC1
0002A4 EC?? F0??      03043         CALL    _Byte_SetPair
0002A8 0E05           03044         MOVLW   0x05
0002AA 26E1           03045         ADDWF   FSR1L, F
0002AC D???           03046         BRA     _00294_DS_
0002AE                03047 _00287_DS_:
                      03048 ;       .line   299; Port.c     else return Output;
0002AE 50??           03049         MOVF    r0x05, W
0002B0 D???           03050         BRA     _00295_DS_
0002B2                03051 _00289_DS_:
                      03052 ;       .line   302; Port.c     if ((Output = Port_CheckPairType(pInput, pPair, eHL)) == ePinErrorNone)
0002B2 0E00           03053         MOVLW   0x00
0002B4 6EE5           03054         MOVWF   POSTDEC1
0002B6 50??           03055         MOVF    r0x03, W
0002B8 6EE5           03056         MOVWF   POSTDEC1
0002BA 50??           03057         MOVF    r0x02, W
gpasm-1.4.2 #1169 (Jan  2 2016) build/default   9-13-2016  14:11:57         PAGE 59


LOC    OBJECT CODE    LINE  SOURCE TEXT
  VALUE

0002BC 6EE5           03058         MOVWF   POSTDEC1
0002BE 50??           03059         MOVF    r0x01, W
0002C0 6EE5           03060         MOVWF   POSTDEC1
0002C2 50??           03061         MOVF    r0x00, W
0002C4 6EE5           03062         MOVWF   POSTDEC1
0002C6 EC?? F0??      03063         CALL    _Port_CheckPairType
0002CA 6E??           03064         MOVWF   r0x06
0002CC 0E05           03065         MOVLW   0x05
0002CE 26E1           03066         ADDWF   FSR1L, F
0002D0 C??? F???      03067         MOVFF   r0x06, r0x05
0002D4 50??           03068         MOVF    r0x06, W
0002D6 A4D8           03069         BTFSS   STATUS, 2
0002D8 D???           03070         BRA     _00291_DS_
                      03071 ;       .line   305; Port.c     Byte_SetPair(pInput->mDirection, (UINT8)pPair, 0b00);
0002DA 50??           03072         MOVF    r0x00, W
0002DC 0F03           03073         ADDLW   0x03
0002DE 6E??           03074         MOVWF   r0x06
0002E0 0E00           03075         MOVLW   0x00
0002E2 20??           03076         ADDWFC  r0x01, W
0002E4 6E??           03077         MOVWF   r0x07
0002E6 0E00           03078         MOVLW   0x00
0002E8 20??           03079         ADDWFC  r0x02, W
0002EA 6E??           03080         MOVWF   r0x08
0002EC C??? F???      03081         MOVFF   r0x06, FSR0L
0002F0 C??? F???      03082         MOVFF   r0x07, PRODL
0002F4 50??           03083         MOVF    r0x08, W
0002F6 EC?? F0??      03084         CALL    __gptrget3
0002FA 6E??           03085         MOVWF   r0x06
0002FC CFF3 F000      03086         MOVFF   PRODL, r0x07
000300 CFF4 F000      03087         MOVFF   PRODH, r0x08
000304 0E00           03088         MOVLW   0x00
000306 6EE5           03089         MOVWF   POSTDEC1
000308 50??           03090         MOVF    r0x03, W
00030A 6EE5           03091         MOVWF   POSTDEC1
00030C 50??           03092         MOVF    r0x08, W
00030E 6EE5           03093         MOVWF   POSTDEC1
000310 50??           03094         MOVF    r0x07, W
000312 6EE5           03095         MOVWF   POSTDEC1
000314 50??           03096         MOVF    r0x06, W
000316 6EE5           03097         MOVWF   POSTDEC1
000318 EC?? F0??      03098         CALL    _Byte_SetPair
00031C 0E05           03099         MOVLW   0x05
00031E 26E1           03100         ADDWF   FSR1L, F
                      03101 ;       .line   308; Port.c     Byte_SetPair(pInput->mOutput, (UINT8)pPair, 0b00);
000320 50??           03102         MOVF    r0x00, W
000322 0F06           03103         ADDLW   0x06
000324 6E??           03104         MOVWF   r0x06
000326 0E00           03105         MOVLW   0x00
000328 20??           03106         ADDWFC  r0x01, W
00032A 6E??           03107         MOVWF   r0x07
00032C 0E00           03108         MOVLW   0x00
00032E 20??           03109         ADDWFC  r0x02, W
000330 6E??           03110         MOVWF   r0x08
gpasm-1.4.2 #1169 (Jan  2 2016) build/default   9-13-2016  14:11:57         PAGE 60


LOC    OBJECT CODE    LINE  SOURCE TEXT
  VALUE

000332 C??? F???      03111         MOVFF   r0x06, FSR0L
000336 C??? F???      03112         MOVFF   r0x07, PRODL
00033A 50??           03113         MOVF    r0x08, W
00033C EC?? F0??      03114         CALL    __gptrget3
000340 6E??           03115         MOVWF   r0x06
000342 CFF3 F000      03116         MOVFF   PRODL, r0x07
000346 CFF4 F000      03117         MOVFF   PRODH, r0x08
00034A 0E00           03118         MOVLW   0x00
00034C 6EE5           03119         MOVWF   POSTDEC1
00034E 50??           03120         MOVF    r0x03, W
000350 6EE5           03121         MOVWF   POSTDEC1
000352 50??           03122         MOVF    r0x08, W
000354 6EE5           03123         MOVWF   POSTDEC1
000356 50??           03124         MOVF    r0x07, W
000358 6EE5           03125         MOVWF   POSTDEC1
00035A 50??           03126         MOVF    r0x06, W
00035C 6EE5           03127         MOVWF   POSTDEC1
00035E EC?? F0??      03128         CALL    _Byte_SetPair
000362 0E05           03129         MOVLW   0x05
000364 26E1           03130         ADDWF   FSR1L, F
000366 D???           03131         BRA     _00294_DS_
000368                03132 _00291_DS_:
                      03133 ;       .line   310; Port.c     else return Output;
000368 50??           03134         MOVF    r0x05, W
00036A D???           03135         BRA     _00295_DS_
00036C                03136 _00294_DS_:
                      03137 ;       .line   317; Port.c     Word_SetPair(&pInput->mType, (UINT8)pPair * 2,          (UINT8)pType);
00036C 50??           03138         MOVF    r0x00, W
00036E 0F0C           03139         ADDLW   0x0c
000370 6E??           03140         MOVWF   r0x06
000372 0E00           03141         MOVLW   0x00
000374 20??           03142         ADDWFC  r0x01, W
000376 6E??           03143         MOVWF   r0x07
000378 0E00           03144         MOVLW   0x00
00037A 20??           03145         ADDWFC  r0x02, W
00037C 6E??           03146         MOVWF   r0x08
                      03147 ; ;multiply lit val:0x02 by variable r0x03 and store in r0x03
00037E 50??           03148         MOVF    r0x03, W
000380 0D02           03149         MULLW   0x02
000382 CFF3 F000      03150         MOVFF   PRODL, r0x03
000386 50??           03151         MOVF    r0x04, W
000388 6EE5           03152         MOVWF   POSTDEC1
00038A 50??           03153         MOVF    r0x03, W
00038C 6EE5           03154         MOVWF   POSTDEC1
00038E 50??           03155         MOVF    r0x08, W
000390 6EE5           03156         MOVWF   POSTDEC1
000392 50??           03157         MOVF    r0x07, W
000394 6EE5           03158         MOVWF   POSTDEC1
000396 50??           03159         MOVF    r0x06, W
000398 6EE5           03160         MOVWF   POSTDEC1
00039A EC?? F0??      03161         CALL    _Word_SetPair
00039E 0E05           03162         MOVLW   0x05
0003A0 26E1           03163         ADDWF   FSR1L, F
gpasm-1.4.2 #1169 (Jan  2 2016) build/default   9-13-2016  14:11:57         PAGE 61


LOC    OBJECT CODE    LINE  SOURCE TEXT
  VALUE

                      03164 ;       .line   318; Port.c     Word_SetPair(&pInput->mType, (UINT8)pPair * 2 + 1,      (UINT8)pType);
0003A2 0E0C           03165         MOVLW   0x0c
0003A4 26??           03166         ADDWF   r0x00, F
0003A6 0E00           03167         MOVLW   0x00
0003A8 22??           03168         ADDWFC  r0x01, F
0003AA 22??           03169         ADDWFC  r0x02, F
0003AC 2A??           03170         INCF    r0x03, F
0003AE 50??           03171         MOVF    r0x04, W
0003B0 6EE5           03172         MOVWF   POSTDEC1
0003B2 50??           03173         MOVF    r0x03, W
0003B4 6EE5           03174         MOVWF   POSTDEC1
0003B6 50??           03175         MOVF    r0x02, W
0003B8 6EE5           03176         MOVWF   POSTDEC1
0003BA 50??           03177         MOVF    r0x01, W
0003BC 6EE5           03178         MOVWF   POSTDEC1
0003BE 50??           03179         MOVF    r0x00, W
0003C0 6EE5           03180         MOVWF   POSTDEC1
0003C2 EC?? F0??      03181         CALL    _Word_SetPair
0003C6 0E05           03182         MOVLW   0x05
0003C8 26E1           03183         ADDWF   FSR1L, F
                      03184 ;       .line   319; Port.c     return Output;
0003CA 50??           03185         MOVF    r0x05, W
0003CC                03186 _00295_DS_:
0003CC CFE4 F000      03187         MOVFF   PREINC1, r0x08
0003D0 CFE4 F000      03188         MOVFF   PREINC1, r0x07
0003D4 CFE4 F000      03189         MOVFF   PREINC1, r0x06
0003D8 CFE4 F000      03190         MOVFF   PREINC1, r0x05
0003DC CFE4 F000      03191         MOVFF   PREINC1, r0x04
0003E0 CFE4 F000      03192         MOVFF   PREINC1, r0x03
0003E4 CFE4 F000      03193         MOVFF   PREINC1, r0x02
0003E8 CFE4 F000      03194         MOVFF   PREINC1, r0x01
0003EC CFE4 F000      03195         MOVFF   PREINC1, r0x00
0003F0 CFE4 FFD9      03196         MOVFF   PREINC1, FSR2L
0003F4 0012           03197         RETURN  
                      03198 
                      03199 ; ; Starting pCode block
                      03200 S_Port__Port_GetPin     code
000000                03201 _Port_GetPin:
                      03202 ;       .line   254; Port.c     UINT8           Port_GetPin             (PortPtr pInput, ePin pPin)
000000 CFD9 FFE5      03203         MOVFF   FSR2L, POSTDEC1
000004 CFE1 FFD9      03204         MOVFF   FSR1L, FSR2L
000008 C??? F???      03205         MOVFF   r0x00, POSTDEC1
00000C C??? F???      03206         MOVFF   r0x01, POSTDEC1
000010 C??? F???      03207         MOVFF   r0x02, POSTDEC1
000014 C??? F???      03208         MOVFF   r0x03, POSTDEC1
000018 0E02           03209         MOVLW   0x02
00001A CFDB F000      03210         MOVFF   PLUSW2, r0x00
00001E 0E03           03211         MOVLW   0x03
000020 CFDB F000      03212         MOVFF   PLUSW2, r0x01
000024 0E04           03213         MOVLW   0x04
000026 CFDB F000      03214         MOVFF   PLUSW2, r0x02
00002A 0E05           03215         MOVLW   0x05
00002C CFDB F000      03216         MOVFF   PLUSW2, r0x03
gpasm-1.4.2 #1169 (Jan  2 2016) build/default   9-13-2016  14:11:57         PAGE 62


LOC    OBJECT CODE    LINE  SOURCE TEXT
  VALUE

                      03217 ;       .line   256; Port.c     UINT8 Output = pInput->mInput->mBits;
000030 0E09           03218         MOVLW   0x09
000032 26??           03219         ADDWF   r0x00, F
000034 0E00           03220         MOVLW   0x00
000036 22??           03221         ADDWFC  r0x01, F
000038 22??           03222         ADDWFC  r0x02, F
00003A C??? F???      03223         MOVFF   r0x00, FSR0L
00003E C??? F???      03224         MOVFF   r0x01, PRODL
000042 50??           03225         MOVF    r0x02, W
000044 EC?? F0??      03226         CALL    __gptrget3
000048 6E??           03227         MOVWF   r0x00
00004A CFF3 F000      03228         MOVFF   PRODL, r0x01
00004E CFF4 F000      03229         MOVFF   PRODH, r0x02
000052 C??? F???      03230         MOVFF   r0x00, FSR0L
000056 C??? F???      03231         MOVFF   r0x01, PRODL
00005A 50??           03232         MOVF    r0x02, W
00005C EC?? F0??      03233         CALL    __gptrget1
000060 0BFF           03234         ANDLW   0xff
000062 6E??           03235         MOVWF   r0x00
                      03236 ;       .line   257; Port.c     Output >>= (UINT8)pPin;
000064 50??           03237         MOVF    r0x03, W
000066 E0??           03238         BZ      _00271_DS_
000068 6CE8           03239         NEGF    WREG
00006A 90D8           03240         BCF     STATUS, 0
00006C                03241 _00272_DS_:
00006C 32??           03242         RRCF    r0x00, F
00006E 0F01           03243         ADDLW   0x01
000070 E3??           03244         BNC     _00272_DS_
000072                03245 _00271_DS_:
                      03246 ;       .line   258; Port.c     Output &= 0b1;
000072 0E01           03247         MOVLW   0x01
000074 16??           03248         ANDWF   r0x00, F
                      03249 ;       .line   259; Port.c     return Output;
000076 50??           03250         MOVF    r0x00, W
000078 CFE4 F000      03251         MOVFF   PREINC1, r0x03
00007C CFE4 F000      03252         MOVFF   PREINC1, r0x02
000080 CFE4 F000      03253         MOVFF   PREINC1, r0x01
000084 CFE4 F000      03254         MOVFF   PREINC1, r0x00
000088 CFE4 FFD9      03255         MOVFF   PREINC1, FSR2L
00008C 0012           03256         RETURN  
                      03257 
                      03258 ; ; Starting pCode block
                      03259 S_Port__Port_SetPin     code
000000                03260 _Port_SetPin:
                      03261 ;       .line   228; Port.c     void            Port_SetPin             (PortPtr pInput, ePin pPin, UINT
                            8 pValue)
000000 CFD9 FFE5      03262         MOVFF   FSR2L, POSTDEC1
000004 CFE1 FFD9      03263         MOVFF   FSR1L, FSR2L
000008 C??? F???      03264         MOVFF   r0x00, POSTDEC1
00000C C??? F???      03265         MOVFF   r0x01, POSTDEC1
000010 C??? F???      03266         MOVFF   r0x02, POSTDEC1
000014 C??? F???      03267         MOVFF   r0x03, POSTDEC1
000018 C??? F???      03268         MOVFF   r0x04, POSTDEC1
gpasm-1.4.2 #1169 (Jan  2 2016) build/default   9-13-2016  14:11:57         PAGE 63


LOC    OBJECT CODE    LINE  SOURCE TEXT
  VALUE

00001C C??? F???      03269         MOVFF   r0x05, POSTDEC1
000020 C??? F???      03270         MOVFF   r0x06, POSTDEC1
000024 C??? F???      03271         MOVFF   r0x07, POSTDEC1
000028 0E02           03272         MOVLW   0x02
00002A CFDB F000      03273         MOVFF   PLUSW2, r0x00
00002E 0E03           03274         MOVLW   0x03
000030 CFDB F000      03275         MOVFF   PLUSW2, r0x01
000034 0E04           03276         MOVLW   0x04
000036 CFDB F000      03277         MOVFF   PLUSW2, r0x02
00003A 0E05           03278         MOVLW   0x05
00003C CFDB F000      03279         MOVFF   PLUSW2, r0x03
000040 0E06           03280         MOVLW   0x06
000042 CFDB F000      03281         MOVFF   PLUSW2, r0x04
                      03282 ;       .line   230; Port.c     ePinType Type = (ePinType)Word_GetPair(&pInput->mType, (UINT8)pPin);
000046 50??           03283         MOVF    r0x00, W
000048 0F0C           03284         ADDLW   0x0c
00004A 6E??           03285         MOVWF   r0x05
00004C 0E00           03286         MOVLW   0x00
00004E 20??           03287         ADDWFC  r0x01, W
000050 6E??           03288         MOVWF   r0x06
000052 0E00           03289         MOVLW   0x00
000054 20??           03290         ADDWFC  r0x02, W
000056 6E??           03291         MOVWF   r0x07
000058 50??           03292         MOVF    r0x03, W
00005A 6EE5           03293         MOVWF   POSTDEC1
00005C 50??           03294         MOVF    r0x07, W
00005E 6EE5           03295         MOVWF   POSTDEC1
000060 50??           03296         MOVF    r0x06, W
000062 6EE5           03297         MOVWF   POSTDEC1
000064 50??           03298         MOVF    r0x05, W
000066 6EE5           03299         MOVWF   POSTDEC1
000068 EC?? F0??      03300         CALL    _Word_GetPair
00006C 6E??           03301         MOVWF   r0x05
00006E 0E04           03302         MOVLW   0x04
000070 26E1           03303         ADDWF   FSR1L, F
                      03304 ;       .line   231; Port.c     switch (Type)
000072 0E04           03305         MOVLW   0x04
000074 5C??           03306         SUBWF   r0x05, W
000076 B0D8           03307         BTFSC   STATUS, 0
000078 D???           03308         BRA     _00258_DS_
00007A 6AFA           03309         CLRF    PCLATH
00007C 6AFB           03310         CLRF    PCLATU
00007E 34??           03311         RLCF    r0x05, W
000080 36FA           03312         RLCF    PCLATH, F
000082 34E8           03313         RLCF    WREG, W
000084 36FA           03314         RLCF    PCLATH, F
000086 0BFC           03315         ANDLW   0xfc
000088 0F??           03316         ADDLW   LOW(_00264_DS_)
00008A 6EE5           03317         MOVWF   POSTDEC1
00008C 0E??           03318         MOVLW   HIGH(_00264_DS_)
00008E 22FA           03319         ADDWFC  PCLATH, F
000090 0E??           03320         MOVLW   UPPER(_00264_DS_)
000092 22FB           03321         ADDWFC  PCLATU, F
gpasm-1.4.2 #1169 (Jan  2 2016) build/default   9-13-2016  14:11:57         PAGE 64


LOC    OBJECT CODE    LINE  SOURCE TEXT
  VALUE

000094 50E4           03322         MOVF    PREINC1, W
000096 6EF9           03323         MOVWF   PCL
000098                03324 _00264_DS_:
000098 EF?? F0??      03325         GOTO    _00252_DS_
00009C EF?? F0??      03326         GOTO    _00253_DS_
0000A0 EF?? F0??      03327         GOTO    _00254_DS_
0000A4 EF?? F0??      03328         GOTO    _00255_DS_
0000A8                03329 _00252_DS_:
                      03330 ;       .line   234; Port.c     return;
0000A8 D???           03331         BRA     _00258_DS_
0000AA                03332 _00253_DS_:
                      03333 ;       .line   237; Port.c     pValue &= 1;
0000AA 0E01           03334         MOVLW   0x01
0000AC 16??           03335         ANDWF   r0x04, F
                      03336 ;       .line   238; Port.c     Byte_SetBit(pInput->mDirection, pPin, pValue);
0000AE 50??           03337         MOVF    r0x00, W
0000B0 0F03           03338         ADDLW   0x03
0000B2 6E??           03339         MOVWF   r0x05
0000B4 0E00           03340         MOVLW   0x00
0000B6 20??           03341         ADDWFC  r0x01, W
0000B8 6E??           03342         MOVWF   r0x06
0000BA 0E00           03343         MOVLW   0x00
0000BC 20??           03344         ADDWFC  r0x02, W
0000BE 6E??           03345         MOVWF   r0x07
0000C0 C??? F???      03346         MOVFF   r0x05, FSR0L
0000C4 C??? F???      03347         MOVFF   r0x06, PRODL
0000C8 50??           03348         MOVF    r0x07, W
0000CA EC?? F0??      03349         CALL    __gptrget3
0000CE 6E??           03350         MOVWF   r0x05
0000D0 CFF3 F000      03351         MOVFF   PRODL, r0x06
0000D4 CFF4 F000      03352         MOVFF   PRODH, r0x07
0000D8 50??           03353         MOVF    r0x04, W
0000DA 6EE5           03354         MOVWF   POSTDEC1
0000DC 50??           03355         MOVF    r0x03, W
0000DE 6EE5           03356         MOVWF   POSTDEC1
0000E0 50??           03357         MOVF    r0x07, W
0000E2 6EE5           03358         MOVWF   POSTDEC1
0000E4 50??           03359         MOVF    r0x06, W
0000E6 6EE5           03360         MOVWF   POSTDEC1
0000E8 50??           03361         MOVF    r0x05, W
0000EA 6EE5           03362         MOVWF   POSTDEC1
0000EC EC?? F0??      03363         CALL    _Byte_SetBit
0000F0 0E05           03364         MOVLW   0x05
0000F2 26E1           03365         ADDWF   FSR1L, F
                      03366 ;       .line   239; Port.c     break;
0000F4 D???           03367         BRA     _00258_DS_
0000F6                03368 _00254_DS_:
                      03369 ;       .line   242; Port.c     pValue = ~pValue;
0000F6 1E??           03370         COMF    r0x04, F
                      03371 ;       .line   243; Port.c     pValue &= 1;
0000F8 0E01           03372         MOVLW   0x01
0000FA 16??           03373         ANDWF   r0x04, F
                      03374 ;       .line   244; Port.c     Byte_SetBit(pInput->mDirection, pPin, pValue);
gpasm-1.4.2 #1169 (Jan  2 2016) build/default   9-13-2016  14:11:57         PAGE 65


LOC    OBJECT CODE    LINE  SOURCE TEXT
  VALUE

0000FC 50??           03375         MOVF    r0x00, W
0000FE 0F03           03376         ADDLW   0x03
000100 6E??           03377         MOVWF   r0x05
000102 0E00           03378         MOVLW   0x00
000104 20??           03379         ADDWFC  r0x01, W
000106 6E??           03380         MOVWF   r0x06
000108 0E00           03381         MOVLW   0x00
00010A 20??           03382         ADDWFC  r0x02, W
00010C 6E??           03383         MOVWF   r0x07
00010E C??? F???      03384         MOVFF   r0x05, FSR0L
000112 C??? F???      03385         MOVFF   r0x06, PRODL
000116 50??           03386         MOVF    r0x07, W
000118 EC?? F0??      03387         CALL    __gptrget3
00011C 6E??           03388         MOVWF   r0x05
00011E CFF3 F000      03389         MOVFF   PRODL, r0x06
000122 CFF4 F000      03390         MOVFF   PRODH, r0x07
000126 50??           03391         MOVF    r0x04, W
000128 6EE5           03392         MOVWF   POSTDEC1
00012A 50??           03393         MOVF    r0x03, W
00012C 6EE5           03394         MOVWF   POSTDEC1
00012E 50??           03395         MOVF    r0x07, W
000130 6EE5           03396         MOVWF   POSTDEC1
000132 50??           03397         MOVF    r0x06, W
000134 6EE5           03398         MOVWF   POSTDEC1
000136 50??           03399         MOVF    r0x05, W
000138 6EE5           03400         MOVWF   POSTDEC1
00013A EC?? F0??      03401         CALL    _Byte_SetBit
00013E 0E05           03402         MOVLW   0x05
000140 26E1           03403         ADDWF   FSR1L, F
                      03404 ;       .line   245; Port.c     break;
000142 D???           03405         BRA     _00258_DS_
000144                03406 _00255_DS_:
                      03407 ;       .line   247; Port.c     pValue &= 1;
000144 0E01           03408         MOVLW   0x01
000146 16??           03409         ANDWF   r0x04, F
                      03410 ;       .line   248; Port.c     Byte_SetBit(pInput->mDirection, pPin, pValue);
000148 0E03           03411         MOVLW   0x03
00014A 26??           03412         ADDWF   r0x00, F
00014C 0E00           03413         MOVLW   0x00
00014E 22??           03414         ADDWFC  r0x01, F
000150 22??           03415         ADDWFC  r0x02, F
000152 C??? F???      03416         MOVFF   r0x00, FSR0L
000156 C??? F???      03417         MOVFF   r0x01, PRODL
00015A 50??           03418         MOVF    r0x02, W
00015C EC?? F0??      03419         CALL    __gptrget3
000160 6E??           03420         MOVWF   r0x00
000162 CFF3 F000      03421         MOVFF   PRODL, r0x01
000166 CFF4 F000      03422         MOVFF   PRODH, r0x02
00016A 50??           03423         MOVF    r0x04, W
00016C 6EE5           03424         MOVWF   POSTDEC1
00016E 50??           03425         MOVF    r0x03, W
000170 6EE5           03426         MOVWF   POSTDEC1
000172 50??           03427         MOVF    r0x02, W
gpasm-1.4.2 #1169 (Jan  2 2016) build/default   9-13-2016  14:11:57         PAGE 66


LOC    OBJECT CODE    LINE  SOURCE TEXT
  VALUE

000174 6EE5           03428         MOVWF   POSTDEC1
000176 50??           03429         MOVF    r0x01, W
000178 6EE5           03430         MOVWF   POSTDEC1
00017A 50??           03431         MOVF    r0x00, W
00017C 6EE5           03432         MOVWF   POSTDEC1
00017E EC?? F0??      03433         CALL    _Byte_SetBit
000182 0E05           03434         MOVLW   0x05
000184 26E1           03435         ADDWF   FSR1L, F
000186                03436 _00258_DS_:
                      03437 ;       .line   252; Port.c     }
000186 CFE4 F000      03438         MOVFF   PREINC1, r0x07
00018A CFE4 F000      03439         MOVFF   PREINC1, r0x06
00018E CFE4 F000      03440         MOVFF   PREINC1, r0x05
000192 CFE4 F000      03441         MOVFF   PREINC1, r0x04
000196 CFE4 F000      03442         MOVFF   PREINC1, r0x03
00019A CFE4 F000      03443         MOVFF   PREINC1, r0x02
00019E CFE4 F000      03444         MOVFF   PREINC1, r0x01
0001A2 CFE4 F000      03445         MOVFF   PREINC1, r0x00
0001A6 CFE4 FFD9      03446         MOVFF   PREINC1, FSR2L
0001AA 0012           03447         RETURN  
                      03448 
                      03449 ; ; Starting pCode block
                      03450 S_Port__Port_SetPinType code
000000                03451 _Port_SetPinType:
                      03452 ;       .line   168; Port.c     ePinError       Port_SetPinType (PortPtr pInput, ePin pPin, ePinType pTy
                            pe)
000000 CFD9 FFE5      03453         MOVFF   FSR2L, POSTDEC1
000004 CFE1 FFD9      03454         MOVFF   FSR1L, FSR2L
000008 C??? F???      03455         MOVFF   r0x00, POSTDEC1
00000C C??? F???      03456         MOVFF   r0x01, POSTDEC1
000010 C??? F???      03457         MOVFF   r0x02, POSTDEC1
000014 C??? F???      03458         MOVFF   r0x03, POSTDEC1
000018 C??? F???      03459         MOVFF   r0x04, POSTDEC1
00001C C??? F???      03460         MOVFF   r0x05, POSTDEC1
000020 C??? F???      03461         MOVFF   r0x06, POSTDEC1
000024 C??? F???      03462         MOVFF   r0x07, POSTDEC1
000028 C??? F???      03463         MOVFF   r0x08, POSTDEC1
00002C C??? F???      03464         MOVFF   r0x09, POSTDEC1
000030 C??? F???      03465         MOVFF   r0x0a, POSTDEC1
000034 C??? F???      03466         MOVFF   r0x0b, POSTDEC1
000038 0E02           03467         MOVLW   0x02
00003A CFDB F000      03468         MOVFF   PLUSW2, r0x00
00003E 0E03           03469         MOVLW   0x03
000040 CFDB F000      03470         MOVFF   PLUSW2, r0x01
000044 0E04           03471         MOVLW   0x04
000046 CFDB F000      03472         MOVFF   PLUSW2, r0x02
00004A 0E05           03473         MOVLW   0x05
00004C CFDB F000      03474         MOVFF   PLUSW2, r0x03
000050 0E06           03475         MOVLW   0x06
000052 CFDB F000      03476         MOVFF   PLUSW2, r0x04
                      03477 ;       .line   170; Port.c     PortProperty* Props = (PortProperty*)&(pInput->mProperties->mWord);
000056 C??? F???      03478         MOVFF   r0x00, FSR0L
00005A C??? F???      03479         MOVFF   r0x01, PRODL
gpasm-1.4.2 #1169 (Jan  2 2016) build/default   9-13-2016  14:11:57         PAGE 67


LOC    OBJECT CODE    LINE  SOURCE TEXT
  VALUE

00005E 50??           03480         MOVF    r0x02, W
000060 EC?? F0??      03481         CALL    __gptrget3
000064 6E??           03482         MOVWF   r0x05
000066 CFF3 F000      03483         MOVFF   PRODL, r0x06
00006A CFF4 F000      03484         MOVFF   PRODH, r0x07
00006E 50??           03485         MOVF    r0x07, W
000070 6E??           03486         MOVWF   r0x07
000072 50??           03487         MOVF    r0x06, W
000074 6E??           03488         MOVWF   r0x06
000076 50??           03489         MOVF    r0x05, W
000078 6E??           03490         MOVWF   r0x05
                      03491 ;       .line   171; Port.c     ePinError Output = ePinErrorState;
00007A 0E05           03492         MOVLW   0x05
00007C 6E??           03493         MOVWF   r0x08
                      03494 ;       .line   173; Port.c     switch (pType)
00007E 0E04           03495         MOVLW   0x04
000080 5C??           03496         SUBWF   r0x04, W
000082 B0D8           03497         BTFSC   STATUS, 0
000084 D???           03498         BRA     _00228_DS_
000086 6AFA           03499         CLRF    PCLATH
000088 6AFB           03500         CLRF    PCLATU
00008A 34??           03501         RLCF    r0x04, W
00008C 36FA           03502         RLCF    PCLATH, F
00008E 34E8           03503         RLCF    WREG, W
000090 36FA           03504         RLCF    PCLATH, F
000092 0BFC           03505         ANDLW   0xfc
000094 0F??           03506         ADDLW   LOW(_00247_DS_)
000096 6EE5           03507         MOVWF   POSTDEC1
000098 0E??           03508         MOVLW   HIGH(_00247_DS_)
00009A 22FA           03509         ADDWFC  PCLATH, F
00009C 0E??           03510         MOVLW   UPPER(_00247_DS_)
00009E 22FB           03511         ADDWFC  PCLATU, F
0000A0 50E4           03512         MOVF    PREINC1, W
0000A2 6EF9           03513         MOVWF   PCL
0000A4                03514 _00247_DS_:
0000A4 EF?? F0??      03515         GOTO    _00211_DS_
0000A8 EF?? F0??      03516         GOTO    _00215_DS_
0000AC EF?? F0??      03517         GOTO    _00219_DS_
0000B0 EF?? F0??      03518         GOTO    _00223_DS_
0000B4                03519 _00211_DS_:
                      03520 ;       .line   176; Port.c     if ((Output = PortProperty_Valid(Props, eLow, pPin)) == ePinErrorNone)
0000B4 50??           03521         MOVF    r0x03, W
0000B6 6EE5           03522         MOVWF   POSTDEC1
0000B8 0E01           03523         MOVLW   0x01
0000BA 6EE5           03524         MOVWF   POSTDEC1
0000BC 50??           03525         MOVF    r0x07, W
0000BE 6EE5           03526         MOVWF   POSTDEC1
0000C0 50??           03527         MOVF    r0x06, W
0000C2 6EE5           03528         MOVWF   POSTDEC1
0000C4 50??           03529         MOVF    r0x05, W
0000C6 6EE5           03530         MOVWF   POSTDEC1
0000C8 EC?? F0??      03531         CALL    _PortProperty_Valid
0000CC 6E??           03532         MOVWF   r0x09
gpasm-1.4.2 #1169 (Jan  2 2016) build/default   9-13-2016  14:11:57         PAGE 68


LOC    OBJECT CODE    LINE  SOURCE TEXT
  VALUE

0000CE 0E05           03533         MOVLW   0x05
0000D0 26E1           03534         ADDWF   FSR1L, F
0000D2 C??? F???      03535         MOVFF   r0x09, r0x08
0000D6 50??           03536         MOVF    r0x09, W
0000D8 A4D8           03537         BTFSS   STATUS, 2
0000DA D???           03538         BRA     _00213_DS_
                      03539 ;       .line   179; Port.c     Byte_SetBit(pInput->mDirection, (UINT8)pPin, 1);
0000DC 50??           03540         MOVF    r0x00, W
0000DE 0F03           03541         ADDLW   0x03
0000E0 6E??           03542         MOVWF   r0x09
0000E2 0E00           03543         MOVLW   0x00
0000E4 20??           03544         ADDWFC  r0x01, W
0000E6 6E??           03545         MOVWF   r0x0a
0000E8 0E00           03546         MOVLW   0x00
0000EA 20??           03547         ADDWFC  r0x02, W
0000EC 6E??           03548         MOVWF   r0x0b
0000EE C??? F???      03549         MOVFF   r0x09, FSR0L
0000F2 C??? F???      03550         MOVFF   r0x0a, PRODL
0000F6 50??           03551         MOVF    r0x0b, W
0000F8 EC?? F0??      03552         CALL    __gptrget3
0000FC 6E??           03553         MOVWF   r0x09
0000FE CFF3 F000      03554         MOVFF   PRODL, r0x0a
000102 CFF4 F000      03555         MOVFF   PRODH, r0x0b
000106 0E01           03556         MOVLW   0x01
000108 6EE5           03557         MOVWF   POSTDEC1
00010A 50??           03558         MOVF    r0x03, W
00010C 6EE5           03559         MOVWF   POSTDEC1
00010E 50??           03560         MOVF    r0x0b, W
000110 6EE5           03561         MOVWF   POSTDEC1
000112 50??           03562         MOVF    r0x0a, W
000114 6EE5           03563         MOVWF   POSTDEC1
000116 50??           03564         MOVF    r0x09, W
000118 6EE5           03565         MOVWF   POSTDEC1
00011A EC?? F0??      03566         CALL    _Byte_SetBit
00011E 0E05           03567         MOVLW   0x05
000120 26E1           03568         ADDWF   FSR1L, F
                      03569 ;       .line   182; Port.c     Byte_SetBit(pInput->mOutput, (UINT8)pPin, 0);
000122 50??           03570         MOVF    r0x00, W
000124 0F06           03571         ADDLW   0x06
000126 6E??           03572         MOVWF   r0x09
000128 0E00           03573         MOVLW   0x00
00012A 20??           03574         ADDWFC  r0x01, W
00012C 6E??           03575         MOVWF   r0x0a
00012E 0E00           03576         MOVLW   0x00
000130 20??           03577         ADDWFC  r0x02, W
000132 6E??           03578         MOVWF   r0x0b
000134 C??? F???      03579         MOVFF   r0x09, FSR0L
000138 C??? F???      03580         MOVFF   r0x0a, PRODL
00013C 50??           03581         MOVF    r0x0b, W
00013E EC?? F0??      03582         CALL    __gptrget3
000142 6E??           03583         MOVWF   r0x09
000144 CFF3 F000      03584         MOVFF   PRODL, r0x0a
000148 CFF4 F000      03585         MOVFF   PRODH, r0x0b
gpasm-1.4.2 #1169 (Jan  2 2016) build/default   9-13-2016  14:11:57         PAGE 69


LOC    OBJECT CODE    LINE  SOURCE TEXT
  VALUE

00014C 0E00           03586         MOVLW   0x00
00014E 6EE5           03587         MOVWF   POSTDEC1
000150 50??           03588         MOVF    r0x03, W
000152 6EE5           03589         MOVWF   POSTDEC1
000154 50??           03590         MOVF    r0x0b, W
000156 6EE5           03591         MOVWF   POSTDEC1
000158 50??           03592         MOVF    r0x0a, W
00015A 6EE5           03593         MOVWF   POSTDEC1
00015C 50??           03594         MOVF    r0x09, W
00015E 6EE5           03595         MOVWF   POSTDEC1
000160 EC?? F0??      03596         CALL    _Byte_SetBit
000164 0E05           03597         MOVLW   0x05
000166 26E1           03598         ADDWF   FSR1L, F
000168 D???           03599         BRA     _00228_DS_
00016A                03600 _00213_DS_:
                      03601 ;       .line   184; Port.c     else return Output;
00016A 50??           03602         MOVF    r0x08, W
00016C D???           03603         BRA     _00229_DS_
00016E                03604 _00215_DS_:
                      03605 ;       .line   187; Port.c     if ((Output = PortProperty_Valid(Props, eLow, pPin)) == ePinErrorNone)
00016E 50??           03606         MOVF    r0x03, W
000170 6EE5           03607         MOVWF   POSTDEC1
000172 0E01           03608         MOVLW   0x01
000174 6EE5           03609         MOVWF   POSTDEC1
000176 50??           03610         MOVF    r0x07, W
000178 6EE5           03611         MOVWF   POSTDEC1
00017A 50??           03612         MOVF    r0x06, W
00017C 6EE5           03613         MOVWF   POSTDEC1
00017E 50??           03614         MOVF    r0x05, W
000180 6EE5           03615         MOVWF   POSTDEC1
000182 EC?? F0??      03616         CALL    _PortProperty_Valid
000186 6E??           03617         MOVWF   r0x09
000188 0E05           03618         MOVLW   0x05
00018A 26E1           03619         ADDWF   FSR1L, F
00018C C??? F???      03620         MOVFF   r0x09, r0x08
000190 50??           03621         MOVF    r0x09, W
000192 A4D8           03622         BTFSS   STATUS, 2
000194 D???           03623         BRA     _00217_DS_
                      03624 ;       .line   190; Port.c     Byte_SetBit(pInput->mDirection, (UINT8)pPin, 0);
000196 50??           03625         MOVF    r0x00, W
000198 0F03           03626         ADDLW   0x03
00019A 6E??           03627         MOVWF   r0x09
00019C 0E00           03628         MOVLW   0x00
00019E 20??           03629         ADDWFC  r0x01, W
0001A0 6E??           03630         MOVWF   r0x0a
0001A2 0E00           03631         MOVLW   0x00
0001A4 20??           03632         ADDWFC  r0x02, W
0001A6 6E??           03633         MOVWF   r0x0b
0001A8 C??? F???      03634         MOVFF   r0x09, FSR0L
0001AC C??? F???      03635         MOVFF   r0x0a, PRODL
0001B0 50??           03636         MOVF    r0x0b, W
0001B2 EC?? F0??      03637         CALL    __gptrget3
0001B6 6E??           03638         MOVWF   r0x09
gpasm-1.4.2 #1169 (Jan  2 2016) build/default   9-13-2016  14:11:57         PAGE 70


LOC    OBJECT CODE    LINE  SOURCE TEXT
  VALUE

0001B8 CFF3 F000      03639         MOVFF   PRODL, r0x0a
0001BC CFF4 F000      03640         MOVFF   PRODH, r0x0b
0001C0 0E00           03641         MOVLW   0x00
0001C2 6EE5           03642         MOVWF   POSTDEC1
0001C4 50??           03643         MOVF    r0x03, W
0001C6 6EE5           03644         MOVWF   POSTDEC1
0001C8 50??           03645         MOVF    r0x0b, W
0001CA 6EE5           03646         MOVWF   POSTDEC1
0001CC 50??           03647         MOVF    r0x0a, W
0001CE 6EE5           03648         MOVWF   POSTDEC1
0001D0 50??           03649         MOVF    r0x09, W
0001D2 6EE5           03650         MOVWF   POSTDEC1
0001D4 EC?? F0??      03651         CALL    _Byte_SetBit
0001D8 0E05           03652         MOVLW   0x05
0001DA 26E1           03653         ADDWF   FSR1L, F
                      03654 ;       .line   193; Port.c     Byte_SetBit(pInput->mOutput, (UINT8)pPin, 0);
0001DC 50??           03655         MOVF    r0x00, W
0001DE 0F06           03656         ADDLW   0x06
0001E0 6E??           03657         MOVWF   r0x09
0001E2 0E00           03658         MOVLW   0x00
0001E4 20??           03659         ADDWFC  r0x01, W
0001E6 6E??           03660         MOVWF   r0x0a
0001E8 0E00           03661         MOVLW   0x00
0001EA 20??           03662         ADDWFC  r0x02, W
0001EC 6E??           03663         MOVWF   r0x0b
0001EE C??? F???      03664         MOVFF   r0x09, FSR0L
0001F2 C??? F???      03665         MOVFF   r0x0a, PRODL
0001F6 50??           03666         MOVF    r0x0b, W
0001F8 EC?? F0??      03667         CALL    __gptrget3
0001FC 6E??           03668         MOVWF   r0x09
0001FE CFF3 F000      03669         MOVFF   PRODL, r0x0a
000202 CFF4 F000      03670         MOVFF   PRODH, r0x0b
000206 0E00           03671         MOVLW   0x00
000208 6EE5           03672         MOVWF   POSTDEC1
00020A 50??           03673         MOVF    r0x03, W
00020C 6EE5           03674         MOVWF   POSTDEC1
00020E 50??           03675         MOVF    r0x0b, W
000210 6EE5           03676         MOVWF   POSTDEC1
000212 50??           03677         MOVF    r0x0a, W
000214 6EE5           03678         MOVWF   POSTDEC1
000216 50??           03679         MOVF    r0x09, W
000218 6EE5           03680         MOVWF   POSTDEC1
00021A EC?? F0??      03681         CALL    _Byte_SetBit
00021E 0E05           03682         MOVLW   0x05
000220 26E1           03683         ADDWF   FSR1L, F
000222 D???           03684         BRA     _00228_DS_
000224                03685 _00217_DS_:
                      03686 ;       .line   195; Port.c     else return Output;
000224 50??           03687         MOVF    r0x08, W
000226 D???           03688         BRA     _00229_DS_
000228                03689 _00219_DS_:
                      03690 ;       .line   198; Port.c     if ((Output = PortProperty_Valid(Props, eHigh, pPin)) == ePinErrorNone)
000228 50??           03691         MOVF    r0x03, W
gpasm-1.4.2 #1169 (Jan  2 2016) build/default   9-13-2016  14:11:57         PAGE 71


LOC    OBJECT CODE    LINE  SOURCE TEXT
  VALUE

00022A 6EE5           03692         MOVWF   POSTDEC1
00022C 0E02           03693         MOVLW   0x02
00022E 6EE5           03694         MOVWF   POSTDEC1
000230 50??           03695         MOVF    r0x07, W
000232 6EE5           03696         MOVWF   POSTDEC1
000234 50??           03697         MOVF    r0x06, W
000236 6EE5           03698         MOVWF   POSTDEC1
000238 50??           03699         MOVF    r0x05, W
00023A 6EE5           03700         MOVWF   POSTDEC1
00023C EC?? F0??      03701         CALL    _PortProperty_Valid
000240 6E??           03702         MOVWF   r0x09
000242 0E05           03703         MOVLW   0x05
000244 26E1           03704         ADDWF   FSR1L, F
000246 C??? F???      03705         MOVFF   r0x09, r0x08
00024A 50??           03706         MOVF    r0x09, W
00024C A4D8           03707         BTFSS   STATUS, 2
00024E D???           03708         BRA     _00221_DS_
                      03709 ;       .line   201; Port.c     Byte_SetBit(pInput->mDirection, (UINT8)pPin, 1);
000250 50??           03710         MOVF    r0x00, W
000252 0F03           03711         ADDLW   0x03
000254 6E??           03712         MOVWF   r0x09
000256 0E00           03713         MOVLW   0x00
000258 20??           03714         ADDWFC  r0x01, W
00025A 6E??           03715         MOVWF   r0x0a
00025C 0E00           03716         MOVLW   0x00
00025E 20??           03717         ADDWFC  r0x02, W
000260 6E??           03718         MOVWF   r0x0b
000262 C??? F???      03719         MOVFF   r0x09, FSR0L
000266 C??? F???      03720         MOVFF   r0x0a, PRODL
00026A 50??           03721         MOVF    r0x0b, W
00026C EC?? F0??      03722         CALL    __gptrget3
000270 6E??           03723         MOVWF   r0x09
000272 CFF3 F000      03724         MOVFF   PRODL, r0x0a
000276 CFF4 F000      03725         MOVFF   PRODH, r0x0b
00027A 0E01           03726         MOVLW   0x01
00027C 6EE5           03727         MOVWF   POSTDEC1
00027E 50??           03728         MOVF    r0x03, W
000280 6EE5           03729         MOVWF   POSTDEC1
000282 50??           03730         MOVF    r0x0b, W
000284 6EE5           03731         MOVWF   POSTDEC1
000286 50??           03732         MOVF    r0x0a, W
000288 6EE5           03733         MOVWF   POSTDEC1
00028A 50??           03734         MOVF    r0x09, W
00028C 6EE5           03735         MOVWF   POSTDEC1
00028E EC?? F0??      03736         CALL    _Byte_SetBit
000292 0E05           03737         MOVLW   0x05
000294 26E1           03738         ADDWF   FSR1L, F
                      03739 ;       .line   204; Port.c     Byte_SetBit(pInput->mOutput, (UINT8)pPin, 1);
000296 50??           03740         MOVF    r0x00, W
000298 0F06           03741         ADDLW   0x06
00029A 6E??           03742         MOVWF   r0x09
00029C 0E00           03743         MOVLW   0x00
00029E 20??           03744         ADDWFC  r0x01, W
gpasm-1.4.2 #1169 (Jan  2 2016) build/default   9-13-2016  14:11:57         PAGE 72


LOC    OBJECT CODE    LINE  SOURCE TEXT
  VALUE

0002A0 6E??           03745         MOVWF   r0x0a
0002A2 0E00           03746         MOVLW   0x00
0002A4 20??           03747         ADDWFC  r0x02, W
0002A6 6E??           03748         MOVWF   r0x0b
0002A8 C??? F???      03749         MOVFF   r0x09, FSR0L
0002AC C??? F???      03750         MOVFF   r0x0a, PRODL
0002B0 50??           03751         MOVF    r0x0b, W
0002B2 EC?? F0??      03752         CALL    __gptrget3
0002B6 6E??           03753         MOVWF   r0x09
0002B8 CFF3 F000      03754         MOVFF   PRODL, r0x0a
0002BC CFF4 F000      03755         MOVFF   PRODH, r0x0b
0002C0 0E01           03756         MOVLW   0x01
0002C2 6EE5           03757         MOVWF   POSTDEC1
0002C4 50??           03758         MOVF    r0x03, W
0002C6 6EE5           03759         MOVWF   POSTDEC1
0002C8 50??           03760         MOVF    r0x0b, W
0002CA 6EE5           03761         MOVWF   POSTDEC1
0002CC 50??           03762         MOVF    r0x0a, W
0002CE 6EE5           03763         MOVWF   POSTDEC1
0002D0 50??           03764         MOVF    r0x09, W
0002D2 6EE5           03765         MOVWF   POSTDEC1
0002D4 EC?? F0??      03766         CALL    _Byte_SetBit
0002D8 0E05           03767         MOVLW   0x05
0002DA 26E1           03768         ADDWF   FSR1L, F
0002DC D???           03769         BRA     _00228_DS_
0002DE                03770 _00221_DS_:
                      03771 ;       .line   206; Port.c     else return Output;
0002DE 50??           03772         MOVF    r0x08, W
0002E0 D???           03773         BRA     _00229_DS_
0002E2                03774 _00223_DS_:
                      03775 ;       .line   209; Port.c     if ((Output = PortProperty_Valid(Props, eHL, pPin)) == ePinErrorNone)
0002E2 50??           03776         MOVF    r0x03, W
0002E4 6EE5           03777         MOVWF   POSTDEC1
0002E6 0E00           03778         MOVLW   0x00
0002E8 6EE5           03779         MOVWF   POSTDEC1
0002EA 50??           03780         MOVF    r0x07, W
0002EC 6EE5           03781         MOVWF   POSTDEC1
0002EE 50??           03782         MOVF    r0x06, W
0002F0 6EE5           03783         MOVWF   POSTDEC1
0002F2 50??           03784         MOVF    r0x05, W
0002F4 6EE5           03785         MOVWF   POSTDEC1
0002F6 EC?? F0??      03786         CALL    _PortProperty_Valid
0002FA 6E??           03787         MOVWF   r0x05
0002FC 0E05           03788         MOVLW   0x05
0002FE 26E1           03789         ADDWF   FSR1L, F
000300 C??? F???      03790         MOVFF   r0x05, r0x08
000304 50??           03791         MOVF    r0x05, W
000306 A4D8           03792         BTFSS   STATUS, 2
000308 D???           03793         BRA     _00225_DS_
                      03794 ;       .line   212; Port.c     Byte_SetBit(pInput->mDirection, (UINT8)pPin, 0);
00030A 50??           03795         MOVF    r0x00, W
00030C 0F03           03796         ADDLW   0x03
00030E 6E??           03797         MOVWF   r0x05
gpasm-1.4.2 #1169 (Jan  2 2016) build/default   9-13-2016  14:11:57         PAGE 73


LOC    OBJECT CODE    LINE  SOURCE TEXT
  VALUE

000310 0E00           03798         MOVLW   0x00
000312 20??           03799         ADDWFC  r0x01, W
000314 6E??           03800         MOVWF   r0x06
000316 0E00           03801         MOVLW   0x00
000318 20??           03802         ADDWFC  r0x02, W
00031A 6E??           03803         MOVWF   r0x07
00031C C??? F???      03804         MOVFF   r0x05, FSR0L
000320 C??? F???      03805         MOVFF   r0x06, PRODL
000324 50??           03806         MOVF    r0x07, W
000326 EC?? F0??      03807         CALL    __gptrget3
00032A 6E??           03808         MOVWF   r0x05
00032C CFF3 F000      03809         MOVFF   PRODL, r0x06
000330 CFF4 F000      03810         MOVFF   PRODH, r0x07
000334 0E00           03811         MOVLW   0x00
000336 6EE5           03812         MOVWF   POSTDEC1
000338 50??           03813         MOVF    r0x03, W
00033A 6EE5           03814         MOVWF   POSTDEC1
00033C 50??           03815         MOVF    r0x07, W
00033E 6EE5           03816         MOVWF   POSTDEC1
000340 50??           03817         MOVF    r0x06, W
000342 6EE5           03818         MOVWF   POSTDEC1
000344 50??           03819         MOVF    r0x05, W
000346 6EE5           03820         MOVWF   POSTDEC1
000348 EC?? F0??      03821         CALL    _Byte_SetBit
00034C 0E05           03822         MOVLW   0x05
00034E 26E1           03823         ADDWF   FSR1L, F
                      03824 ;       .line   215; Port.c     Byte_SetBit(pInput->mOutput, (UINT8)pPin, 0);
000350 50??           03825         MOVF    r0x00, W
000352 0F06           03826         ADDLW   0x06
000354 6E??           03827         MOVWF   r0x05
000356 0E00           03828         MOVLW   0x00
000358 20??           03829         ADDWFC  r0x01, W
00035A 6E??           03830         MOVWF   r0x06
00035C 0E00           03831         MOVLW   0x00
00035E 20??           03832         ADDWFC  r0x02, W
000360 6E??           03833         MOVWF   r0x07
000362 C??? F???      03834         MOVFF   r0x05, FSR0L
000366 C??? F???      03835         MOVFF   r0x06, PRODL
00036A 50??           03836         MOVF    r0x07, W
00036C EC?? F0??      03837         CALL    __gptrget3
000370 6E??           03838         MOVWF   r0x05
000372 CFF3 F000      03839         MOVFF   PRODL, r0x06
000376 CFF4 F000      03840         MOVFF   PRODH, r0x07
00037A 0E00           03841         MOVLW   0x00
00037C 6EE5           03842         MOVWF   POSTDEC1
00037E 50??           03843         MOVF    r0x03, W
000380 6EE5           03844         MOVWF   POSTDEC1
000382 50??           03845         MOVF    r0x07, W
000384 6EE5           03846         MOVWF   POSTDEC1
000386 50??           03847         MOVF    r0x06, W
000388 6EE5           03848         MOVWF   POSTDEC1
00038A 50??           03849         MOVF    r0x05, W
00038C 6EE5           03850         MOVWF   POSTDEC1
gpasm-1.4.2 #1169 (Jan  2 2016) build/default   9-13-2016  14:11:57         PAGE 74


LOC    OBJECT CODE    LINE  SOURCE TEXT
  VALUE

00038E EC?? F0??      03851         CALL    _Byte_SetBit
000392 0E05           03852         MOVLW   0x05
000394 26E1           03853         ADDWF   FSR1L, F
000396 D???           03854         BRA     _00228_DS_
000398                03855 _00225_DS_:
                      03856 ;       .line   217; Port.c     else return Output;
000398 50??           03857         MOVF    r0x08, W
00039A D???           03858         BRA     _00229_DS_
00039C                03859 _00228_DS_:
                      03860 ;       .line   224; Port.c     Word_SetPair(&pInput->mType, (UINT8)pPin, (UINT8)pType);
00039C 0E0C           03861         MOVLW   0x0c
00039E 26??           03862         ADDWF   r0x00, F
0003A0 0E00           03863         MOVLW   0x00
0003A2 22??           03864         ADDWFC  r0x01, F
0003A4 22??           03865         ADDWFC  r0x02, F
0003A6 50??           03866         MOVF    r0x04, W
0003A8 6EE5           03867         MOVWF   POSTDEC1
0003AA 50??           03868         MOVF    r0x03, W
0003AC 6EE5           03869         MOVWF   POSTDEC1
0003AE 50??           03870         MOVF    r0x02, W
0003B0 6EE5           03871         MOVWF   POSTDEC1
0003B2 50??           03872         MOVF    r0x01, W
0003B4 6EE5           03873         MOVWF   POSTDEC1
0003B6 50??           03874         MOVF    r0x00, W
0003B8 6EE5           03875         MOVWF   POSTDEC1
0003BA EC?? F0??      03876         CALL    _Word_SetPair
0003BE 0E05           03877         MOVLW   0x05
0003C0 26E1           03878         ADDWF   FSR1L, F
                      03879 ;       .line   226; Port.c     return Output;
0003C2 50??           03880         MOVF    r0x08, W
0003C4                03881 _00229_DS_:
0003C4 CFE4 F000      03882         MOVFF   PREINC1, r0x0b
0003C8 CFE4 F000      03883         MOVFF   PREINC1, r0x0a
0003CC CFE4 F000      03884         MOVFF   PREINC1, r0x09
0003D0 CFE4 F000      03885         MOVFF   PREINC1, r0x08
0003D4 CFE4 F000      03886         MOVFF   PREINC1, r0x07
0003D8 CFE4 F000      03887         MOVFF   PREINC1, r0x06
0003DC CFE4 F000      03888         MOVFF   PREINC1, r0x05
0003E0 CFE4 F000      03889         MOVFF   PREINC1, r0x04
0003E4 CFE4 F000      03890         MOVFF   PREINC1, r0x03
0003E8 CFE4 F000      03891         MOVFF   PREINC1, r0x02
0003EC CFE4 F000      03892         MOVFF   PREINC1, r0x01
0003F0 CFE4 F000      03893         MOVFF   PREINC1, r0x00
0003F4 CFE4 FFD9      03894         MOVFF   PREINC1, FSR2L
0003F8 0012           03895         RETURN  
                      03896 
                      03897 ; ; Starting pCode block
                      03898 S_Port__Port_Init       code
000000                03899 _Port_Init:
                      03900 ;       .line   151; Port.c     void            Port_Init               (PortPtr pInput, ePort pPort)
000000 CFD9 FFE5      03901         MOVFF   FSR2L, POSTDEC1
000004 CFE1 FFD9      03902         MOVFF   FSR1L, FSR2L
000008 C??? F???      03903         MOVFF   r0x00, POSTDEC1
gpasm-1.4.2 #1169 (Jan  2 2016) build/default   9-13-2016  14:11:57         PAGE 75


LOC    OBJECT CODE    LINE  SOURCE TEXT
  VALUE

00000C C??? F???      03904         MOVFF   r0x01, POSTDEC1
000010 C??? F???      03905         MOVFF   r0x02, POSTDEC1
000014 C??? F???      03906         MOVFF   r0x03, POSTDEC1
000018 C??? F???      03907         MOVFF   r0x04, POSTDEC1
00001C C??? F???      03908         MOVFF   r0x05, POSTDEC1
000020 C??? F???      03909         MOVFF   r0x06, POSTDEC1
000024 C??? F???      03910         MOVFF   r0x07, POSTDEC1
000028 C??? F???      03911         MOVFF   r0x08, POSTDEC1
00002C C??? F???      03912         MOVFF   r0x09, POSTDEC1
000030 C??? F???      03913         MOVFF   r0x0a, POSTDEC1
000034 C??? F???      03914         MOVFF   r0x0b, POSTDEC1
000038 C??? F???      03915         MOVFF   r0x0c, POSTDEC1
00003C 0E02           03916         MOVLW   0x02
00003E CFDB F000      03917         MOVFF   PLUSW2, r0x00
000042 0E03           03918         MOVLW   0x03
000044 CFDB F000      03919         MOVFF   PLUSW2, r0x01
000048 0E04           03920         MOVLW   0x04
00004A CFDB F000      03921         MOVFF   PLUSW2, r0x02
00004E 0E05           03922         MOVLW   0x05
000050 CFDB F000      03923         MOVFF   PLUSW2, r0x03
                      03924 ;       .line   154; Port.c     pInput->mProperties = GetPortProperties(pPort);
000054 50??           03925         MOVF    r0x03, W
000056 6EE5           03926         MOVWF   POSTDEC1
000058 EC?? F0??      03927         CALL    _GetPortProperties
00005C 6E??           03928         MOVWF   r0x04
00005E CFF3 F000      03929         MOVFF   PRODL, r0x05
000062 CFF4 F000      03930         MOVFF   PRODH, r0x06
000066 52E6           03931         MOVF    POSTINC1, F
000068 C??? F???      03932         MOVFF   r0x04, POSTDEC1
00006C C??? F???      03933         MOVFF   r0x05, PRODH
000070 C??? F???      03934         MOVFF   r0x06, TBLPTRL
000074 C??? F???      03935         MOVFF   r0x00, FSR0L
000078 C??? F???      03936         MOVFF   r0x01, PRODL
00007C 50??           03937         MOVF    r0x02, W
00007E EC?? F0??      03938         CALL    __gptrput3
                      03939 ;       .line   155; Port.c     pInput->mInput = GetPortLAT(pPort);
000082 50??           03940         MOVF    r0x00, W
000084 0F09           03941         ADDLW   0x09
000086 6E??           03942         MOVWF   r0x04
000088 0E00           03943         MOVLW   0x00
00008A 20??           03944         ADDWFC  r0x01, W
00008C 6E??           03945         MOVWF   r0x05
00008E 0E00           03946         MOVLW   0x00
000090 20??           03947         ADDWFC  r0x02, W
000092 6E??           03948         MOVWF   r0x06
000094 50??           03949         MOVF    r0x03, W
000096 6EE5           03950         MOVWF   POSTDEC1
000098 EC?? F0??      03951         CALL    _GetPortLAT
00009C 6E??           03952         MOVWF   r0x07
00009E CFF3 F000      03953         MOVFF   PRODL, r0x08
0000A2 CFF4 F000      03954         MOVFF   PRODH, r0x09
0000A6 52E6           03955         MOVF    POSTINC1, F
0000A8 C??? F???      03956         MOVFF   r0x07, POSTDEC1
gpasm-1.4.2 #1169 (Jan  2 2016) build/default   9-13-2016  14:11:57         PAGE 76


LOC    OBJECT CODE    LINE  SOURCE TEXT
  VALUE

0000AC C??? F???      03957         MOVFF   r0x08, PRODH
0000B0 C??? F???      03958         MOVFF   r0x09, TBLPTRL
0000B4 C??? F???      03959         MOVFF   r0x04, FSR0L
0000B8 C??? F???      03960         MOVFF   r0x05, PRODL
0000BC 50??           03961         MOVF    r0x06, W
0000BE EC?? F0??      03962         CALL    __gptrput3
                      03963 ;       .line   156; Port.c     pInput->mOutput = GetPortPORT(pPort);
0000C2 50??           03964         MOVF    r0x00, W
0000C4 0F06           03965         ADDLW   0x06
0000C6 6E??           03966         MOVWF   r0x07
0000C8 0E00           03967         MOVLW   0x00
0000CA 20??           03968         ADDWFC  r0x01, W
0000CC 6E??           03969         MOVWF   r0x08
0000CE 0E00           03970         MOVLW   0x00
0000D0 20??           03971         ADDWFC  r0x02, W
0000D2 6E??           03972         MOVWF   r0x09
0000D4 50??           03973         MOVF    r0x03, W
0000D6 6EE5           03974         MOVWF   POSTDEC1
0000D8 EC?? F0??      03975         CALL    _GetPortPORT
0000DC 6E??           03976         MOVWF   r0x0a
0000DE CFF3 F000      03977         MOVFF   PRODL, r0x0b
0000E2 CFF4 F000      03978         MOVFF   PRODH, r0x0c
0000E6 52E6           03979         MOVF    POSTINC1, F
0000E8 C??? F???      03980         MOVFF   r0x0a, POSTDEC1
0000EC C??? F???      03981         MOVFF   r0x0b, PRODH
0000F0 C??? F???      03982         MOVFF   r0x0c, TBLPTRL
0000F4 C??? F???      03983         MOVFF   r0x07, FSR0L
0000F8 C??? F???      03984         MOVFF   r0x08, PRODL
0000FC 50??           03985         MOVF    r0x09, W
0000FE EC?? F0??      03986         CALL    __gptrput3
                      03987 ;       .line   157; Port.c     pInput->mDirection = GetPortTRIS(pPort);
000102 50??           03988         MOVF    r0x00, W
000104 0F03           03989         ADDLW   0x03
000106 6E??           03990         MOVWF   r0x07
000108 0E00           03991         MOVLW   0x00
00010A 20??           03992         ADDWFC  r0x01, W
00010C 6E??           03993         MOVWF   r0x08
00010E 0E00           03994         MOVLW   0x00
000110 20??           03995         ADDWFC  r0x02, W
000112 6E??           03996         MOVWF   r0x09
000114 50??           03997         MOVF    r0x03, W
000116 6EE5           03998         MOVWF   POSTDEC1
000118 EC?? F0??      03999         CALL    _GetPortTRIS
00011C 6E??           04000         MOVWF   r0x03
00011E CFF3 F000      04001         MOVFF   PRODL, r0x0a
000122 CFF4 F000      04002         MOVFF   PRODH, r0x0b
000126 52E6           04003         MOVF    POSTINC1, F
000128 C??? F???      04004         MOVFF   r0x03, POSTDEC1
00012C C??? F???      04005         MOVFF   r0x0a, PRODH
000130 C??? F???      04006         MOVFF   r0x0b, TBLPTRL
000134 C??? F???      04007         MOVFF   r0x07, FSR0L
000138 C??? F???      04008         MOVFF   r0x08, PRODL
00013C 50??           04009         MOVF    r0x09, W
gpasm-1.4.2 #1169 (Jan  2 2016) build/default   9-13-2016  14:11:57         PAGE 77


LOC    OBJECT CODE    LINE  SOURCE TEXT
  VALUE

00013E EC?? F0??      04010         CALL    __gptrput3
                      04011 ;       .line   160; Port.c     pInput->mInput->mBits = 0x00;
000142 C??? F???      04012         MOVFF   r0x04, FSR0L
000146 C??? F???      04013         MOVFF   r0x05, PRODL
00014A 50??           04014         MOVF    r0x06, W
00014C EC?? F0??      04015         CALL    __gptrget3
000150 6E??           04016         MOVWF   r0x04
000152 CFF3 F000      04017         MOVFF   PRODL, r0x05
000156 CFF4 F000      04018         MOVFF   PRODH, r0x06
00015A 0E00           04019         MOVLW   0x00
00015C 6EE5           04020         MOVWF   POSTDEC1
00015E C??? F???      04021         MOVFF   r0x04, FSR0L
000162 C??? F???      04022         MOVFF   r0x05, PRODL
000166 50??           04023         MOVF    r0x06, W
000168 EC?? F0??      04024         CALL    __gptrput1
                      04025 ;       .line   161; Port.c     pInput->mDirection->mBits = 0x00;
00016C 0E00           04026         MOVLW   0x00
00016E 6EE5           04027         MOVWF   POSTDEC1
000170 C??? F???      04028         MOVFF   r0x03, FSR0L
000174 C??? F???      04029         MOVFF   r0x0a, PRODL
000178 50??           04030         MOVF    r0x0b, W
00017A EC?? F0??      04031         CALL    __gptrput1
                      04032 ;       .line   164; Port.c     Port_SetType(pInput, eTypeInput);
00017E 0E00           04033         MOVLW   0x00
000180 6EE5           04034         MOVWF   POSTDEC1
000182 50??           04035         MOVF    r0x02, W
000184 6EE5           04036         MOVWF   POSTDEC1
000186 50??           04037         MOVF    r0x01, W
000188 6EE5           04038         MOVWF   POSTDEC1
00018A 50??           04039         MOVF    r0x00, W
00018C 6EE5           04040         MOVWF   POSTDEC1
00018E EC?? F0??      04041         CALL    _Port_SetType
000192 0E04           04042         MOVLW   0x04
000194 26E1           04043         ADDWF   FSR1L, F
                      04044 ;       .line   165; Port.c     Port_Set(pInput, 0x00);
000196 0E00           04045         MOVLW   0x00
000198 6EE5           04046         MOVWF   POSTDEC1
00019A 50??           04047         MOVF    r0x02, W
00019C 6EE5           04048         MOVWF   POSTDEC1
00019E 50??           04049         MOVF    r0x01, W
0001A0 6EE5           04050         MOVWF   POSTDEC1
0001A2 50??           04051         MOVF    r0x00, W
0001A4 6EE5           04052         MOVWF   POSTDEC1
0001A6 EC?? F0??      04053         CALL    _Port_Set
0001AA 0E04           04054         MOVLW   0x04
0001AC 26E1           04055         ADDWF   FSR1L, F
0001AE CFE4 F000      04056         MOVFF   PREINC1, r0x0c
0001B2 CFE4 F000      04057         MOVFF   PREINC1, r0x0b
0001B6 CFE4 F000      04058         MOVFF   PREINC1, r0x0a
0001BA CFE4 F000      04059         MOVFF   PREINC1, r0x09
0001BE CFE4 F000      04060         MOVFF   PREINC1, r0x08
0001C2 CFE4 F000      04061         MOVFF   PREINC1, r0x07
0001C6 CFE4 F000      04062         MOVFF   PREINC1, r0x06
gpasm-1.4.2 #1169 (Jan  2 2016) build/default   9-13-2016  14:11:57         PAGE 78


LOC    OBJECT CODE    LINE  SOURCE TEXT
  VALUE

0001CA CFE4 F000      04063         MOVFF   PREINC1, r0x05
0001CE CFE4 F000      04064         MOVFF   PREINC1, r0x04
0001D2 CFE4 F000      04065         MOVFF   PREINC1, r0x03
0001D6 CFE4 F000      04066         MOVFF   PREINC1, r0x02
0001DA CFE4 F000      04067         MOVFF   PREINC1, r0x01
0001DE CFE4 F000      04068         MOVFF   PREINC1, r0x00
0001E2 CFE4 FFD9      04069         MOVFF   PREINC1, FSR2L
0001E6 0012           04070         RETURN  
                      04071 
                      04072 ; ; Starting pCode block
                      04073 S_Port__Port_CheckPortType      code
000000                04074 _Port_CheckPortType:
                      04075 ;       .line   138; Port.c     ePinError       Port_CheckPortType(PortPtr pInput, ePinDrive pDrive)
000000 CFD9 FFE5      04076         MOVFF   FSR2L, POSTDEC1
000004 CFE1 FFD9      04077         MOVFF   FSR1L, FSR2L
000008 C??? F???      04078         MOVFF   r0x00, POSTDEC1
00000C C??? F???      04079         MOVFF   r0x01, POSTDEC1
000010 C??? F???      04080         MOVFF   r0x02, POSTDEC1
000014 C??? F???      04081         MOVFF   r0x03, POSTDEC1
000018 C??? F???      04082         MOVFF   r0x04, POSTDEC1
00001C C??? F???      04083         MOVFF   r0x05, POSTDEC1
000020 0E02           04084         MOVLW   0x02
000022 CFDB F000      04085         MOVFF   PLUSW2, r0x00
000026 0E03           04086         MOVLW   0x03
000028 CFDB F000      04087         MOVFF   PLUSW2, r0x01
00002C 0E04           04088         MOVLW   0x04
00002E CFDB F000      04089         MOVFF   PLUSW2, r0x02
000032 0E05           04090         MOVLW   0x05
000034 CFDB F000      04091         MOVFF   PLUSW2, r0x03
                      04092 ;       .line   144; Port.c     if ((Output = Port_CheckQuadType(pInput, eP0_3, pDrive)) == ePinErrorNon
                            e)
000038 50??           04093         MOVF    r0x03, W
00003A 6EE5           04094         MOVWF   POSTDEC1
00003C 0E00           04095         MOVLW   0x00
00003E 6EE5           04096         MOVWF   POSTDEC1
000040 50??           04097         MOVF    r0x02, W
000042 6EE5           04098         MOVWF   POSTDEC1
000044 50??           04099         MOVF    r0x01, W
000046 6EE5           04100         MOVWF   POSTDEC1
000048 50??           04101         MOVF    r0x00, W
00004A 6EE5           04102         MOVWF   POSTDEC1
00004C EC?? F0??      04103         CALL    _Port_CheckQuadType
000050 6E??           04104         MOVWF   r0x04
000052 0E05           04105         MOVLW   0x05
000054 26E1           04106         ADDWF   FSR1L, F
000056 C??? F???      04107         MOVFF   r0x04, r0x05
00005A 50??           04108         MOVF    r0x04, W
00005C E1??           04109         BNZ     _00200_DS_
                      04110 ;       .line   145; Port.c     Output = Port_CheckQuadType(pInput, eP4_7, pDrive);
00005E 50??           04111         MOVF    r0x03, W
000060 6EE5           04112         MOVWF   POSTDEC1
000062 0E01           04113         MOVLW   0x01
000064 6EE5           04114         MOVWF   POSTDEC1
gpasm-1.4.2 #1169 (Jan  2 2016) build/default   9-13-2016  14:11:57         PAGE 79


LOC    OBJECT CODE    LINE  SOURCE TEXT
  VALUE

000066 50??           04115         MOVF    r0x02, W
000068 6EE5           04116         MOVWF   POSTDEC1
00006A 50??           04117         MOVF    r0x01, W
00006C 6EE5           04118         MOVWF   POSTDEC1
00006E 50??           04119         MOVF    r0x00, W
000070 6EE5           04120         MOVWF   POSTDEC1
000072 EC?? F0??      04121         CALL    _Port_CheckQuadType
000076 6E??           04122         MOVWF   r0x05
000078 0E05           04123         MOVLW   0x05
00007A 26E1           04124         ADDWF   FSR1L, F
00007C                04125 _00200_DS_:
                      04126 ;       .line   147; Port.c     return Output;
00007C 50??           04127         MOVF    r0x05, W
00007E CFE4 F000      04128         MOVFF   PREINC1, r0x05
000082 CFE4 F000      04129         MOVFF   PREINC1, r0x04
000086 CFE4 F000      04130         MOVFF   PREINC1, r0x03
00008A CFE4 F000      04131         MOVFF   PREINC1, r0x02
00008E CFE4 F000      04132         MOVFF   PREINC1, r0x01
000092 CFE4 F000      04133         MOVFF   PREINC1, r0x00
000096 CFE4 FFD9      04134         MOVFF   PREINC1, FSR2L
00009A 0012           04135         RETURN  
                      04136 
                      04137 ; ; Starting pCode block
                      04138 S_Port__Port_CheckQuadType      code
000000                04139 _Port_CheckQuadType:
                      04140 ;       .line   124; Port.c     ePinError       Port_CheckQuadType(PortPtr pInput, eQuad pQuad, ePinDriv
                            e pDrive)
000000 CFD9 FFE5      04141         MOVFF   FSR2L, POSTDEC1
000004 CFE1 FFD9      04142         MOVFF   FSR1L, FSR2L
000008 C??? F???      04143         MOVFF   r0x00, POSTDEC1
00000C C??? F???      04144         MOVFF   r0x01, POSTDEC1
000010 C??? F???      04145         MOVFF   r0x02, POSTDEC1
000014 C??? F???      04146         MOVFF   r0x03, POSTDEC1
000018 C??? F???      04147         MOVFF   r0x04, POSTDEC1
00001C C??? F???      04148         MOVFF   r0x05, POSTDEC1
000020 C??? F???      04149         MOVFF   r0x06, POSTDEC1
000024 0E02           04150         MOVLW   0x02
000026 CFDB F000      04151         MOVFF   PLUSW2, r0x00
00002A 0E03           04152         MOVLW   0x03
00002C CFDB F000      04153         MOVFF   PLUSW2, r0x01
000030 0E04           04154         MOVLW   0x04
000032 CFDB F000      04155         MOVFF   PLUSW2, r0x02
000036 0E05           04156         MOVLW   0x05
000038 CFDB F000      04157         MOVFF   PLUSW2, r0x03
00003C 0E06           04158         MOVLW   0x06
00003E CFDB F000      04159         MOVFF   PLUSW2, r0x04
                      04160 ;       .line   129; Port.c     ePair Pair1 = (ePair)((int)pQuad * 2);
000042 6A??           04161         CLRF    r0x05
                      04162 ; ;multiply lit val:0x02 by variable r0x03 and store in r0x03
000044 50??           04163         MOVF    r0x03, W
000046 0D02           04164         MULLW   0x02
000048 CFF3 F000      04165         MOVFF   PRODL, r0x03
00004C 50??           04166         MOVF    r0x03, W
gpasm-1.4.2 #1169 (Jan  2 2016) build/default   9-13-2016  14:11:57         PAGE 80


LOC    OBJECT CODE    LINE  SOURCE TEXT
  VALUE

00004E 6E??           04167         MOVWF   r0x05
                      04168 ;       .line   130; Port.c     ePair Pair2 = (ePair)((int)pQuad * 2 + 1);
000050 2A??           04169         INCF    r0x03, F
                      04170 ;       .line   133; Port.c     if ((Output = Port_CheckPairType(pInput, Pair1, pDrive)) == ePinErrorNon
                            e)
000052 50??           04171         MOVF    r0x04, W
000054 6EE5           04172         MOVWF   POSTDEC1
000056 50??           04173         MOVF    r0x05, W
000058 6EE5           04174         MOVWF   POSTDEC1
00005A 50??           04175         MOVF    r0x02, W
00005C 6EE5           04176         MOVWF   POSTDEC1
00005E 50??           04177         MOVF    r0x01, W
000060 6EE5           04178         MOVWF   POSTDEC1
000062 50??           04179         MOVF    r0x00, W
000064 6EE5           04180         MOVWF   POSTDEC1
000066 EC?? F0??      04181         CALL    _Port_CheckPairType
00006A 6E??           04182         MOVWF   r0x05
00006C 0E05           04183         MOVLW   0x05
00006E 26E1           04184         ADDWF   FSR1L, F
000070 C??? F???      04185         MOVFF   r0x05, r0x06
000074 50??           04186         MOVF    r0x05, W
000076 E1??           04187         BNZ     _00193_DS_
                      04188 ;       .line   134; Port.c     Output = Port_CheckPairType(pInput, Pair2, pDrive);
000078 50??           04189         MOVF    r0x04, W
00007A 6EE5           04190         MOVWF   POSTDEC1
00007C 50??           04191         MOVF    r0x03, W
00007E 6EE5           04192         MOVWF   POSTDEC1
000080 50??           04193         MOVF    r0x02, W
000082 6EE5           04194         MOVWF   POSTDEC1
000084 50??           04195         MOVF    r0x01, W
000086 6EE5           04196         MOVWF   POSTDEC1
000088 50??           04197         MOVF    r0x00, W
00008A 6EE5           04198         MOVWF   POSTDEC1
00008C EC?? F0??      04199         CALL    _Port_CheckPairType
000090 6E??           04200         MOVWF   r0x06
000092 0E05           04201         MOVLW   0x05
000094 26E1           04202         ADDWF   FSR1L, F
000096                04203 _00193_DS_:
                      04204 ;       .line   136; Port.c     return Output;
000096 50??           04205         MOVF    r0x06, W
000098 CFE4 F000      04206         MOVFF   PREINC1, r0x06
00009C CFE4 F000      04207         MOVFF   PREINC1, r0x05
0000A0 CFE4 F000      04208         MOVFF   PREINC1, r0x04
0000A4 CFE4 F000      04209         MOVFF   PREINC1, r0x03
0000A8 CFE4 F000      04210         MOVFF   PREINC1, r0x02
0000AC CFE4 F000      04211         MOVFF   PREINC1, r0x01
0000B0 CFE4 F000      04212         MOVFF   PREINC1, r0x00
0000B4 CFE4 FFD9      04213         MOVFF   PREINC1, FSR2L
0000B8 0012           04214         RETURN  
                      04215 
                      04216 ; ; Starting pCode block
                      04217 S_Port__Port_CheckPairType      code
000000                04218 _Port_CheckPairType:
gpasm-1.4.2 #1169 (Jan  2 2016) build/default   9-13-2016  14:11:57         PAGE 81


LOC    OBJECT CODE    LINE  SOURCE TEXT
  VALUE

                      04219 ;       .line   110; Port.c     ePinError       Port_CheckPairType(PortPtr pInput, ePair pPair, ePinDriv
                            e pDrive)
000000 CFD9 FFE5      04220         MOVFF   FSR2L, POSTDEC1
000004 CFE1 FFD9      04221         MOVFF   FSR1L, FSR2L
000008 C??? F???      04222         MOVFF   r0x00, POSTDEC1
00000C C??? F???      04223         MOVFF   r0x01, POSTDEC1
000010 C??? F???      04224         MOVFF   r0x02, POSTDEC1
000014 C??? F???      04225         MOVFF   r0x03, POSTDEC1
000018 C??? F???      04226         MOVFF   r0x04, POSTDEC1
00001C C??? F???      04227         MOVFF   r0x05, POSTDEC1
000020 C??? F???      04228         MOVFF   r0x06, POSTDEC1
000024 0E02           04229         MOVLW   0x02
000026 CFDB F000      04230         MOVFF   PLUSW2, r0x00
00002A 0E03           04231         MOVLW   0x03
00002C CFDB F000      04232         MOVFF   PLUSW2, r0x01
000030 0E04           04233         MOVLW   0x04
000032 CFDB F000      04234         MOVFF   PLUSW2, r0x02
000036 0E05           04235         MOVLW   0x05
000038 CFDB F000      04236         MOVFF   PLUSW2, r0x03
00003C 0E06           04237         MOVLW   0x06
00003E CFDB F000      04238         MOVFF   PLUSW2, r0x04
                      04239 ;       .line   114; Port.c     PortProperty* Props = (PortProperty*)&(pInput->mProperties->mWord);
000042 C??? F???      04240         MOVFF   r0x00, FSR0L
000046 C??? F???      04241         MOVFF   r0x01, PRODL
00004A 50??           04242         MOVF    r0x02, W
00004C EC?? F0??      04243         CALL    __gptrget3
000050 6E??           04244         MOVWF   r0x00
000052 CFF3 F000      04245         MOVFF   PRODL, r0x01
000056 CFF4 F000      04246         MOVFF   PRODH, r0x02
00005A 50??           04247         MOVF    r0x02, W
00005C 6E??           04248         MOVWF   r0x02
00005E 50??           04249         MOVF    r0x01, W
000060 6E??           04250         MOVWF   r0x01
000062 50??           04251         MOVF    r0x00, W
000064 6E??           04252         MOVWF   r0x00
                      04253 ;       .line   115; Port.c     ePin Pin1 = (ePin)((int)pPair * 2);
000066 6A??           04254         CLRF    r0x05
                      04255 ; ;multiply lit val:0x02 by variable r0x03 and store in r0x03
000068 50??           04256         MOVF    r0x03, W
00006A 0D02           04257         MULLW   0x02
00006C CFF3 F000      04258         MOVFF   PRODL, r0x03
000070 50??           04259         MOVF    r0x03, W
000072 6E??           04260         MOVWF   r0x05
                      04261 ;       .line   116; Port.c     ePin Pin2 = (ePin)((int)pPair * 2 + 1);
000074 2A??           04262         INCF    r0x03, F
                      04263 ;       .line   119; Port.c     if ((Output = PortProperty_Valid(Props, pDrive, Pin1)) == ePinErrorNone)
000076 50??           04264         MOVF    r0x05, W
000078 6EE5           04265         MOVWF   POSTDEC1
00007A 50??           04266         MOVF    r0x04, W
00007C 6EE5           04267         MOVWF   POSTDEC1
00007E 50??           04268         MOVF    r0x02, W
000080 6EE5           04269         MOVWF   POSTDEC1
000082 50??           04270         MOVF    r0x01, W
gpasm-1.4.2 #1169 (Jan  2 2016) build/default   9-13-2016  14:11:57         PAGE 82


LOC    OBJECT CODE    LINE  SOURCE TEXT
  VALUE

000084 6EE5           04271         MOVWF   POSTDEC1
000086 50??           04272         MOVF    r0x00, W
000088 6EE5           04273         MOVWF   POSTDEC1
00008A EC?? F0??      04274         CALL    _PortProperty_Valid
00008E 6E??           04275         MOVWF   r0x05
000090 0E05           04276         MOVLW   0x05
000092 26E1           04277         ADDWF   FSR1L, F
000094 C??? F???      04278         MOVFF   r0x05, r0x06
000098 50??           04279         MOVF    r0x05, W
00009A E1??           04280         BNZ     _00186_DS_
                      04281 ;       .line   120; Port.c     Output = PortProperty_Valid(Props, pDrive, Pin2);
00009C 50??           04282         MOVF    r0x03, W
00009E 6EE5           04283         MOVWF   POSTDEC1
0000A0 50??           04284         MOVF    r0x04, W
0000A2 6EE5           04285         MOVWF   POSTDEC1
0000A4 50??           04286         MOVF    r0x02, W
0000A6 6EE5           04287         MOVWF   POSTDEC1
0000A8 50??           04288         MOVF    r0x01, W
0000AA 6EE5           04289         MOVWF   POSTDEC1
0000AC 50??           04290         MOVF    r0x00, W
0000AE 6EE5           04291         MOVWF   POSTDEC1
0000B0 EC?? F0??      04292         CALL    _PortProperty_Valid
0000B4 6E??           04293         MOVWF   r0x06
0000B6 0E05           04294         MOVLW   0x05
0000B8 26E1           04295         ADDWF   FSR1L, F
0000BA                04296 _00186_DS_:
                      04297 ;       .line   122; Port.c     return Output;
0000BA 50??           04298         MOVF    r0x06, W
0000BC CFE4 F000      04299         MOVFF   PREINC1, r0x06
0000C0 CFE4 F000      04300         MOVFF   PREINC1, r0x05
0000C4 CFE4 F000      04301         MOVFF   PREINC1, r0x04
0000C8 CFE4 F000      04302         MOVFF   PREINC1, r0x03
0000CC CFE4 F000      04303         MOVFF   PREINC1, r0x02
0000D0 CFE4 F000      04304         MOVFF   PREINC1, r0x01
0000D4 CFE4 F000      04305         MOVFF   PREINC1, r0x00
0000D8 CFE4 FFD9      04306         MOVFF   PREINC1, FSR2L
0000DC 0012           04307         RETURN  
                      04308 
                      04309 ; ; Starting pCode block
                      04310 S_Port__GetPortLAT      code
000000                04311 _GetPortLAT:
                      04312 ;       .line   88; Port.c      Byte * const GetPortLAT(ePort pInput)
000000 CFD9 FFE5      04313         MOVFF   FSR2L, POSTDEC1
000004 CFE1 FFD9      04314         MOVFF   FSR1L, FSR2L
000008 C??? F???      04315         MOVFF   r0x00, POSTDEC1
00000C C??? F???      04316         MOVFF   r0x01, POSTDEC1
000010 C??? F???      04317         MOVFF   r0x02, POSTDEC1
000014 0E02           04318         MOVLW   0x02
000016 CFDB F000      04319         MOVFF   PLUSW2, r0x00
                      04320 ;       .line   90; Port.c      switch (pInput)
00001A 0E07           04321         MOVLW   0x07
00001C 5C??           04322         SUBWF   r0x00, W
00001E B0D8           04323         BTFSC   STATUS, 0
gpasm-1.4.2 #1169 (Jan  2 2016) build/default   9-13-2016  14:11:57         PAGE 83


LOC    OBJECT CODE    LINE  SOURCE TEXT
  VALUE

000020 D???           04324         BRA     _00172_DS_
000022 6AFA           04325         CLRF    PCLATH
000024 6AFB           04326         CLRF    PCLATU
000026 34??           04327         RLCF    r0x00, W
000028 36FA           04328         RLCF    PCLATH, F
00002A 34E8           04329         RLCF    WREG, W
00002C 36FA           04330         RLCF    PCLATH, F
00002E 0BFC           04331         ANDLW   0xfc
000030 0F??           04332         ADDLW   LOW(_00180_DS_)
000032 6EE5           04333         MOVWF   POSTDEC1
000034 0E??           04334         MOVLW   HIGH(_00180_DS_)
000036 22FA           04335         ADDWFC  PCLATH, F
000038 0E??           04336         MOVLW   UPPER(_00180_DS_)
00003A 22FB           04337         ADDWFC  PCLATU, F
00003C 50E4           04338         MOVF    PREINC1, W
00003E 6EF9           04339         MOVWF   PCL
000040                04340 _00180_DS_:
000040 EF?? F0??      04341         GOTO    _00165_DS_
000044 EF?? F0??      04342         GOTO    _00166_DS_
000048 EF?? F0??      04343         GOTO    _00167_DS_
00004C EF?? F0??      04344         GOTO    _00168_DS_
000050 EF?? F0??      04345         GOTO    _00169_DS_
000054 EF?? F0??      04346         GOTO    _00170_DS_
000058 EF?? F0??      04347         GOTO    _00171_DS_
00005C                04348 _00165_DS_:
                      04349 ;       .line   93; Port.c      return (Byte * const)&LATA;
00005C 0E??           04350         MOVLW   LOW(_LATA)
00005E 6E??           04351         MOVWF   r0x00
000060 0E??           04352         MOVLW   HIGH(_LATA)
000062 6E??           04353         MOVWF   r0x01
000064 50??           04354         MOVF    r0x01, W
000066 6E??           04355         MOVWF   r0x01
000068 50??           04356         MOVF    r0x00, W
00006A 6E??           04357         MOVWF   r0x00
00006C 0E80           04358         MOVLW   0x80
00006E 6E??           04359         MOVWF   r0x02
000070 C??? F???      04360         MOVFF   r0x02, PRODH
000074 C??? F???      04361         MOVFF   r0x01, PRODL
000078 50??           04362         MOVF    r0x00, W
00007A D???           04363         BRA     _00174_DS_
00007C                04364 _00166_DS_:
                      04365 ;       .line   95; Port.c      return (Byte * const)&LATB;
00007C 0E??           04366         MOVLW   LOW(_LATB)
00007E 6E??           04367         MOVWF   r0x00
000080 0E??           04368         MOVLW   HIGH(_LATB)
000082 6E??           04369         MOVWF   r0x01
000084 50??           04370         MOVF    r0x01, W
000086 6E??           04371         MOVWF   r0x01
000088 50??           04372         MOVF    r0x00, W
00008A 6E??           04373         MOVWF   r0x00
00008C 0E80           04374         MOVLW   0x80
00008E 6E??           04375         MOVWF   r0x02
000090 C??? F???      04376         MOVFF   r0x02, PRODH
gpasm-1.4.2 #1169 (Jan  2 2016) build/default   9-13-2016  14:11:57         PAGE 84


LOC    OBJECT CODE    LINE  SOURCE TEXT
  VALUE

000094 C??? F???      04377         MOVFF   r0x01, PRODL
000098 50??           04378         MOVF    r0x00, W
00009A D???           04379         BRA     _00174_DS_
00009C                04380 _00167_DS_:
                      04381 ;       .line   97; Port.c      return (Byte * const)&LATC;
00009C 0E??           04382         MOVLW   LOW(_LATC)
00009E 6E??           04383         MOVWF   r0x00
0000A0 0E??           04384         MOVLW   HIGH(_LATC)
0000A2 6E??           04385         MOVWF   r0x01
0000A4 50??           04386         MOVF    r0x01, W
0000A6 6E??           04387         MOVWF   r0x01
0000A8 50??           04388         MOVF    r0x00, W
0000AA 6E??           04389         MOVWF   r0x00
0000AC 0E80           04390         MOVLW   0x80
0000AE 6E??           04391         MOVWF   r0x02
0000B0 C??? F???      04392         MOVFF   r0x02, PRODH
0000B4 C??? F???      04393         MOVFF   r0x01, PRODL
0000B8 50??           04394         MOVF    r0x00, W
0000BA D???           04395         BRA     _00174_DS_
0000BC                04396 _00168_DS_:
                      04397 ;       .line   99; Port.c      return (Byte * const)&LATD;
0000BC 0E??           04398         MOVLW   LOW(_LATD)
0000BE 6E??           04399         MOVWF   r0x00
0000C0 0E??           04400         MOVLW   HIGH(_LATD)
0000C2 6E??           04401         MOVWF   r0x01
0000C4 50??           04402         MOVF    r0x01, W
0000C6 6E??           04403         MOVWF   r0x01
0000C8 50??           04404         MOVF    r0x00, W
0000CA 6E??           04405         MOVWF   r0x00
0000CC 0E80           04406         MOVLW   0x80
0000CE 6E??           04407         MOVWF   r0x02
0000D0 C??? F???      04408         MOVFF   r0x02, PRODH
0000D4 C??? F???      04409         MOVFF   r0x01, PRODL
0000D8 50??           04410         MOVF    r0x00, W
0000DA D???           04411         BRA     _00174_DS_
0000DC                04412 _00169_DS_:
                      04413 ;       .line   101; Port.c     return (Byte * const)&LATE;
0000DC 0E??           04414         MOVLW   LOW(_LATE)
0000DE 6E??           04415         MOVWF   r0x00
0000E0 0E??           04416         MOVLW   HIGH(_LATE)
0000E2 6E??           04417         MOVWF   r0x01
0000E4 50??           04418         MOVF    r0x01, W
0000E6 6E??           04419         MOVWF   r0x01
0000E8 50??           04420         MOVF    r0x00, W
0000EA 6E??           04421         MOVWF   r0x00
0000EC 0E80           04422         MOVLW   0x80
0000EE 6E??           04423         MOVWF   r0x02
0000F0 C??? F???      04424         MOVFF   r0x02, PRODH
0000F4 C??? F???      04425         MOVFF   r0x01, PRODL
0000F8 50??           04426         MOVF    r0x00, W
0000FA D???           04427         BRA     _00174_DS_
0000FC                04428 _00170_DS_:
                      04429 ;       .line   103; Port.c     return (Byte * const)&LATF;
gpasm-1.4.2 #1169 (Jan  2 2016) build/default   9-13-2016  14:11:57         PAGE 85


LOC    OBJECT CODE    LINE  SOURCE TEXT
  VALUE

0000FC 0E??           04430         MOVLW   LOW(_LATF)
0000FE 6E??           04431         MOVWF   r0x00
000100 0E??           04432         MOVLW   HIGH(_LATF)
000102 6E??           04433         MOVWF   r0x01
000104 50??           04434         MOVF    r0x01, W
000106 6E??           04435         MOVWF   r0x01
000108 50??           04436         MOVF    r0x00, W
00010A 6E??           04437         MOVWF   r0x00
00010C 0E80           04438         MOVLW   0x80
00010E 6E??           04439         MOVWF   r0x02
000110 C??? F???      04440         MOVFF   r0x02, PRODH
000114 C??? F???      04441         MOVFF   r0x01, PRODL
000118 50??           04442         MOVF    r0x00, W
00011A D???           04443         BRA     _00174_DS_
00011C                04444 _00171_DS_:
                      04445 ;       .line   105; Port.c     return (Byte * const)&LATG;
00011C 0E??           04446         MOVLW   LOW(_LATG)
00011E 6E??           04447         MOVWF   r0x00
000120 0E??           04448         MOVLW   HIGH(_LATG)
000122 6E??           04449         MOVWF   r0x01
000124 50??           04450         MOVF    r0x01, W
000126 6E??           04451         MOVWF   r0x01
000128 50??           04452         MOVF    r0x00, W
00012A 6E??           04453         MOVWF   r0x00
00012C 0E80           04454         MOVLW   0x80
00012E 6E??           04455         MOVWF   r0x02
000130 C??? F???      04456         MOVFF   r0x02, PRODH
000134 C??? F???      04457         MOVFF   r0x01, PRODL
000138 50??           04458         MOVF    r0x00, W
00013A D???           04459         BRA     _00174_DS_
00013C                04460 _00172_DS_:
                      04461 ;       .line   107; Port.c     return NULLPTR;
00013C 6AF4           04462         CLRF    PRODH
00013E 6AF3           04463         CLRF    PRODL
000140 6AE8           04464         CLRF    WREG
000142                04465 _00174_DS_:
                      04466 ;       .line   108; Port.c     }
000142 CFE4 F000      04467         MOVFF   PREINC1, r0x02
000146 CFE4 F000      04468         MOVFF   PREINC1, r0x01
00014A CFE4 F000      04469         MOVFF   PREINC1, r0x00
00014E CFE4 FFD9      04470         MOVFF   PREINC1, FSR2L
000152 0012           04471         RETURN  
                      04472 
                      04473 ; ; Starting pCode block
                      04474 S_Port__GetPortTRIS     code
000000                04475 _GetPortTRIS:
                      04476 ;       .line   65; Port.c      Byte * const GetPortTRIS(ePort pInput)
000000 CFD9 FFE5      04477         MOVFF   FSR2L, POSTDEC1
000004 CFE1 FFD9      04478         MOVFF   FSR1L, FSR2L
000008 C??? F???      04479         MOVFF   r0x00, POSTDEC1
00000C C??? F???      04480         MOVFF   r0x01, POSTDEC1
000010 C??? F???      04481         MOVFF   r0x02, POSTDEC1
000014 0E02           04482         MOVLW   0x02
gpasm-1.4.2 #1169 (Jan  2 2016) build/default   9-13-2016  14:11:57         PAGE 86


LOC    OBJECT CODE    LINE  SOURCE TEXT
  VALUE

000016 CFDB F000      04483         MOVFF   PLUSW2, r0x00
                      04484 ;       .line   67; Port.c      switch (pInput)
00001A 0E07           04485         MOVLW   0x07
00001C 5C??           04486         SUBWF   r0x00, W
00001E B0D8           04487         BTFSC   STATUS, 0
000020 D???           04488         BRA     _00152_DS_
000022 6AFA           04489         CLRF    PCLATH
000024 6AFB           04490         CLRF    PCLATU
000026 34??           04491         RLCF    r0x00, W
000028 36FA           04492         RLCF    PCLATH, F
00002A 34E8           04493         RLCF    WREG, W
00002C 36FA           04494         RLCF    PCLATH, F
00002E 0BFC           04495         ANDLW   0xfc
000030 0F??           04496         ADDLW   LOW(_00160_DS_)
000032 6EE5           04497         MOVWF   POSTDEC1
000034 0E??           04498         MOVLW   HIGH(_00160_DS_)
000036 22FA           04499         ADDWFC  PCLATH, F
000038 0E??           04500         MOVLW   UPPER(_00160_DS_)
00003A 22FB           04501         ADDWFC  PCLATU, F
00003C 50E4           04502         MOVF    PREINC1, W
00003E 6EF9           04503         MOVWF   PCL
000040                04504 _00160_DS_:
000040 EF?? F0??      04505         GOTO    _00145_DS_
000044 EF?? F0??      04506         GOTO    _00146_DS_
000048 EF?? F0??      04507         GOTO    _00147_DS_
00004C EF?? F0??      04508         GOTO    _00148_DS_
000050 EF?? F0??      04509         GOTO    _00149_DS_
000054 EF?? F0??      04510         GOTO    _00150_DS_
000058 EF?? F0??      04511         GOTO    _00151_DS_
00005C                04512 _00145_DS_:
                      04513 ;       .line   70; Port.c      return (Byte * const)&TRISA;
00005C 0E??           04514         MOVLW   LOW(_TRISA)
00005E 6E??           04515         MOVWF   r0x00
000060 0E??           04516         MOVLW   HIGH(_TRISA)
000062 6E??           04517         MOVWF   r0x01
000064 50??           04518         MOVF    r0x01, W
000066 6E??           04519         MOVWF   r0x01
000068 50??           04520         MOVF    r0x00, W
00006A 6E??           04521         MOVWF   r0x00
00006C 0E80           04522         MOVLW   0x80
00006E 6E??           04523         MOVWF   r0x02
000070 C??? F???      04524         MOVFF   r0x02, PRODH
000074 C??? F???      04525         MOVFF   r0x01, PRODL
000078 50??           04526         MOVF    r0x00, W
00007A D???           04527         BRA     _00154_DS_
00007C                04528 _00146_DS_:
                      04529 ;       .line   72; Port.c      return (Byte * const)&TRISB;
00007C 0E??           04530         MOVLW   LOW(_TRISB)
00007E 6E??           04531         MOVWF   r0x00
000080 0E??           04532         MOVLW   HIGH(_TRISB)
000082 6E??           04533         MOVWF   r0x01
000084 50??           04534         MOVF    r0x01, W
000086 6E??           04535         MOVWF   r0x01
gpasm-1.4.2 #1169 (Jan  2 2016) build/default   9-13-2016  14:11:57         PAGE 87


LOC    OBJECT CODE    LINE  SOURCE TEXT
  VALUE

000088 50??           04536         MOVF    r0x00, W
00008A 6E??           04537         MOVWF   r0x00
00008C 0E80           04538         MOVLW   0x80
00008E 6E??           04539         MOVWF   r0x02
000090 C??? F???      04540         MOVFF   r0x02, PRODH
000094 C??? F???      04541         MOVFF   r0x01, PRODL
000098 50??           04542         MOVF    r0x00, W
00009A D???           04543         BRA     _00154_DS_
00009C                04544 _00147_DS_:
                      04545 ;       .line   74; Port.c      return (Byte * const)&TRISC;
00009C 0E??           04546         MOVLW   LOW(_TRISC)
00009E 6E??           04547         MOVWF   r0x00
0000A0 0E??           04548         MOVLW   HIGH(_TRISC)
0000A2 6E??           04549         MOVWF   r0x01
0000A4 50??           04550         MOVF    r0x01, W
0000A6 6E??           04551         MOVWF   r0x01
0000A8 50??           04552         MOVF    r0x00, W
0000AA 6E??           04553         MOVWF   r0x00
0000AC 0E80           04554         MOVLW   0x80
0000AE 6E??           04555         MOVWF   r0x02
0000B0 C??? F???      04556         MOVFF   r0x02, PRODH
0000B4 C??? F???      04557         MOVFF   r0x01, PRODL
0000B8 50??           04558         MOVF    r0x00, W
0000BA D???           04559         BRA     _00154_DS_
0000BC                04560 _00148_DS_:
                      04561 ;       .line   76; Port.c      return (Byte * const)&TRISD;
0000BC 0E??           04562         MOVLW   LOW(_TRISD)
0000BE 6E??           04563         MOVWF   r0x00
0000C0 0E??           04564         MOVLW   HIGH(_TRISD)
0000C2 6E??           04565         MOVWF   r0x01
0000C4 50??           04566         MOVF    r0x01, W
0000C6 6E??           04567         MOVWF   r0x01
0000C8 50??           04568         MOVF    r0x00, W
0000CA 6E??           04569         MOVWF   r0x00
0000CC 0E80           04570         MOVLW   0x80
0000CE 6E??           04571         MOVWF   r0x02
0000D0 C??? F???      04572         MOVFF   r0x02, PRODH
0000D4 C??? F???      04573         MOVFF   r0x01, PRODL
0000D8 50??           04574         MOVF    r0x00, W
0000DA D???           04575         BRA     _00154_DS_
0000DC                04576 _00149_DS_:
                      04577 ;       .line   78; Port.c      return (Byte * const)&TRISE;
0000DC 0E??           04578         MOVLW   LOW(_TRISE)
0000DE 6E??           04579         MOVWF   r0x00
0000E0 0E??           04580         MOVLW   HIGH(_TRISE)
0000E2 6E??           04581         MOVWF   r0x01
0000E4 50??           04582         MOVF    r0x01, W
0000E6 6E??           04583         MOVWF   r0x01
0000E8 50??           04584         MOVF    r0x00, W
0000EA 6E??           04585         MOVWF   r0x00
0000EC 0E80           04586         MOVLW   0x80
0000EE 6E??           04587         MOVWF   r0x02
0000F0 C??? F???      04588         MOVFF   r0x02, PRODH
gpasm-1.4.2 #1169 (Jan  2 2016) build/default   9-13-2016  14:11:57         PAGE 88


LOC    OBJECT CODE    LINE  SOURCE TEXT
  VALUE

0000F4 C??? F???      04589         MOVFF   r0x01, PRODL
0000F8 50??           04590         MOVF    r0x00, W
0000FA D???           04591         BRA     _00154_DS_
0000FC                04592 _00150_DS_:
                      04593 ;       .line   80; Port.c      return (Byte * const)&TRISF;
0000FC 0E??           04594         MOVLW   LOW(_TRISF)
0000FE 6E??           04595         MOVWF   r0x00
000100 0E??           04596         MOVLW   HIGH(_TRISF)
000102 6E??           04597         MOVWF   r0x01
000104 50??           04598         MOVF    r0x01, W
000106 6E??           04599         MOVWF   r0x01
000108 50??           04600         MOVF    r0x00, W
00010A 6E??           04601         MOVWF   r0x00
00010C 0E80           04602         MOVLW   0x80
00010E 6E??           04603         MOVWF   r0x02
000110 C??? F???      04604         MOVFF   r0x02, PRODH
000114 C??? F???      04605         MOVFF   r0x01, PRODL
000118 50??           04606         MOVF    r0x00, W
00011A D???           04607         BRA     _00154_DS_
00011C                04608 _00151_DS_:
                      04609 ;       .line   82; Port.c      return (Byte * const)&TRISG;
00011C 0E??           04610         MOVLW   LOW(_TRISG)
00011E 6E??           04611         MOVWF   r0x00
000120 0E??           04612         MOVLW   HIGH(_TRISG)
000122 6E??           04613         MOVWF   r0x01
000124 50??           04614         MOVF    r0x01, W
000126 6E??           04615         MOVWF   r0x01
000128 50??           04616         MOVF    r0x00, W
00012A 6E??           04617         MOVWF   r0x00
00012C 0E80           04618         MOVLW   0x80
00012E 6E??           04619         MOVWF   r0x02
000130 C??? F???      04620         MOVFF   r0x02, PRODH
000134 C??? F???      04621         MOVFF   r0x01, PRODL
000138 50??           04622         MOVF    r0x00, W
00013A D???           04623         BRA     _00154_DS_
00013C                04624 _00152_DS_:
                      04625 ;       .line   84; Port.c      return NULLPTR;
00013C 6AF4           04626         CLRF    PRODH
00013E 6AF3           04627         CLRF    PRODL
000140 6AE8           04628         CLRF    WREG
000142                04629 _00154_DS_:
                      04630 ;       .line   85; Port.c      }
000142 CFE4 F000      04631         MOVFF   PREINC1, r0x02
000146 CFE4 F000      04632         MOVFF   PREINC1, r0x01
00014A CFE4 F000      04633         MOVFF   PREINC1, r0x00
00014E CFE4 FFD9      04634         MOVFF   PREINC1, FSR2L
000152 0012           04635         RETURN  
                      04636 
                      04637 ; ; Starting pCode block
                      04638 S_Port__GetPortPORT     code
000000                04639 _GetPortPORT:
                      04640 ;       .line   42; Port.c      Byte * const GetPortPORT(ePort pInput)
000000 CFD9 FFE5      04641         MOVFF   FSR2L, POSTDEC1
gpasm-1.4.2 #1169 (Jan  2 2016) build/default   9-13-2016  14:11:57         PAGE 89


LOC    OBJECT CODE    LINE  SOURCE TEXT
  VALUE

000004 CFE1 FFD9      04642         MOVFF   FSR1L, FSR2L
000008 C??? F???      04643         MOVFF   r0x00, POSTDEC1
00000C C??? F???      04644         MOVFF   r0x01, POSTDEC1
000010 C??? F???      04645         MOVFF   r0x02, POSTDEC1
000014 0E02           04646         MOVLW   0x02
000016 CFDB F000      04647         MOVFF   PLUSW2, r0x00
                      04648 ;       .line   44; Port.c      switch (pInput)
00001A 0E07           04649         MOVLW   0x07
00001C 5C??           04650         SUBWF   r0x00, W
00001E B0D8           04651         BTFSC   STATUS, 0
000020 D???           04652         BRA     _00132_DS_
000022 6AFA           04653         CLRF    PCLATH
000024 6AFB           04654         CLRF    PCLATU
000026 34??           04655         RLCF    r0x00, W
000028 36FA           04656         RLCF    PCLATH, F
00002A 34E8           04657         RLCF    WREG, W
00002C 36FA           04658         RLCF    PCLATH, F
00002E 0BFC           04659         ANDLW   0xfc
000030 0F??           04660         ADDLW   LOW(_00140_DS_)
000032 6EE5           04661         MOVWF   POSTDEC1
000034 0E??           04662         MOVLW   HIGH(_00140_DS_)
000036 22FA           04663         ADDWFC  PCLATH, F
000038 0E??           04664         MOVLW   UPPER(_00140_DS_)
00003A 22FB           04665         ADDWFC  PCLATU, F
00003C 50E4           04666         MOVF    PREINC1, W
00003E 6EF9           04667         MOVWF   PCL
000040                04668 _00140_DS_:
000040 EF?? F0??      04669         GOTO    _00125_DS_
000044 EF?? F0??      04670         GOTO    _00126_DS_
000048 EF?? F0??      04671         GOTO    _00127_DS_
00004C EF?? F0??      04672         GOTO    _00128_DS_
000050 EF?? F0??      04673         GOTO    _00129_DS_
000054 EF?? F0??      04674         GOTO    _00130_DS_
000058 EF?? F0??      04675         GOTO    _00131_DS_
00005C                04676 _00125_DS_:
                      04677 ;       .line   47; Port.c      return (Byte * const)&PORTA;
00005C 0E??           04678         MOVLW   LOW(_PORTA)
00005E 6E??           04679         MOVWF   r0x00
000060 0E??           04680         MOVLW   HIGH(_PORTA)
000062 6E??           04681         MOVWF   r0x01
000064 50??           04682         MOVF    r0x01, W
000066 6E??           04683         MOVWF   r0x01
000068 50??           04684         MOVF    r0x00, W
00006A 6E??           04685         MOVWF   r0x00
00006C 0E80           04686         MOVLW   0x80
00006E 6E??           04687         MOVWF   r0x02
000070 C??? F???      04688         MOVFF   r0x02, PRODH
000074 C??? F???      04689         MOVFF   r0x01, PRODL
000078 50??           04690         MOVF    r0x00, W
00007A D???           04691         BRA     _00134_DS_
00007C                04692 _00126_DS_:
                      04693 ;       .line   49; Port.c      return (Byte * const)&PORTB;
00007C 0E??           04694         MOVLW   LOW(_PORTB)
gpasm-1.4.2 #1169 (Jan  2 2016) build/default   9-13-2016  14:11:57         PAGE 90


LOC    OBJECT CODE    LINE  SOURCE TEXT
  VALUE

00007E 6E??           04695         MOVWF   r0x00
000080 0E??           04696         MOVLW   HIGH(_PORTB)
000082 6E??           04697         MOVWF   r0x01
000084 50??           04698         MOVF    r0x01, W
000086 6E??           04699         MOVWF   r0x01
000088 50??           04700         MOVF    r0x00, W
00008A 6E??           04701         MOVWF   r0x00
00008C 0E80           04702         MOVLW   0x80
00008E 6E??           04703         MOVWF   r0x02
000090 C??? F???      04704         MOVFF   r0x02, PRODH
000094 C??? F???      04705         MOVFF   r0x01, PRODL
000098 50??           04706         MOVF    r0x00, W
00009A D???           04707         BRA     _00134_DS_
00009C                04708 _00127_DS_:
                      04709 ;       .line   51; Port.c      return (Byte * const)&PORTC;
00009C 0E??           04710         MOVLW   LOW(_PORTC)
00009E 6E??           04711         MOVWF   r0x00
0000A0 0E??           04712         MOVLW   HIGH(_PORTC)
0000A2 6E??           04713         MOVWF   r0x01
0000A4 50??           04714         MOVF    r0x01, W
0000A6 6E??           04715         MOVWF   r0x01
0000A8 50??           04716         MOVF    r0x00, W
0000AA 6E??           04717         MOVWF   r0x00
0000AC 0E80           04718         MOVLW   0x80
0000AE 6E??           04719         MOVWF   r0x02
0000B0 C??? F???      04720         MOVFF   r0x02, PRODH
0000B4 C??? F???      04721         MOVFF   r0x01, PRODL
0000B8 50??           04722         MOVF    r0x00, W
0000BA D???           04723         BRA     _00134_DS_
0000BC                04724 _00128_DS_:
                      04725 ;       .line   53; Port.c      return (Byte * const)&PORTD;
0000BC 0E??           04726         MOVLW   LOW(_PORTD)
0000BE 6E??           04727         MOVWF   r0x00
0000C0 0E??           04728         MOVLW   HIGH(_PORTD)
0000C2 6E??           04729         MOVWF   r0x01
0000C4 50??           04730         MOVF    r0x01, W
0000C6 6E??           04731         MOVWF   r0x01
0000C8 50??           04732         MOVF    r0x00, W
0000CA 6E??           04733         MOVWF   r0x00
0000CC 0E80           04734         MOVLW   0x80
0000CE 6E??           04735         MOVWF   r0x02
0000D0 C??? F???      04736         MOVFF   r0x02, PRODH
0000D4 C??? F???      04737         MOVFF   r0x01, PRODL
0000D8 50??           04738         MOVF    r0x00, W
0000DA D???           04739         BRA     _00134_DS_
0000DC                04740 _00129_DS_:
                      04741 ;       .line   55; Port.c      return (Byte * const)&PORTE;
0000DC 0E??           04742         MOVLW   LOW(_PORTE)
0000DE 6E??           04743         MOVWF   r0x00
0000E0 0E??           04744         MOVLW   HIGH(_PORTE)
0000E2 6E??           04745         MOVWF   r0x01
0000E4 50??           04746         MOVF    r0x01, W
0000E6 6E??           04747         MOVWF   r0x01
gpasm-1.4.2 #1169 (Jan  2 2016) build/default   9-13-2016  14:11:57         PAGE 91


LOC    OBJECT CODE    LINE  SOURCE TEXT
  VALUE

0000E8 50??           04748         MOVF    r0x00, W
0000EA 6E??           04749         MOVWF   r0x00
0000EC 0E80           04750         MOVLW   0x80
0000EE 6E??           04751         MOVWF   r0x02
0000F0 C??? F???      04752         MOVFF   r0x02, PRODH
0000F4 C??? F???      04753         MOVFF   r0x01, PRODL
0000F8 50??           04754         MOVF    r0x00, W
0000FA D???           04755         BRA     _00134_DS_
0000FC                04756 _00130_DS_:
                      04757 ;       .line   57; Port.c      return (Byte * const)&PORTF;
0000FC 0E??           04758         MOVLW   LOW(_PORTF)
0000FE 6E??           04759         MOVWF   r0x00
000100 0E??           04760         MOVLW   HIGH(_PORTF)
000102 6E??           04761         MOVWF   r0x01
000104 50??           04762         MOVF    r0x01, W
000106 6E??           04763         MOVWF   r0x01
000108 50??           04764         MOVF    r0x00, W
00010A 6E??           04765         MOVWF   r0x00
00010C 0E80           04766         MOVLW   0x80
00010E 6E??           04767         MOVWF   r0x02
000110 C??? F???      04768         MOVFF   r0x02, PRODH
000114 C??? F???      04769         MOVFF   r0x01, PRODL
000118 50??           04770         MOVF    r0x00, W
00011A D???           04771         BRA     _00134_DS_
00011C                04772 _00131_DS_:
                      04773 ;       .line   59; Port.c      return (Byte * const)&PORTG;
00011C 0E??           04774         MOVLW   LOW(_PORTG)
00011E 6E??           04775         MOVWF   r0x00
000120 0E??           04776         MOVLW   HIGH(_PORTG)
000122 6E??           04777         MOVWF   r0x01
000124 50??           04778         MOVF    r0x01, W
000126 6E??           04779         MOVWF   r0x01
000128 50??           04780         MOVF    r0x00, W
00012A 6E??           04781         MOVWF   r0x00
00012C 0E80           04782         MOVLW   0x80
00012E 6E??           04783         MOVWF   r0x02
000130 C??? F???      04784         MOVFF   r0x02, PRODH
000134 C??? F???      04785         MOVFF   r0x01, PRODL
000138 50??           04786         MOVF    r0x00, W
00013A D???           04787         BRA     _00134_DS_
00013C                04788 _00132_DS_:
                      04789 ;       .line   61; Port.c      return NULLPTR;
00013C 6AF4           04790         CLRF    PRODH
00013E 6AF3           04791         CLRF    PRODL
000140 6AE8           04792         CLRF    WREG
000142                04793 _00134_DS_:
                      04794 ;       .line   62; Port.c      }
000142 CFE4 F000      04795         MOVFF   PREINC1, r0x02
000146 CFE4 F000      04796         MOVFF   PREINC1, r0x01
00014A CFE4 F000      04797         MOVFF   PREINC1, r0x00
00014E CFE4 FFD9      04798         MOVFF   PREINC1, FSR2L
000152 0012           04799         RETURN  
                      04800 
gpasm-1.4.2 #1169 (Jan  2 2016) build/default   9-13-2016  14:11:57         PAGE 92


LOC    OBJECT CODE    LINE  SOURCE TEXT
  VALUE

                      04801 ; ; Starting pCode block
                      04802 S_Port__GetPortProperties       code
000000                04803 _GetPortProperties:
                      04804 ;       .line   19; Port.c      PortProperty const * GetPortProperties(ePort pInput)
000000 CFD9 FFE5      04805         MOVFF   FSR2L, POSTDEC1
000004 CFE1 FFD9      04806         MOVFF   FSR1L, FSR2L
000008 C??? F???      04807         MOVFF   r0x00, POSTDEC1
00000C C??? F???      04808         MOVFF   r0x01, POSTDEC1
000010 C??? F???      04809         MOVFF   r0x02, POSTDEC1
000014 0E02           04810         MOVLW   0x02
000016 CFDB F000      04811         MOVFF   PLUSW2, r0x00
                      04812 ;       .line   21; Port.c      switch (pInput) 
00001A 0E07           04813         MOVLW   0x07
00001C 5C??           04814         SUBWF   r0x00, W
00001E B0D8           04815         BTFSC   STATUS, 0
000020 D???           04816         BRA     _00112_DS_
000022 6AFA           04817         CLRF    PCLATH
000024 6AFB           04818         CLRF    PCLATU
000026 34??           04819         RLCF    r0x00, W
000028 36FA           04820         RLCF    PCLATH, F
00002A 34E8           04821         RLCF    WREG, W
00002C 36FA           04822         RLCF    PCLATH, F
00002E 0BFC           04823         ANDLW   0xfc
000030 0F??           04824         ADDLW   LOW(_00120_DS_)
000032 6EE5           04825         MOVWF   POSTDEC1
000034 0E??           04826         MOVLW   HIGH(_00120_DS_)
000036 22FA           04827         ADDWFC  PCLATH, F
000038 0E??           04828         MOVLW   UPPER(_00120_DS_)
00003A 22FB           04829         ADDWFC  PCLATU, F
00003C 50E4           04830         MOVF    PREINC1, W
00003E 6EF9           04831         MOVWF   PCL
000040                04832 _00120_DS_:
000040 EF?? F0??      04833         GOTO    _00105_DS_
000044 EF?? F0??      04834         GOTO    _00106_DS_
000048 EF?? F0??      04835         GOTO    _00107_DS_
00004C EF?? F0??      04836         GOTO    _00108_DS_
000050 EF?? F0??      04837         GOTO    _00109_DS_
000054 EF?? F0??      04838         GOTO    _00110_DS_
000058 EF?? F0??      04839         GOTO    _00111_DS_
00005C                04840 _00105_DS_:
                      04841 ;       .line   24; Port.c      return (PortProperty const *)&PortA_Property;
00005C 0E??           04842         MOVLW   UPPER(_PortA_Property)
00005E 6E??           04843         MOVWF   r0x02
000060 0E??           04844         MOVLW   HIGH(_PortA_Property)
000062 6E??           04845         MOVWF   r0x01
000064 0E??           04846         MOVLW   LOW(_PortA_Property)
000066 6E??           04847         MOVWF   r0x00
000068 C??? F???      04848         MOVFF   r0x02, PRODH
00006C C??? F???      04849         MOVFF   r0x01, PRODL
000070 50??           04850         MOVF    r0x00, W
000072 D???           04851         BRA     _00114_DS_
000074                04852 _00106_DS_:
                      04853 ;       .line   26; Port.c      return (PortProperty const *)&PortB_Property;
gpasm-1.4.2 #1169 (Jan  2 2016) build/default   9-13-2016  14:11:57         PAGE 93


LOC    OBJECT CODE    LINE  SOURCE TEXT
  VALUE

000074 0E??           04854         MOVLW   UPPER(_PortB_Property)
000076 6E??           04855         MOVWF   r0x02
000078 0E??           04856         MOVLW   HIGH(_PortB_Property)
00007A 6E??           04857         MOVWF   r0x01
00007C 0E??           04858         MOVLW   LOW(_PortB_Property)
00007E 6E??           04859         MOVWF   r0x00
000080 C??? F???      04860         MOVFF   r0x02, PRODH
000084 C??? F???      04861         MOVFF   r0x01, PRODL
000088 50??           04862         MOVF    r0x00, W
00008A D???           04863         BRA     _00114_DS_
00008C                04864 _00107_DS_:
                      04865 ;       .line   28; Port.c      return (PortProperty const *)&PortC_Property;
00008C 0E??           04866         MOVLW   UPPER(_PortC_Property)
00008E 6E??           04867         MOVWF   r0x02
000090 0E??           04868         MOVLW   HIGH(_PortC_Property)
000092 6E??           04869         MOVWF   r0x01
000094 0E??           04870         MOVLW   LOW(_PortC_Property)
000096 6E??           04871         MOVWF   r0x00
000098 C??? F???      04872         MOVFF   r0x02, PRODH
00009C C??? F???      04873         MOVFF   r0x01, PRODL
0000A0 50??           04874         MOVF    r0x00, W
0000A2 D???           04875         BRA     _00114_DS_
0000A4                04876 _00108_DS_:
                      04877 ;       .line   30; Port.c      return (PortProperty const *)&PortD_Property;
0000A4 0E??           04878         MOVLW   UPPER(_PortD_Property)
0000A6 6E??           04879         MOVWF   r0x02
0000A8 0E??           04880         MOVLW   HIGH(_PortD_Property)
0000AA 6E??           04881         MOVWF   r0x01
0000AC 0E??           04882         MOVLW   LOW(_PortD_Property)
0000AE 6E??           04883         MOVWF   r0x00
0000B0 C??? F???      04884         MOVFF   r0x02, PRODH
0000B4 C??? F???      04885         MOVFF   r0x01, PRODL
0000B8 50??           04886         MOVF    r0x00, W
0000BA D???           04887         BRA     _00114_DS_
0000BC                04888 _00109_DS_:
                      04889 ;       .line   32; Port.c      return (PortProperty const *)&PortE_Property;
0000BC 0E??           04890         MOVLW   UPPER(_PortE_Property)
0000BE 6E??           04891         MOVWF   r0x02
0000C0 0E??           04892         MOVLW   HIGH(_PortE_Property)
0000C2 6E??           04893         MOVWF   r0x01
0000C4 0E??           04894         MOVLW   LOW(_PortE_Property)
0000C6 6E??           04895         MOVWF   r0x00
0000C8 C??? F???      04896         MOVFF   r0x02, PRODH
0000CC C??? F???      04897         MOVFF   r0x01, PRODL
0000D0 50??           04898         MOVF    r0x00, W
0000D2 D???           04899         BRA     _00114_DS_
0000D4                04900 _00110_DS_:
                      04901 ;       .line   34; Port.c      return (PortProperty const *)&PortF_Property;
0000D4 0E??           04902         MOVLW   UPPER(_PortF_Property)
0000D6 6E??           04903         MOVWF   r0x02
0000D8 0E??           04904         MOVLW   HIGH(_PortF_Property)
0000DA 6E??           04905         MOVWF   r0x01
0000DC 0E??           04906         MOVLW   LOW(_PortF_Property)
gpasm-1.4.2 #1169 (Jan  2 2016) build/default   9-13-2016  14:11:57         PAGE 94


LOC    OBJECT CODE    LINE  SOURCE TEXT
  VALUE

0000DE 6E??           04907         MOVWF   r0x00
0000E0 C??? F???      04908         MOVFF   r0x02, PRODH
0000E4 C??? F???      04909         MOVFF   r0x01, PRODL
0000E8 50??           04910         MOVF    r0x00, W
0000EA D???           04911         BRA     _00114_DS_
0000EC                04912 _00111_DS_:
                      04913 ;       .line   36; Port.c      return (PortProperty const *)&PortG_Property;
0000EC 0E??           04914         MOVLW   UPPER(_PortG_Property)
0000EE 6E??           04915         MOVWF   r0x02
0000F0 0E??           04916         MOVLW   HIGH(_PortG_Property)
0000F2 6E??           04917         MOVWF   r0x01
0000F4 0E??           04918         MOVLW   LOW(_PortG_Property)
0000F6 6E??           04919         MOVWF   r0x00
0000F8 C??? F???      04920         MOVFF   r0x02, PRODH
0000FC C??? F???      04921         MOVFF   r0x01, PRODL
000100 50??           04922         MOVF    r0x00, W
000102 D???           04923         BRA     _00114_DS_
000104                04924 _00112_DS_:
                      04925 ;       .line   38; Port.c      return NULLPTR;
000104 6AF4           04926         CLRF    PRODH
000106 6AF3           04927         CLRF    PRODL
000108 6AE8           04928         CLRF    WREG
00010A                04929 _00114_DS_:
                      04930 ;       .line   39; Port.c      }
00010A CFE4 F000      04931         MOVFF   PREINC1, r0x02
00010E CFE4 F000      04932         MOVFF   PREINC1, r0x01
000112 CFE4 F000      04933         MOVFF   PREINC1, r0x00
000116 CFE4 FFD9      04934         MOVFF   PREINC1, FSR2L
00011A 0012           04935         RETURN  
                      04936 
                      04937 ; ; Starting pCode block for Ival
                      04938         code
000000                04939 _PortA_Property:
000000 00FF 0000      04940         DB      0xff, 0x00, 0x00, 0x00
                      04941 ; ; Starting pCode block for Ival
000004                04942 _PortB_Property:
000004 FF00 0000      04943         DB      0x00, 0xff, 0x00, 0x00
                      04944 ; ; Starting pCode block for Ival
000008                04945 _PortC_Property:
000008 FFF0 0000      04946         DB      0xf0, 0xff, 0x00, 0x00
                      04947 ; ; Starting pCode block for Ival
00000C                04948 _PortD_Property:
00000C FFFF 0000      04949         DB      0xff, 0xff, 0x00, 0x00
                      04950 ; ; Starting pCode block for Ival
000010                04951 _PortE_Property:
000010 0000 0000      04952         DB      0x00, 0x00, 0x00, 0x00
                      04953 ; ; Starting pCode block for Ival
000014                04954 _PortF_Property:
000014 0FFF 0000      04955         DB      0xff, 0x0f, 0x00, 0x00
                      04956 ; ; Starting pCode block for Ival
000018                04957 _PortG_Property:
000018 FC00 0000      04958         DB      0x00, 0xfc, 0x00, 0x00
                      04959 
gpasm-1.4.2 #1169 (Jan  2 2016) build/default   9-13-2016  14:11:57         PAGE 95


LOC    OBJECT CODE    LINE  SOURCE TEXT
  VALUE

                      04960 
                      04961 ; Statistics:
                      04962 ; code size:     9966 (0x26ee) bytes ( 7.60%)
                      04963 ;                4983 (0x1377) words
                      04964 ; udata size:       0 (0x0000) bytes ( 0.00%)
                      04965 ; access size:     13 (0x000d) bytes
                      04966 
                      04967 
                      04968         end
gpasm-1.4.2 #1169 (Jan  2 2016) build/default   9-13-2016  14:11:57         PAGE 96


SYMBOL TABLE
  LABEL                             VALUE

FSR0L                             00000FE9
FSR1L                             00000FE1
FSR2L                             00000FD9
PCL                               00000FF9
PCLATH                            00000FFA
PCLATU                            00000FFB
PLUSW2                            00000FDB
POSTDEC1                          00000FE5
POSTINC1                          00000FE6
PREINC1                           00000FE4
PRODH                             00000FF4
PRODL                             00000FF3
STATUS                            00000FD8
TBLPTRL                           00000FF6
WREG                              00000FE8
_00105_DS_                        0000005C
_00106_DS_                        00000074
_00107_DS_                        0000008C
_00108_DS_                        000000A4
_00109_DS_                        000000BC
_00110_DS_                        000000D4
_00111_DS_                        000000EC
_00112_DS_                        00000104
_00114_DS_                        0000010A
_00120_DS_                        00000040
_00125_DS_                        0000005C
_00126_DS_                        0000007C
_00127_DS_                        0000009C
_00128_DS_                        000000BC
_00129_DS_                        000000DC
_00130_DS_                        000000FC
_00131_DS_                        0000011C
_00132_DS_                        0000013C
_00134_DS_                        00000142
_00140_DS_                        00000040
_00145_DS_                        0000005C
_00146_DS_                        0000007C
_00147_DS_                        0000009C
_00148_DS_                        000000BC
_00149_DS_                        000000DC
_00150_DS_                        000000FC
_00151_DS_                        0000011C
_00152_DS_                        0000013C
_00154_DS_                        00000142
_00160_DS_                        00000040
_00165_DS_                        0000005C
_00166_DS_                        0000007C
_00167_DS_                        0000009C
_00168_DS_                        000000BC
_00169_DS_                        000000DC
_00170_DS_                        000000FC
_00171_DS_                        0000011C
_00172_DS_                        0000013C
gpasm-1.4.2 #1169 (Jan  2 2016) build/default   9-13-2016  14:11:57         PAGE 97


SYMBOL TABLE
  LABEL                             VALUE 

_00174_DS_                        00000142
_00180_DS_                        00000040
_00186_DS_                        000000BA
_00193_DS_                        00000096
_00200_DS_                        0000007C
_00211_DS_                        000000B4
_00213_DS_                        0000016A
_00215_DS_                        0000016E
_00217_DS_                        00000224
_00219_DS_                        00000228
_00221_DS_                        000002DE
_00223_DS_                        000002E2
_00225_DS_                        00000398
_00228_DS_                        0000039C
_00229_DS_                        000003C4
_00247_DS_                        000000A4
_00252_DS_                        000000A8
_00253_DS_                        000000AA
_00254_DS_                        000000F6
_00255_DS_                        00000144
_00258_DS_                        00000186
_00264_DS_                        00000098
_00271_DS_                        00000072
_00272_DS_                        0000006C
_00277_DS_                        00000084
_00279_DS_                        0000013A
_00281_DS_                        0000013E
_00283_DS_                        000001F4
_00285_DS_                        000001F8
_00287_DS_                        000002AE
_00289_DS_                        000002B2
_00291_DS_                        00000368
_00294_DS_                        0000036C
_00295_DS_                        000003CC
_00313_DS_                        00000074
_00318_DS_                        0000010C
_00319_DS_                        0000010E
_00320_DS_                        0000015A
_00321_DS_                        000001A8
_00326_DS_                        000001EA
_00337_DS_                        000000D6
_00339_DS_                        000000FC
_00346_DS_                        0000008A
_00347_DS_                        0000007A
_00348_DS_                        00000084
_00349_DS_                        00000082
_00354_DS_                        00000088
_00356_DS_                        0000013E
_00358_DS_                        00000142
_00360_DS_                        000001F8
_00362_DS_                        000001FC
_00364_DS_                        000002B2
_00366_DS_                        000002B6
gpasm-1.4.2 #1169 (Jan  2 2016) build/default   9-13-2016  14:11:57         PAGE 98


SYMBOL TABLE
  LABEL                             VALUE 

_00368_DS_                        0000036C
_00371_DS_                        00000370
_00372_DS_                        00000438
_00390_DS_                        00000078
_00395_DS_                        000001A4
_00396_DS_                        000001A6
_00397_DS_                        000001F2
_00398_DS_                        00000240
_00403_DS_                        00000282
_00418_DS_                        0000016E
_00420_DS_                        00000194
_00427_DS_                        0000008A
_00428_DS_                        0000007A
_00429_DS_                        00000084
_00430_DS_                        00000082
_00435_DS_                        0000007A
_00437_DS_                        000000DA
_00439_DS_                        000000DE
_00441_DS_                        0000017C
_00443_DS_                        00000180
_00445_DS_                        0000021E
_00447_DS_                        00000222
_00449_DS_                        00000282
_00452_DS_                        00000286
_00453_DS_                        000003F0
_00471_DS_                        0000006A
_00476_DS_                        00000372
_00477_DS_                        00000374
_00478_DS_                        000003B8
_00479_DS_                        000003FE
_00484_DS_                        00000438
_00506_DS_                        0000033A
_00507_DS_                        0000033C
_00509_DS_                        00000362
_ADCON0                           00000000
_ADCON0bits                       00000000
_ADCON1                           00000000
_ADCON1bits                       00000000
_ADRES                            00000000
_ADRESH                           00000000
_ADRESL                           00000000
_ANCON0                           00000000
_ANCON0bits                       00000000
_ANCON1                           00000000
_ANCON1bits                       00000000
_BAUDCON                          00000000
_BAUDCON1                         00000000
_BAUDCON1bits                     00000000
_BAUDCON2                         00000000
_BAUDCON2bits                     00000000
_BAUDCONbits                      00000000
_BSR                              00000000
_Byte_SetBit                      00000000
gpasm-1.4.2 #1169 (Jan  2 2016) build/default   9-13-2016  14:11:57         PAGE 99


SYMBOL TABLE
  LABEL                             VALUE 

_Byte_SetPair                     00000000
_Byte_SetPort                     00000000
_Byte_SetQuad                     00000000
_CCP1CON                          00000000
_CCP1CONbits                      00000000
_CCP2CON                          00000000
_CCP2CONbits                      00000000
_CCP3CON                          00000000
_CCP3CONbits                      00000000
_CCP4CON                          00000000
_CCP4CONbits                      00000000
_CCP5CON                          00000000
_CCP5CONbits                      00000000
_CCPR1                            00000000
_CCPR1H                           00000000
_CCPR1L                           00000000
_CCPR2                            00000000
_CCPR2H                           00000000
_CCPR2L                           00000000
_CCPR3                            00000000
_CCPR3H                           00000000
_CCPR3L                           00000000
_CCPR4                            00000000
_CCPR4H                           00000000
_CCPR4L                           00000000
_CCPR5                            00000000
_CCPR5H                           00000000
_CCPR5L                           00000000
_CM1CON                           00000000
_CM1CON1                          00000000
_CM1CON1bits                      00000000
_CM1CONbits                       00000000
_CM2CON                           00000000
_CM2CON1                          00000000
_CM2CON1bits                      00000000
_CM2CONbits                       00000000
_CMSTAT                           00000000
_CMSTATUS                         00000000
_CMSTATUSbits                     00000000
_CMSTATbits                       00000000
_CVRCON                           00000000
_CVRCONbits                       00000000
_DDRA                             00000000
_DDRAbits                         00000000
_DDRB                             00000000
_DDRBbits                         00000000
_DDRC                             00000000
_DDRCbits                         00000000
_DDRD                             00000000
_DDRDbits                         00000000
_DDRE                             00000000
_DDREbits                         00000000
_DDRF                             00000000
gpasm-1.4.2 #1169 (Jan  2 2016) build/default   9-13-2016  14:11:57         PAGE 100


SYMBOL TABLE
  LABEL                             VALUE 

_DDRFbits                         00000000
_DDRG                             00000000
_DDRGbits                         00000000
_ECCP1AS                          00000000
_ECCP1ASbits                      00000000
_ECCP1CON                         00000000
_ECCP1CONbits                     00000000
_ECCP1DEL                         00000000
_ECCP1DELbits                     00000000
_ECCP2AS                          00000000
_ECCP2ASbits                      00000000
_ECCP2CON                         00000000
_ECCP2CONbits                     00000000
_ECCP2DEL                         00000000
_ECCP2DELbits                     00000000
_ECCP3AS                          00000000
_ECCP3ASbits                      00000000
_ECCP3CON                         00000000
_ECCP3CONbits                     00000000
_ECCP3DEL                         00000000
_ECCP3DELbits                     00000000
_EECON1                           00000000
_EECON1bits                       00000000
_EECON2                           00000000
_FSR0H                            00000000
_FSR0L                            00000000
_FSR1H                            00000000
_FSR1L                            00000000
_FSR2H                            00000000
_FSR2L                            00000000
_GetPortLAT                       00000000
_GetPortPORT                      00000000
_GetPortProperties                00000000
_GetPortTRIS                      00000000
_INDF0                            00000000
_INDF1                            00000000
_INDF2                            00000000
_INTCON                           00000000
_INTCON2                          00000000
_INTCON2bits                      00000000
_INTCON3                          00000000
_INTCON3bits                      00000000
_INTCONbits                       00000000
_IPR1                             00000000
_IPR1bits                         00000000
_IPR2                             00000000
_IPR2bits                         00000000
_IPR3                             00000000
_IPR3bits                         00000000
_LATA                             00000000
_LATAbits                         00000000
_LATB                             00000000
_LATBbits                         00000000
gpasm-1.4.2 #1169 (Jan  2 2016) build/default   9-13-2016  14:11:57         PAGE 101


SYMBOL TABLE
  LABEL                             VALUE 

_LATC                             00000000
_LATCbits                         00000000
_LATD                             00000000
_LATDbits                         00000000
_LATE                             00000000
_LATEbits                         00000000
_LATF                             00000000
_LATFbits                         00000000
_LATG                             00000000
_LATGbits                         00000000
_ODCON1                           00000000
_ODCON1bits                       00000000
_ODCON2                           00000000
_ODCON2bits                       00000000
_ODCON3                           00000000
_ODCON3bits                       00000000
_OSCCON                           00000000
_OSCCONbits                       00000000
_OSCTUNE                          00000000
_OSCTUNEbits                      00000000
_PADCFG1                          00000000
_PADCFG1bits                      00000000
_PC                               00000000
_PCL                              00000000
_PCLATH                           00000000
_PCLATU                           00000000
_PIE1                             00000000
_PIE1bits                         00000000
_PIE2                             00000000
_PIE2bits                         00000000
_PIE3                             00000000
_PIE3bits                         00000000
_PIR1                             00000000
_PIR1bits                         00000000
_PIR2                             00000000
_PIR2bits                         00000000
_PIR3                             00000000
_PIR3bits                         00000000
_PLUSW0                           00000000
_PLUSW1                           00000000
_PLUSW2                           00000000
_PMADDR                           00000000
_PMADDRH                          00000000
_PMADDRHbits                      00000000
_PMADDRL                          00000000
_PMCON                            00000000
_PMCONH                           00000000
_PMCONHbits                       00000000
_PMCONL                           00000000
_PMCONLbits                       00000000
_PMDIN1                           00000000
_PMDIN1H                          00000000
_PMDIN1L                          00000000
gpasm-1.4.2 #1169 (Jan  2 2016) build/default   9-13-2016  14:11:57         PAGE 102


SYMBOL TABLE
  LABEL                             VALUE 

_PMDIN2                           00000000
_PMDIN2H                          00000000
_PMDIN2L                          00000000
_PMDOUT1                          00000000
_PMDOUT1H                         00000000
_PMDOUT1L                         00000000
_PMDOUT2                          00000000
_PMDOUT2H                         00000000
_PMDOUT2L                         00000000
_PMEH                             00000000
_PMEHbits                         00000000
_PMEL                             00000000
_PMELbits                         00000000
_PMEN                             00000000
_PMMODE                           00000000
_PMMODEH                          00000000
_PMMODEHbits                      00000000
_PMMODEL                          00000000
_PMMODELbits                      00000000
_PMSTAT                           00000000
_PMSTATH                          00000000
_PMSTATHbits                      00000000
_PMSTATL                          00000000
_PMSTATLbits                      00000000
_PORTA                            00000000
_PORTAbits                        00000000
_PORTB                            00000000
_PORTBbits                        00000000
_PORTC                            00000000
_PORTCbits                        00000000
_PORTD                            00000000
_PORTDbits                        00000000
_PORTE                            00000000
_PORTEbits                        00000000
_PORTF                            00000000
_PORTFbits                        00000000
_PORTG                            00000000
_PORTGbits                        00000000
_POSTDEC0                         00000000
_POSTDEC1                         00000000
_POSTDEC2                         00000000
_POSTINC0                         00000000
_POSTINC1                         00000000
_POSTINC2                         00000000
_PR2                              00000000
_PR4                              00000000
_PREINC0                          00000000
_PREINC1                          00000000
_PREINC2                          00000000
_PROD                             00000000
_PRODH                            00000000
_PRODL                            00000000
_PortA_Property                   00000000
gpasm-1.4.2 #1169 (Jan  2 2016) build/default   9-13-2016  14:11:57         PAGE 103


SYMBOL TABLE
  LABEL                             VALUE 

_PortB_Property                   00000004
_PortC_Property                   00000008
_PortD_Property                   0000000C
_PortE_Property                   00000010
_PortF_Property                   00000014
_PortG_Property                   00000018
_PortProperty_Valid               00000000
_Port_CheckPairType               00000000
_Port_CheckPortType               00000000
_Port_CheckQuadType               00000000
_Port_Get                         00000000
_Port_GetPair                     00000000
_Port_GetPin                      00000000
_Port_GetQuad                     00000000
_Port_Init                        00000000
_Port_Set                         00000000
_Port_SetPair                     00000000
_Port_SetPairType                 00000000
_Port_SetPin                      00000000
_Port_SetPinType                  00000000
_Port_SetQuad                     00000000
_Port_SetQuadType                 00000000
_Port_SetType                     00000000
_RCON                             00000000
_RCONbits                         00000000
_RCREG                            00000000
_RCREG1                           00000000
_RCREG2                           00000000
_RCSTA                            00000000
_RCSTA1                           00000000
_RCSTA1bits                       00000000
_RCSTA2                           00000000
_RCSTA2bits                       00000000
_RCSTAbits                        00000000
_REFOCON                          00000000
_REFOCONbits                      00000000
_SPBRG                            00000000
_SPBRG1                           00000000
_SPBRG2                           00000000
_SPBRGH                           00000000
_SPBRGH1                          00000000
_SPBRGH2                          00000000
_SSP1ADD                          00000000
_SSP1BUF                          00000000
_SSP1CON1                         00000000
_SSP1CON1bits                     00000000
_SSP1CON2                         00000000
_SSP1CON2bits                     00000000
_SSP1MSK                          00000000
_SSP1MSKbits                      00000000
_SSP1STAT                         00000000
_SSP1STATbits                     00000000
_SSP2ADD                          00000000
gpasm-1.4.2 #1169 (Jan  2 2016) build/default   9-13-2016  14:11:57         PAGE 104


SYMBOL TABLE
  LABEL                             VALUE 

_SSP2BUF                          00000000
_SSP2CON1                         00000000
_SSP2CON1bits                     00000000
_SSP2CON2                         00000000
_SSP2CON2bits                     00000000
_SSP2MSK                          00000000
_SSP2MSKbits                      00000000
_SSP2STAT                         00000000
_SSP2STATbits                     00000000
_SSPADD                           00000000
_SSPBUF                           00000000
_SSPCON1                          00000000
_SSPCON1bits                      00000000
_SSPCON2                          00000000
_SSPCON2bits                      00000000
_SSPSTAT                          00000000
_SSPSTATbits                      00000000
_STATUS                           00000000
_STATUSbits                       00000000
_STKPTR                           00000000
_STKPTRbits                       00000000
_T0CON                            00000000
_T0CONbits                        00000000
_T1CON                            00000000
_T1CONbits                        00000000
_T2CON                            00000000
_T2CONbits                        00000000
_T3CON                            00000000
_T3CONbits                        00000000
_T4CON                            00000000
_T4CONbits                        00000000
_TABLAT                           00000000
_TBLPTR                           00000000
_TBLPTRH                          00000000
_TBLPTRL                          00000000
_TBLPTRU                          00000000
_TMR0                             00000000
_TMR0H                            00000000
_TMR0L                            00000000
_TMR1                             00000000
_TMR1H                            00000000
_TMR1L                            00000000
_TMR2                             00000000
_TMR3                             00000000
_TMR3H                            00000000
_TMR3L                            00000000
_TMR4                             00000000
_TOS                              00000000
_TOSH                             00000000
_TOSL                             00000000
_TOSU                             00000000
_TRISA                            00000000
_TRISAbits                        00000000
gpasm-1.4.2 #1169 (Jan  2 2016) build/default   9-13-2016  14:11:57         PAGE 105


SYMBOL TABLE
  LABEL                             VALUE 

_TRISB                            00000000
_TRISBbits                        00000000
_TRISC                            00000000
_TRISCbits                        00000000
_TRISD                            00000000
_TRISDbits                        00000000
_TRISE                            00000000
_TRISEbits                        00000000
_TRISF                            00000000
_TRISFbits                        00000000
_TRISG                            00000000
_TRISGbits                        00000000
_TXREG                            00000000
_TXREG1                           00000000
_TXREG2                           00000000
_TXSTA                            00000000
_TXSTA1                           00000000
_TXSTA1bits                       00000000
_TXSTA2                           00000000
_TXSTA2bits                       00000000
_TXSTAbits                        00000000
_UADDR                            00000000
_UADDRbits                        00000000
_UCFG                             00000000
_UCFGbits                         00000000
_UCON                             00000000
_UCONbits                         00000000
_UEIE                             00000000
_UEIEbits                         00000000
_UEIR                             00000000
_UEIRbits                         00000000
_UEP0                             00000000
_UEP0bits                         00000000
_UEP1                             00000000
_UEP10                            00000000
_UEP10bits                        00000000
_UEP11                            00000000
_UEP11bits                        00000000
_UEP12                            00000000
_UEP12bits                        00000000
_UEP13                            00000000
_UEP13bits                        00000000
_UEP14                            00000000
_UEP14bits                        00000000
_UEP15                            00000000
_UEP15bits                        00000000
_UEP1bits                         00000000
_UEP2                             00000000
_UEP2bits                         00000000
_UEP3                             00000000
_UEP3bits                         00000000
_UEP4                             00000000
_UEP4bits                         00000000
gpasm-1.4.2 #1169 (Jan  2 2016) build/default   9-13-2016  14:11:57         PAGE 106


SYMBOL TABLE
  LABEL                             VALUE 

_UEP5                             00000000
_UEP5bits                         00000000
_UEP6                             00000000
_UEP6bits                         00000000
_UEP7                             00000000
_UEP7bits                         00000000
_UEP8                             00000000
_UEP8bits                         00000000
_UEP9                             00000000
_UEP9bits                         00000000
_UFRM                             00000000
_UFRMH                            00000000
_UFRMHbits                        00000000
_UFRML                            00000000
_UFRMLbits                        00000000
_UIE                              00000000
_UIEbits                          00000000
_UIR                              00000000
_UIRbits                          00000000
_USTAT                            00000000
_USTATbits                        00000000
_WDTCON                           00000000
_WDTCONbits                       00000000
_WREG                             00000000
_Word_GetPair                     00000000
_Word_SetPair                     00000000
__18F65J50                        00000001
__ACC_RAM_LOW_END                 0000005F
__ACC_RAM_LOW_START               00000000
__CODE_END                        00007FF7
__CODE_START                      00000000
__CONFIG_END                      00007FFD
__CONFIG_START                    00007FF8
__VECTOR_INT_HIGH                 00000008
__VECTOR_INT_LOW                  00000018
__VECTOR_RESET                    00000000
__gptrget1                        00000000
__gptrget3                        00000000
__gptrput1                        00000000
__gptrput3                        00000000
r0x00                             00000000
r0x01                             00000001
r0x02                             00000002
r0x03                             00000003
r0x04                             00000004
r0x05                             00000005
r0x06                             00000006
r0x07                             00000007
r0x08                             00000008
r0x09                             00000009
r0x0a                             0000000A
r0x0b                             0000000B
r0x0c                             0000000C

gpasm-1.4.2 #1169 (Jan  2 2016) build/default   9-13-2016  14:11:57         PAGE 107




Errors   :     0
Warnings :     0 reported,     0 suppressed
Messages :     0 reported,     0 suppressed

