Microchip MPLAB XC8 Compiler V1.38 ()

Linker command line:

-W-3 --edf=C:\Program Files (x86)\Microchip\xc8\v1.38\dat\en_msgs.txt -cs \
  -h+dist/NORMAL/production\MXK_Demo_V1.X.production.sym \
  --cmf=dist/NORMAL/production\MXK_Demo_V1.X.production.cmf -z -Q18F67J50 \
  -oC:\Users\User\AppData\Local\Temp\s120.2 \
  -Mdist/NORMAL/production/MXK_Demo_V1.X.production.map -E1 -ver=XC8 \
  --acfsm=1493 -ASTACK=0D3Dh-0f3fh -pstack=STACK -ACODE=00h-01FFF7h \
  -ACONST=00h-01FFF7h -ASMALLCONST=01000h-010FFhx495,01FF00h-01FFF7h \
  -AMEDIUMCONST=01000h-0FFFFh,011000h-01FFF7h -ACOMRAM=01h-05Fh \
  -AABS1=00h-0F3Fh -ABIGRAM=01h-0F3Fh \
  -ARAM=060h-0FFh,0100h-01FFhx14,0F00h-0F3Fh -ABANK0=060h-0FFh \
  -ABANK1=0100h-01FFh -ABANK2=0200h-02FFh -ABANK3=0300h-03FFh \
  -ABANK4=0400h-04FFh -ABANK5=0500h-05FFh -ABANK6=0600h-06FFh \
  -ABANK7=0700h-07FFh -ABANK8=0800h-08FFh -ABANK9=0900h-09FFh \
  -ABANK10=0A00h-0AFFh -ABANK11=0B00h-0BFFh -ABANK12=0C00h-0CFFh \
  -ABANK13=0D00h-0DFFh -ABANK14=0E00h-0EFFh -ABANK15=0F00h-0F3Fh \
  -ASFR=0F40h-0F5Fh,0F60h-0FFFh \
  -preset_vec=00h,intcode=08h,intcodelo,powerup,init,end_init \
  -pramtop=01000h -psmallconst=SMALLCONST -pmediumconst=MEDIUMCONST \
  -pconst=CONST -AFARRAM=00h-00h -ACONFIG=01FFF8h-01FFFDh -pconfig=CONFIG \
  -pjflash_buffer=01F800h \
  -prdata=COMRAM,nvrram=COMRAM,nvbit=COMRAM,rbss=COMRAM,rbit=COMRAM \
  -pfarbss=FARRAM,fardata=FARRAM,nvFARRAM=FARRAM \
  -pintsave_regs=BIGRAM,bigbss=BIGRAM,bigdata=BIGRAM -pbss=RAM \
  -pidata=CODE,irdata=CODE,ibigdata=CODE,ifardata=CODE -prparam=COMRAM \
  C:\Users\User\AppData\Local\Temp\s120.obj \
  dist/NORMAL/production\MXK_Demo_V1.X.production.obj \
  build/NORMAL/production/ASMCode.obj 

Object code version is 3.11

Machine type is 18F67J50

Call graph: (short form)




                Name                               Link     Load   Length Selector   Space Scale
C:\Users\User\AppData\Local\Temp\s120.obj
                end_init                             94       94        4        4       0
                reset_vec                             0        0        4        0       0
                config                            1FFF8    1FFF8        6    1FFF8       0
dist/NORMAL/production\MXK_Demo_V1.X.production.obj
                intcode                               8        8       8C        4       0
                temp                                 5F       5F        1        1       1
                mediumconst                        FBEE     FBEE      412     7DF7       0
                text170                           14F9C    14F9C       1A     8000       0
                text169                           150A6    150A6        6     A83E       0
                text168                           1449A    1449A       48     8000       0
                text166                           132FE    132FE       8E     8000       0
                text165                           14D92    14D92       2A     8000       0
                text164                           13E62    13E62       62     8000       0
                text163                           12BFE    12BFE       B4     8000       0
                text162                           14F08    14F08       20     8000       0
                text161                           12522    12522       D0     8000       0
                text160                           12D64    12D64       B2     8000       0
                text159                           12A8A    12A8A       BC     8000       0
                text158                           11F50    11F50      10E     8000       0
                text157                           14192    14192       54     8000       0
                text156                           1326E    1326E       90     8000       0
                text155                           148A4    148A4       3A     8000       0
                text154                           1226A    1226A       F6     8000       0
                text153                           1413E    1413E       54     8000       0
                text152                           13008    13008       9E     8000       0
                text151                           149F2    149F2       36     8000       0
                text150                           14D68    14D68       2A     8000       0
                text149                           14CE8    14CE8       2C     8000       0
                text148                           140EA    140EA       54     8000       0
                text147                           105C2    105C2      260     8000       0
                text146                           1176A    1176A      132     8000       0
                text145                           12F68    12F68       A0     8000       0
                text144                           14D3E    14D3E       2A     8000       0
                text143                           1284E    1284E       C0     8000       0
                text142                           12B46    12B46       B8     8000       0
                text141                           131D8    131D8       96     8000       0
                text140                           12360    12360       E2     8000       0
                text139                           13CD8    13CD8       64     8000       0
                text138                           1473E    1473E       3E     8000       0
                text137                           135B6    135B6       86     8000       0
                text136                           14F80    14F80       1C     8000       0
                text135                           1467E    1467E       42     8000       0
                text134                           14EE6    14EE6       22     8000       0
                text133                           14D14    14D14       2A     8000       0
                text132                           1205E    1205E      10C     8000       0
                text131                           119CA    119CA      128     8000       0
                text128                           147F4    147F4       3C     8000       0
                text127                           146C0    146C0       40     8000       0
                text126                           134A4    134A4       8A     8000       0
                text125                           150A0    150A0        6     A83E       0
                text124                           15086    15086        A     A83E       0
                text123                           14238    14238       52     8000       0
                text121                           12E16    12E16       AA     8000       0
                text120                           14CBC    14CBC       2C     8000       0
                text119                           13B2C    13B2C       70     8000       0
                text118                           14C90    14C90       2C     8000       0
                text117                           14A5C    14A5C       34     8000       0
                text116                           14F46    14F46       1E     8000       0
                text115                           145F8    145F8       44     8000       0
                text114                           14EA0    14EA0       24     8000       0
                text113                           15022    15022       14     8000       0
                text112                           10BE8    10BE8      1BA     8000       0
                text111                           126BE    126BE       CA     8000       0
                text110                           14096    14096       54     8000       0
                text109                           14452    14452       48     8000       0
                text108                           14040    14040       56     8000       0
                text107                           12CB2    12CB2       B2     8000       0
                text106                           14E7C    14E7C       24     8000       0
                text105                           1500E    1500E       14     8000       0
                text104                           14FFA    14FFA       14     8000       0
                text103                           14FE6    14FE6       14     8000       0
                text102                           13A3A    13A3A       7A     8000       0
                text101                           147B8    147B8       3C     8000       0
                text100                           14C0A    14C0A       2E     8000       0
                text99                            143C0    143C0       4A     8000       0
                text98                            1477C    1477C       3C     8000       0
                text97                            14A28    14A28       34     8000       0
                text96                            149BC    149BC       36     8000       0
                text95                            14AC2    14AC2       32     8000       0
                text94                            11E3C    11E3C      114     8000       0
                text93                            14E58    14E58       24     8000       0
                text92                            14BDC    14BDC       2E     8000       0
                text91                            12EC0    12EC0       A8     8000       0
                text90                            125F2    125F2       CC     8000       0
                text89                            1494E    1494E       38     8000       0
                text88                            14FCE    14FCE       18     8000       0
                text87                            13418    13418       8C     8000       0
                text86                            14DE4    14DE4       28     8000       0
                text85                            13944    13944       7C     8000       0
                text84                            141E6    141E6       52     8000       0
                text83                            10DA2    10DA2      1B8     8000       0
                text82                            13FE4    13FE4       5C     8000       0
                text81                            13E00    13E00       62     8000       0
                text80                            13B9C    13B9C       6C     8000       0
                text79                            14916    14916       38     8000       0
                text78                            148DE    148DE       38     8000       0
                text77                            14A90    14A90       32     8000       0
                text76                            15098    15098        8     A83E       0
                text75                            14F64    14F64       1C     8000       0
                text74                            13D9E    13D9E       62     8000       0
                text72                            129CC    129CC       BE     8000       0
                text71                            14BAE    14BAE       2E     8000       0
                text70                            10F5A    10F5A      18E     8000       0
                text69                            1290E    1290E       BE     8000       0
                text68                            13F84    13F84       60     8000       0
                text67                            1428A    1428A       50     8000       0
                text66                            10822    10822      202     8000       0
                text65                            130A6    130A6       9A     8000       0
                text64                            1456E    1456E       46     8000       0
                text63                            14C64    14C64       2C     8000       0
                text62                            14EC4    14EC4       22     8000       0
                text61                            15090    15090        8     A83E       0
                text60                            13846    13846       80     8000       0
                text59                            1162C    1162C      13E     8000       0
                text58                            10000    10000      34A     8000       0
                text57                            13D3C    13D3C       62     8000       0
                text56                            11D28    11D28      114     8000       0
                text55                            14DBC    14DBC       28     8000       0
                text54                            13C72    13C72       66     8000       0
                text51                            14328    14328       4E     8000       0
                text50                            139C0    139C0       7A     8000       0
                text49                            13F24    13F24       60     8000       0
                text48                            14376    14376       4A     8000       0
                text47                            145B4    145B4       44     8000       0
                text46                            1363C    1363C       84     8000       0
                text45                            1189C    1189C      12E     8000       0
                text44                            14FB6    14FB6       18     8000       0
                text43                            1486A    1486A       3A     8000       0
                text42                            15064    15064        C     8000       0
                text41                            114E8    114E8      144     8000       0
                text40                            138C6    138C6       7E     8000       0
                text39                            14E32    14E32       26     8000       0
                text38                            14830    14830       3A     8000       0
                text37                            14528    14528       46     8000       0
                text36                            14B80    14B80       2E     8000       0
                text35                            14B52    14B52       2E     8000       0
                text34                            11C10    11C10      118     8000       0
                text33                            14F28    14F28       1E     8000       0
                text32                            150B0    150B0        4     A83E       0
                text31                            14E0C    14E0C       26     8000       0
                text30                            13EC4    13EC4       60     8000       0
                text29                            1216A    1216A      100     8000       0
                text28                            113A2    113A2      146     8000       0
                text27                            14AF4    14AF4       30     8000       0
                text26                            144E2    144E2       46     8000       0
                text25                            13C08    13C08       6A     8000       0
                text24                            13AB4    13AB4       78     8000       0
                text23                            142DA    142DA       4E     8000       0
                text22                            1352E    1352E       88     8000       0
                text21                            1338C    1338C       8C     8000       0
                text19                            1124A    1124A      158     8000       0
                text18                            12442    12442       E0     8000       0
                text17                            14C38    14C38       2C     8000       0
                text16                            13140    13140       98     8000       0
                text15                            1463C    1463C       42     8000       0
                text14                            15046    15046       10     8000       0
                text13                            150AC    150AC        4     A83E       0
                text12                            1507C    1507C        A     A83E       0
                text11                            14986    14986       36     8000       0
                text10                            1440A    1440A       48     8000       0
                text9                             137C4    137C4       82     8000       0
                text8                             13742    13742       82     8000       0
                text7                             136C0    136C0       82     8000       0
                text6                             15056    15056        E     8000       0
                text5                             1034A    1034A      278     8000       0
                text4                             14700    14700       3E     8000       0
                text3                             10A24    10A24      1C4     8000       0
                text2                             110E8    110E8      162     8000       0
                text1                             11AF2    11AF2      11E     8000       0
                text0                             14B24    14B24       2E     8000       0
                cstackCOMRAM                          1        1       37        1       1
                cstackBANK0                          AE       AE       46       60       1
                bssBIGRAMl                          C11      C11      12C      440       1
                bssBIGRAMh                          440      440      7D1      440       1
                bssBANK3                            300      300       AA      300       1
                bssBANK2                            200      200       E8      200       1
                dataBANK1                           1E8      1E8       10      100       1
                bssBANK1                            100      100       E8      100       1
                dataBANK0                            F4       F4        B       60       1
                bssBANK0                             60       60       4E       60       1
                dataCOMRAM                           5D       5D        2        1       1
                bssCOMRAM                            38       38       25        1       1
                cinit                             12788    12788       C6     8000       0
                idataBANK1                        15036    15036       10     8000       0
                idataBANK0                        15070    15070        B     8000       0
                idataCOMRAM                       150B4    150B4        2     A83E       0
build/NORMAL/production/ASMCode.obj
                

TOTAL           Name                               Link     Load   Length     Space
        CLASS   STACK          

        CLASS   CODE           
                end_init                             94       94        4         0
                intcode                               8        8       8C         0
                reset_vec                             0        0        4         0
                text170                           14F9C    14F9C       1A         0
                text169                           150A6    150A6        6         0
                text168                           1449A    1449A       48         0
                text166                           132FE    132FE       8E         0
                text165                           14D92    14D92       2A         0
                text164                           13E62    13E62       62         0
                text163                           12BFE    12BFE       B4         0
                text162                           14F08    14F08       20         0
                text161                           12522    12522       D0         0
                text160                           12D64    12D64       B2         0
                text159                           12A8A    12A8A       BC         0
                text158                           11F50    11F50      10E         0
                text157                           14192    14192       54         0
                text156                           1326E    1326E       90         0
                text155                           148A4    148A4       3A         0
                text154                           1226A    1226A       F6         0
                text153                           1413E    1413E       54         0
                text152                           13008    13008       9E         0
                text151                           149F2    149F2       36         0
                text150                           14D68    14D68       2A         0
                text149                           14CE8    14CE8       2C         0
                text148                           140EA    140EA       54         0
                text147                           105C2    105C2      260         0
                text146                           1176A    1176A      132         0
                text145                           12F68    12F68       A0         0
                text144                           14D3E    14D3E       2A         0
                text143                           1284E    1284E       C0         0
                text142                           12B46    12B46       B8         0
                text141                           131D8    131D8       96         0
                text140                           12360    12360       E2         0
                text139                           13CD8    13CD8       64         0
                text138                           1473E    1473E       3E         0
                text137                           135B6    135B6       86         0
                text136                           14F80    14F80       1C         0
                text135                           1467E    1467E       42         0
                text134                           14EE6    14EE6       22         0
                text133                           14D14    14D14       2A         0
                text132                           1205E    1205E      10C         0
                text131                           119CA    119CA      128         0
                text128                           147F4    147F4       3C         0
                text127                           146C0    146C0       40         0
                text126                           134A4    134A4       8A         0
                text125                           150A0    150A0        6         0
                text124                           15086    15086        A         0
                text123                           14238    14238       52         0
                text121                           12E16    12E16       AA         0
                text120                           14CBC    14CBC       2C         0
                text119                           13B2C    13B2C       70         0
                text118                           14C90    14C90       2C         0
                text117                           14A5C    14A5C       34         0
                text116                           14F46    14F46       1E         0
                text115                           145F8    145F8       44         0
                text114                           14EA0    14EA0       24         0
                text113                           15022    15022       14         0
                text112                           10BE8    10BE8      1BA         0
                text111                           126BE    126BE       CA         0
                text110                           14096    14096       54         0
                text109                           14452    14452       48         0
                text108                           14040    14040       56         0
                text107                           12CB2    12CB2       B2         0
                text106                           14E7C    14E7C       24         0
                text105                           1500E    1500E       14         0
                text104                           14FFA    14FFA       14         0
                text103                           14FE6    14FE6       14         0
                text102                           13A3A    13A3A       7A         0
                text101                           147B8    147B8       3C         0
                text100                           14C0A    14C0A       2E         0
                text99                            143C0    143C0       4A         0
                text98                            1477C    1477C       3C         0
                text97                            14A28    14A28       34         0
                text96                            149BC    149BC       36         0
                text95                            14AC2    14AC2       32         0
                text94                            11E3C    11E3C      114         0
                text93                            14E58    14E58       24         0
                text92                            14BDC    14BDC       2E         0
                text91                            12EC0    12EC0       A8         0
                text90                            125F2    125F2       CC         0
                text89                            1494E    1494E       38         0
                text88                            14FCE    14FCE       18         0
                text87                            13418    13418       8C         0
                text86                            14DE4    14DE4       28         0
                text85                            13944    13944       7C         0
                text84                            141E6    141E6       52         0
                text83                            10DA2    10DA2      1B8         0
                text82                            13FE4    13FE4       5C         0
                text81                            13E00    13E00       62         0
                text80                            13B9C    13B9C       6C         0
                text79                            14916    14916       38         0
                text78                            148DE    148DE       38         0
                text77                            14A90    14A90       32         0
                text76                            15098    15098        8         0
                text75                            14F64    14F64       1C         0
                text74                            13D9E    13D9E       62         0
                text72                            129CC    129CC       BE         0
                text71                            14BAE    14BAE       2E         0
                text70                            10F5A    10F5A      18E         0
                text69                            1290E    1290E       BE         0
                text68                            13F84    13F84       60         0
                text67                            1428A    1428A       50         0
                text66                            10822    10822      202         0
                text65                            130A6    130A6       9A         0
                text64                            1456E    1456E       46         0
                text63                            14C64    14C64       2C         0
                text62                            14EC4    14EC4       22         0
                text61                            15090    15090        8         0
                text60                            13846    13846       80         0
                text59                            1162C    1162C      13E         0
                text58                            10000    10000      34A         0
                text57                            13D3C    13D3C       62         0
                text56                            11D28    11D28      114         0
                text55                            14DBC    14DBC       28         0
                text54                            13C72    13C72       66         0
                text51                            14328    14328       4E         0
                text50                            139C0    139C0       7A         0
                text49                            13F24    13F24       60         0
                text48                            14376    14376       4A         0
                text47                            145B4    145B4       44         0
                text46                            1363C    1363C       84         0
                text45                            1189C    1189C      12E         0
                text44                            14FB6    14FB6       18         0
                text43                            1486A    1486A       3A         0
                text42                            15064    15064        C         0
                text41                            114E8    114E8      144         0
                text40                            138C6    138C6       7E         0
                text39                            14E32    14E32       26         0
                text38                            14830    14830       3A         0
                text37                            14528    14528       46         0
                text36                            14B80    14B80       2E         0
                text35                            14B52    14B52       2E         0
                text34                            11C10    11C10      118         0
                text33                            14F28    14F28       1E         0
                text32                            150B0    150B0        4         0
                text31                            14E0C    14E0C       26         0
                text30                            13EC4    13EC4       60         0
                text29                            1216A    1216A      100         0
                text28                            113A2    113A2      146         0
                text27                            14AF4    14AF4       30         0
                text26                            144E2    144E2       46         0
                text25                            13C08    13C08       6A         0
                text24                            13AB4    13AB4       78         0
                text23                            142DA    142DA       4E         0
                text22                            1352E    1352E       88         0
                text21                            1338C    1338C       8C         0
                text19                            1124A    1124A      158         0
                text18                            12442    12442       E0         0
                text17                            14C38    14C38       2C         0
                text16                            13140    13140       98         0
                text15                            1463C    1463C       42         0
                text14                            15046    15046       10         0
                text13                            150AC    150AC        4         0
                text12                            1507C    1507C        A         0
                text11                            14986    14986       36         0
                text10                            1440A    1440A       48         0
                text9                             137C4    137C4       82         0
                text8                             13742    13742       82         0
                text7                             136C0    136C0       82         0
                text6                             15056    15056        E         0
                text5                             1034A    1034A      278         0
                text4                             14700    14700       3E         0
                text3                             10A24    10A24      1C4         0
                text2                             110E8    110E8      162         0
                text1                             11AF2    11AF2      11E         0
                text0                             14B24    14B24       2E         0
                cinit                             12788    12788       C6         0
                idataBANK1                        15036    15036       10         0
                idataBANK0                        15070    15070        B         0
                idataCOMRAM                       150B4    150B4        2         0

        CLASS   CONST          

        CLASS   SMALLCONST     

        CLASS   MEDIUMCONST    
                mediumconst                        FBEE     FBEE      412         0

        CLASS   COMRAM         
                temp                                 5F       5F        1         1
                cstackCOMRAM                          1        1       37         1
                dataCOMRAM                           5D       5D        2         1
                bssCOMRAM                            38       38       25         1

        CLASS   ABS1           
                abs_s1                              400      400       40         1

        CLASS   BIGRAM         
                bssBIGRAMl                          C11      C11      12C         1
                bssBIGRAMh                          440      440      7D1         1

        CLASS   RAM            

        CLASS   BANK0          
                cstackBANK0                          AE       AE       46         1
                dataBANK0                            F4       F4        B         1
                bssBANK0                             60       60       4E         1

        CLASS   BANK1          
                dataBANK1                           1E8      1E8       10         1
                bssBANK1                            100      100       E8         1

        CLASS   BANK2          
                bssBANK2                            200      200       E8         1

        CLASS   BANK3          
                bssBANK3                            300      300       AA         1

        CLASS   BANK4          

        CLASS   BANK5          

        CLASS   BANK6          

        CLASS   BANK7          

        CLASS   BANK8          

        CLASS   BANK9          

        CLASS   BANK10         

        CLASS   BANK11         

        CLASS   BANK12         

        CLASS   BANK13         

        CLASS   BANK14         

        CLASS   BANK15         

        CLASS   SFR            

        CLASS   FARRAM         

        CLASS   CONFIG         
                config                            1FFF8    1FFF8        6         0

        CLASS   IDLOC          



SEGMENTS        Name                           Load    Length   Top    Selector   Space  Class

                reset_vec                      000000  000004  000004         0       0  CODE    
                cstackCOMRAM                   000001  00005F  000060         1       1  COMRAM  
                intcode                        000008  000090  000098         4       0  CODE    
                bssBANK0                       000060  00009F  0000FF        60       1  BANK0   
                bssBANK1                       000100  0000F8  0001F8       100       1  BANK1   
                bssBANK2                       000200  0000E8  0002E8       200       1  BANK2   
                bssBANK3                       000300  0000AA  0003AA       300       1  BANK3   
                bssBIGRAMh                     000440  0008FD  000D3D       440       1  BIGRAM  
                mediumconst                    00FBEE  000412  010000      7DF7       0  MEDIUMCO
                text58                         010000  00507B  01507B      8000       0  CODE    
                text12                         01507C  00003A  0150B6      A83E       0  CODE    
                config                         01FFF8  000006  01FFFE     1FFF8       0  CONFIG  


UNUSED ADDRESS RANGES

        Name                Unused          Largest block    Delta
        BANK0            000FF-000FF               1
        BANK1            001F8-001FF               8
        BANK13           00D3D-00DFF              C3
        BANK14           00E00-00EFF             100
        BANK15           00F00-00F3F              40
        BANK2            002E8-002FF              18
        BANK3            003AA-003FF              56
        BIGRAM           000FF-000FF               1
                         001F8-001FF               8
                         002E8-002FF              18
                         003AA-003FF              56
                         00D3D-00F3F             203
        CODE             00004-00007               4
                         00098-0FBED            FB56
                         1507B-1507B               1
                         150B6-1FFF7            AF42
        CONST            00004-00007               4
                         00098-0FBED            FB56
                         1507B-1507B               1
                         150B6-1FFF7            AF42
        MEDIUMCONST      01000-0FBED            EBEE
                         1507B-1507B               1
                         150B6-1FFF7            AF42
        RAM              000FF-000FF               1
                         001F8-001FF               8
                         002E8-002FF              18
                         003AA-003FF              56
                         00D3D-00F3F             100
        SFR              00F40-00FFF              20
        SMALLCONST       01000-0FBED             100
                         1507B-1507B               1
                         150B6-1FFF7             100
        STACK            00D3D-00F3F             203

                                  Symbol Table

?_Console_MakeField                       cstackBANK0   000B3
?_GetPortPORT                             cstackBANK0   000AE
?_GetPortProperties                       cstackBANK0   000AE
?_GetPortTRIS                             cstackBANK0   000AE
?_USBTransferOnePacket                    cstackBANK0   000AE
?___awdiv                                 cstackBANK0   000AE
?___lldiv                                 cstackBANK0   000AE
?___lwdiv                                 cstackBANK0   000AE
?___lwmod                                 cstackBANK0   000AE
?___wmul                                  cstackBANK0   000AE
?_printf                                  cstackBANK0   000C3
?_strlen                                  cstackBANK0   000AE
?i2_USBTransferOnePacket                  cstackCOMRAM  00001
Button_Init@pButton                       cstackBANK0   000EB
Button_Init@pFunction                     cstackBANK0   000EE
Button_Init@pInput                        cstackBANK0   000E9
Button_Init@pThreshold                    cstackBANK0   000EC
Button_Poll@Pin                           cstackBANK0   000D1
Button_Poll@pButton                       cstackBANK0   000C9
Button_Poll@pIncrement                    cstackBANK0   000CB
Button_State@pInput                       cstackBANK0   000B4
Byte_GetBit@Output                        cstackBANK0   000B2
Byte_GetBit@pBit                          cstackBANK0   000B0
Byte_GetBit@pInput                        cstackBANK0   000AE
Byte_GetPair@pInput                       cstackBANK0   000B7
Byte_GetPair@pPair                        cstackBANK0   000B9
Byte_GetZone@MASK                         cstackBANK0   000B4
Byte_GetZone@Offset                       cstackBANK0   000B5
Byte_GetZone@Output                       cstackBANK0   000B6
Byte_GetZone@pChunk                       cstackBANK0   000B1
Byte_GetZone@pChunkSize                   cstackBANK0   000B2
Byte_GetZone@pInput                       cstackBANK0   000AE
Byte_GetZone@pMax                         cstackBANK0   000B0
Byte_SetBit@pBit                          cstackBANK0   000B0
Byte_SetBit@pInput                        cstackBANK0   000AE
Byte_SetBit@pValue                        cstackBANK0   000B1
Byte_SetPair@pInput                       cstackBANK0   000B9
Byte_SetPair@pPair                        cstackBANK0   000BB
Byte_SetPair@pValue                       cstackBANK0   000BC
Byte_SetPort@pInput                       cstackBANK0   000AE
Byte_SetPort@pValue                       cstackBANK0   000B0
Byte_SetQuad@pInput                       cstackBANK0   000B9
Byte_SetQuad@pQuad                        cstackBANK0   000BB
Byte_SetQuad@pValue                       cstackBANK0   000BC
Byte_SetZone@MASK                         cstackBANK0   000B8
Byte_SetZone@Offset                       cstackBANK0   000B7
Byte_SetZone@pChunk                       cstackBANK0   000B1
Byte_SetZone@pChunkSize                   cstackBANK0   000B2
Byte_SetZone@pInput                       cstackBANK0   000AE
Byte_SetZone@pMax                         cstackBANK0   000B0
Byte_SetZone@pValue                       cstackBANK0   000B3
CDCTxService@byte_to_send                 cstackBANK0   000BA
CDCTxService@i                            cstackBANK0   000B9
Console_FormFeed@x                        cstackBANK0   000B0
Console_FormFeed@y                        cstackBANK0   000B1
Console_Init@x                            cstackBANK0   000B0
Console_Init@y                            cstackBANK0   000B1
Console_MakeField@Column                  cstackBANK0   000B9
Console_MakeField@Fill                    bssBANK3      00364
Console_MakeField@Index                   cstackBANK0   000B7
Console_MakeField@pInput                  cstackBANK0   000BD
Console_MakeField@x                       cstackBANK0   000BE
Console_MakeField@y                       cstackBANK0   000BF
Console_PrintChar@pInput                  cstackBANK0   000C1
Console_Render@F7891                      dataBANK1     001E8
Console_Render@lCursor                    cstackBANK0   000D4
Console_Render@temp                       cstackBANK0   000D3
Console_Render@x                          cstackBANK0   000D8
Console_Render@y                          cstackBANK0   000D9
Console_Tab@c                             cstackBANK0   000BD
Console_Tab@i                             cstackBANK0   000BC
Console_Tab@t                             cstackBANK0   000BB
Event_DIPSwitch@Bar                       cstackBANK0   000C8
Event_DIPSwitch@pState                    cstackBANK0   000C7
Event_HMI_DIPSwitch@Bar                   cstackBANK0   000C8
Event_HMI_DIPSwitch@pState                cstackBANK0   000C7
Event_HMI_DownButton@pState               cstackBANK0   000C7
Event_HMI_LeftButton@pState               cstackBANK0   000C7
Event_HMI_RightButton@pState              cstackBANK0   000C7
Event_HMI_UpButton@pState                 cstackBANK0   000C7
Event_TestButton@j                        bssBANK0      0008F
Event_TestButton@pState                   cstackBANK0   000C7
Event_USBRecieve@pLength                  cstackBANK0   000CD
GetPortPORT@pInput                        cstackBANK0   000B0
GetPortProperties@pInput                  cstackBANK0   000B0
GetPortTRIS@pInput                        cstackBANK0   000B0
HMI_GRender@a                             bssBANK0      00081
HMI_Init@in                               cstackBANK0   000F1
HMI_Render@a                              cstackBANK0   000B6
HMI_SetBar@pValue                         cstackBANK0   000AE
HMI_SetButton@F8267                       mediumconst   0FD08
HMI_SetButton@pValue                      cstackBANK0   000B4
HMI_SetButton@reindex                     cstackBANK0   000B0
HMI_SetButton@v                           cstackBANK0   000B5
HMI_SetDown@pValue                        cstackBANK0   000AE
HMI_SetLeft@pValue                        cstackBANK0   000AE
HMI_SetNumber@pInput                      cstackBANK0   000BF
HMI_SetRight@pValue                       cstackBANK0   000AE
HMI_SetSegments@in                        cstackBANK0   000B2
HMI_SetSegments@pString                   cstackBANK0   000AF
HMI_SetUp@pValue                          cstackBANK0   000AE
IMU_ReadReg@r                             bssCOMRAM     00059
IMU_WriteReg@r                            bssCOMRAM     0005A
LCD_DrawField@count                       cstackBANK0   000CC
LCD_DrawField@i                           cstackBANK0   000D0
LCD_DrawField@pField                      cstackBANK0   000C0
LCD_DrawField@pPoint                      cstackBANK0   000C2
LCD_DrawField@pSize                       cstackBANK0   000C6
LCD_DrawField@xmax                        cstackBANK0   000CE
LCD_DrawField@ymax                        cstackBANK0   000CF
LCD_DrawRectangle@p2                      bssBANK1      001E0
LCD_DrawRectangle@p4                      bssBANK1      001E4
LCD_Fill@i                                cstackBANK0   000BE
LCD_Fill@j                                cstackBANK0   000BF
LCD_Fill@pColour                          cstackBANK0   000BC
LCD_FillRectangle@i                       cstackBANK0   000C8
LCD_FillRectangle@j                       cstackBANK0   000C9
LCD_FillRectangle@pColour                 cstackBANK0   000BC
LCD_FillRectangle@pPoint                  cstackBANK0   000BE
LCD_FillRectangle@pSize                   cstackBANK0   000C2
LCD_Init@i                                cstackBANK0   000E5
LCD_Word_Write@value                      cstackBANK0   000B8
LCD_Write@mode                            cstackBANK0   000B2
LCD_Write@v                               cstackBANK0   000B4
LCD_Write@value                           cstackBANK0   000B3
LED_Init@pLED                             cstackBANK0   000DB
LED_Set@pLED                              cstackBANK0   000C3
LED_Set@pValue                            cstackBANK0   000C2
LED_Toggle@pLED                           cstackBANK0   000C6
MXK_BlockSwitchTo@CUR                     cstackBANK0   000B4
MXK_BlockSwitchTo@pModule                 cstackBANK0   000B5
Motor_Continious@pDirection               cstackBANK0   000B0
Motor_Continious@pMotor                   cstackBANK0   000AE
Motor_Init@pMotor                         cstackBANK0   000DB
Motor_Move@pDelta                         cstackBANK0   000B3
Motor_Move@pMotor                         cstackBANK0   000B1
Motor_Speed@pFrequency                    cstackBANK0   000CB
Motor_Speed@pMotor                        cstackBANK0   000C9
OutSeg@a                                  bssBANK0      00090
OutSeg@cur                                bssBANK0      00091
OutSeg@out                                cstackBANK0   000B5
OutSeg@pInput                             cstackBANK0   000B4
OutSeg@pSegment                           cstackBANK0   000B1
OutSeg@segset                             bssBANK0      00092
PortProperty_Valid@Errors                 cstackBANK0   000C3
PortProperty_Valid@F7768                  mediumconst   0FCA1
PortProperty_Valid@Pair                   cstackBANK0   000D3
PortProperty_Valid@pInput                 cstackBANK0   000BD
PortProperty_Valid@pPin                   cstackBANK0   000C0
PortProperty_Valid@pPinDrive              cstackBANK0   000BF
Port_CheckPairType@Output                 cstackBANK0   000DA
Port_CheckPairType@Pin1                   cstackBANK0   000D8
Port_CheckPairType@Pin2                   cstackBANK0   000D9
Port_CheckPairType@Props                  cstackBANK0   000DB
Port_CheckPairType@pDrive                 cstackBANK0   000D7
Port_CheckPairType@pInput                 cstackBANK0   000D4
Port_CheckPairType@pPair                  cstackBANK0   000D6
Port_CheckPortType@Output                 cstackBANK0   000E7
Port_CheckPortType@pDrive                 cstackBANK0   000E6
Port_CheckPortType@pInput                 cstackBANK0   000E4
Port_CheckQuadType@Output                 cstackBANK0   000E3
Port_CheckQuadType@Pair1                  cstackBANK0   000E1
Port_CheckQuadType@Pair2                  cstackBANK0   000E2
Port_CheckQuadType@pDrive                 cstackBANK0   000E0
Port_CheckQuadType@pInput                 cstackBANK0   000DD
Port_CheckQuadType@pQuad                  cstackBANK0   000DF
Port_GetPin@Output                        cstackBANK0   000B3
Port_GetPin@pInput                        cstackBANK0   000AE
Port_GetPin@pPin                          cstackBANK0   000B0
Port_GetQuad@Output                       cstackBANK0   000B3
Port_GetQuad@pInput                       cstackBANK0   000AE
Port_GetQuad@pQuad                        cstackBANK0   000B0
Port_Init@i                               cstackBANK0   000F3
Port_Init@pInput                          cstackBANK0   000EE
Port_Init@pPort                           cstackBANK0   000F0
Port_Set@Type                             cstackBANK0   000D4
Port_Set@TypeActual                       cstackBANK0   000D2
Port_Set@TypeRequired                     cstackBANK0   000D0
Port_Set@pInput                           cstackBANK0   000BD
Port_Set@pValue                           cstackBANK0   000BF
Port_SetPin@Type                          cstackBANK0   000C1
Port_SetPin@pInput                        cstackBANK0   000BD
Port_SetPin@pPin                          cstackBANK0   000BF
Port_SetPin@pValue                        cstackBANK0   000C0
Port_SetPinType@Output                    cstackBANK0   000D8
Port_SetPinType@Props                     cstackBANK0   000D9
Port_SetPinType@pInput                    cstackBANK0   000D4
Port_SetPinType@pPin                      cstackBANK0   000D6
Port_SetPinType@pType                     cstackBANK0   000D7
Port_SetQuadType@Output                   cstackBANK0   000E8
Port_SetQuadType@pInput                   cstackBANK0   000E4
Port_SetQuadType@pQuad                    cstackBANK0   000E6
Port_SetQuadType@pType                    cstackBANK0   000E7
Port_SetType@Output                       cstackBANK0   000ED
Port_SetType@pInput                       cstackBANK0   000E8
Port_SetType@pType                        cstackBANK0   000EA
Port_TogglePin@Value                      cstackBANK0   000C5
Port_TogglePin@pInput                     cstackBANK0   000C2
Port_TogglePin@pPin                       cstackBANK0   000C4
SPI_DCS@pInput                            cstackBANK0   000AE
SPI_DisableISR@pInput                     cstackBANK0   000AE
SPI_Init@pChannel                         cstackBANK0   000E1
SPI_Init@pClock                           cstackBANK0   000DD
SPI_Init@pInput                           cstackBANK0   000DB
SPI_Init@pMode                            cstackBANK0   000E2
SPI_MaxSpeed@pInput                       cstackBANK0   000BD
SPI_MinSpeed@pInput                       cstackBANK0   000BD
SPI_Send9@dat                             bssBANK1      0012D
SPI_Send9@pData                           cstackBANK0   000B0
SPI_Send9@pInput                          cstackBANK0   000AE
SPI_Send@pData                            cstackBANK0   000B0
SPI_Send@pInput                           cstackBANK0   000AE
Set_Addr_Window@xe                        cstackBANK0   000B9
Set_Addr_Window@xs                        cstackBANK0   000BB
Set_Addr_Window@ye                        cstackBANK0   000BA
Set_Addr_Window@ys                        cstackBANK0   000B8
Set_Rotation@m                            cstackBANK0   000B8
Set_Rotation@rotation                     cstackBANK0   000B9
TetrisBlockRotate@undo                    bssCOMRAM     00042
TetrisFieldDraw@lCorner                   bssBANK1      00100
TetrisFieldDraw@lSize                     bssBANK1      00104
Timer0_Init@DIV                           bssBANK1      00108
Timer0_Init@DIVIDE                        cstackBANK0   000C5
Timer0_Init@PRE                           bssBANK0      00093
Timer0_Init@PRESCALE                      mediumconst   0FCB1
Timer0_Init@pCPUClock                     cstackBANK0   000C1
Timer0_Init@pFrequency                    cstackBANK0   000BB
Timer0_Start@pFunction                    cstackBANK0   000AE
Timer2_Init@DIV                           bssBANK1      0010C
Timer2_Init@DIVIDE                        cstackBANK0   000C8
Timer2_Init@INDEX                         bssBANK0      00094
Timer2_Init@PRE                           bssBANK0      00095
Timer2_Init@PRESCALE                      mediumconst   0FD0C
Timer2_Init@RDIV                          cstackBANK0   000C0
Timer2_Init@pCPUClock                     cstackBANK0   000C4
Timer2_Init@pFrequency                    cstackBANK0   000BB
ToSegment@pCHR                            cstackBANK0   000AE
USBConfigureEndpoint@EPNum                cstackCOMRAM  00006
USBConfigureEndpoint@direction            cstackCOMRAM  00001
USBConfigureEndpoint@handle               cstackCOMRAM  00007
USBCtrlTrfInHandler@lastDTS               cstackCOMRAM  00002
USBCtrlTrfRxService@byteToRead            cstackCOMRAM  00002
USBCtrlTrfRxService@i                     cstackCOMRAM  00001
USBCtrlTrfTxService@byteToSend            cstackCOMRAM  00001
USBDeviceInit@i                           cstackBANK0   000B6
USBDeviceTasks@i                          cstackCOMRAM  00029
USBEnableEndpoint@ep                      cstackCOMRAM  0000C
USBEnableEndpoint@options                 cstackCOMRAM  00009
USBEnableEndpoint@p                       cstackCOMRAM  0000A
USBStdFeatureReqHandler@current_ep_data   cstackCOMRAM  00025
USBStdFeatureReqHandler@p                 cstackCOMRAM  00026
USBStdFeatureReqHandler@pUEP              cstackCOMRAM  00023
USBStdGetStatusHandler@p                  cstackCOMRAM  00002
USBStdSetCfgHandler@i                     cstackCOMRAM  00022
USBTransferOnePacket@data                 cstackBANK0   000AF
USBTransferOnePacket@dir                  cstackBANK0   000AE
USBTransferOnePacket@ep                   cstackBANK0   000B6
USBTransferOnePacket@handle               cstackBANK0   000B7
USBTransferOnePacket@len                  cstackBANK0   000B1
USB_Print@len                             cstackBANK0   000B6
USB_Print@pInput                          cstackBANK0   000B4
USB_Tasks@Recieved                        cstackBANK0   000CE
USER_USB_CALLBACK_EVENT_HANDLER@event     cstackCOMRAM  0001A
USER_USB_CALLBACK_EVENT_HANDLER@pdata     cstackCOMRAM  0001C
USER_USB_CALLBACK_EVENT_HANDLER@size      cstackCOMRAM  0001E
Word_GetPair@pInput                       cstackBANK0   000BA
Word_GetPair@pPair                        cstackBANK0   000BC
Word_SetPair@pInput                       cstackBANK0   000BD
Word_SetPair@pPair                        cstackBANK0   000BF
Word_SetPair@pValue                       cstackBANK0   000C0
_BDT                                      (abs)         00400
_BLOCKS_COUNT                             mediumconst   0FD11
_BaudRateGen                              bssBANK1      00110
_BothEP0OutUOWNsSet                       bssCOMRAM     00043
_Bus_State                                dataBANK0     000FB
_Button_Init                              text65        130A6
_Button_Poll                              text94        11E3C
_Button_State                             text126       134A4
_Byte_GetBit                              text92        14BDC
_Byte_GetPair                             text121       12E16
_Byte_GetZone                             text122       00000
_Byte_SetBit                              text123       14238
_Byte_SetPair                             text72        129CC
_Byte_SetPort                             text6         15056
_Byte_SetQuad                             text69        1290E
_Byte_SetZone                             text73        00000
_CDCDataInHandle                          bssBANK0      00083
_CDCDataOutHandle                         bssBANK0      00085
_CDCInitEP                                text153       1413E
_CDCTxService                             text28        113A2
_COUNTER                                  bssBANK0      00087
_Configure_GPIOs                          text48        14376
_Console_Backspace                        text26        144E2
_Console_ClearCursor                      text27        14AF4
_Console_FormFeed                         text25        13C08
_Console_IncrementCursor                  text23        142DA
_Console_Init                             text54        13C72
_Console_MakeField                        text91        12EC0
_Console_MakeField$11988                  cstackBANK0   000BB
_Console_NewLine                          text24        13AB4
_Console_PrintChar                        text20        00000
_Console_Render                           text83        10DA2
_Console_Tab                              text21        1338C
_CtrlTrfData                              (abs)         00438
_DIPSwitch                                bssBANK1      001B5
_DIST                                     dataBANK1     001F4
_Event_DIPSwitch                          text95        14AC2
_Event_HMI_DIPSwitch                      text100       14C0A
_Event_HMI_DownButton                     text96        149BC
_Event_HMI_LeftButton                     text99        143C0
_Event_HMI_RightButton                    text98        1477C
_Event_HMI_UpButton                       text97        14A28
_Event_TestButton                         text101       147B8
_Event_USBRecieve                         text17        14C38
_Font5x7                                  mediumconst   0FD12
_FunctButton                              text93        14E58
_FunctHMI                                 text75        14F64
_FunctInitButton                          text64        1456E
_FunctInitHMI                             text55        14DBC
_FunctInitLCD                             text44        14FB6
_FunctInitMotor                           text37        14528
_FunctInitUSB                             text32        150B0
_FunctMotor                               text30        13EC4
_FunctUSB                                 text13        150AC
_GetPortPORT                              text9         137C4
_GetPortProperties                        text8         13742
_GetPortTRIS                              text7         136C0
_HMIBoard                                 bssBANK1      00133
_HMI_GetBar                               text125       150A0
_HMI_Init                                 text56        11D28
_HMI_Poll                                 text82        13FE4
_HMI_Render                               text79        14916
_HMI_SetBar                               text124       15086
_HMI_SetButton                            text102       13A3A
_HMI_SetDown                              text113       15022
_HMI_SetLeft                              text105       1500E
_HMI_SetNumber                            text106       14E7C
_HMI_SetRight                             text104       14FFA
_HMI_SetSegments                          text111       126BE
_HMI_SetUp                                text103       14FE6
_Hz                                       dataBANK0     000F8
_HzOld                                    bssBANK1      0012F
_I2C1T                                    bssCOMRAM     00051
_I2C1_Done                                bssBANK1      00118
_I2C1_More                                bssBANK1      0011B
_I2C2T                                    bssBANK1      001D4
_I2C2_Done                                bssBANK1      0011E
_I2C2_More                                bssBANK1      00121
_IMU_ReadComplete                         (abs)         00000
_IMU_ReadRegContinue                      (abs)         00000
_IMU_ReadRegFinish                        (abs)         00000
_IMU_WriteRegContinue                     (abs)         00000
_IMU_WriteRegFinish                       (abs)         00000
_INDEX                                    bssBANK0      00096
_INTCONbits                               (abs)         00FF2
_IPR1bits                                 (abs)         00F9F
_IPR2bits                                 (abs)         00FA2
_ISR_Enable                               text12        1507C
_ISR_Function                             intcode       00008
_InitList                                 mediumconst   0FBEF
_LATA                                     (abs)         00F89
_LATB                                     (abs)         00F8A
_LATC                                     (abs)         00F8B
_LATD                                     (abs)         00F8C
_LATE                                     (abs)         00F8D
_LATF                                     (abs)         00F8E
_LATG                                     (abs)         00F8F
_LCD_DrawField                            text85        13944
_LCD_Fill                                 text47        145B4
_LCD_FillRectangle                        text84        141E6
_LCD_Init                                 text45        1189C
_LCD_Reset                                text50        139C0
_LCD_Word_Write                           text88        14FCE
_LCD_Write                                text89        1494E
_LCD_Write$3147                           cstackBANK0   000B6
_LED_Init                                 text10        1440A
_LED_Set                                  text11        14986
_LED_Toggle                               text117       14A5C
_LLVALS                                   mediumconst   0FCCA
_LNVALS                                   mediumconst   0FCD2
_LZVALS                                   mediumconst   0FCDA
_MASKS                                    mediumconst   0FCC1
_MXK_BlockSwitchTo                        text77        14A90
_MXK_Init                                 text1         11AF2
_MXK_Release                              text76        15098
_Motor_Continious                         text43        1486A
_Motor_Init                               text40        138C6
_Motor_Move                               text38        14830
_Motor_Speed                              text31        14E0C
_Motor_Step                               text163       12BFE
_OSCTUNEbits                              (abs)         00F9B
_OutSeg                                   text80        13B9C
_PIE1bits                                 (abs)         00F9D
_PIE2bits                                 (abs)         00FA0
_PIE3bits                                 (abs)         00FA3
_PIR1                                     (abs)         00F9E
_PIR1bits                                 (abs)         00F9E
_PIR2                                     (abs)         00FA1
_PIR2bits                                 (abs)         00FA1
_PIR3                                     (abs)         00FA4
_PIR3bits                                 (abs)         00FA4
_PORTA                                    (abs)         00F80
_PORTB                                    (abs)         00F81
_PORTC                                    (abs)         00F82
_PORTD                                    (abs)         00F83
_PORTE                                    (abs)         00F84
_PORTF                                    (abs)         00F85
_PORTG                                    (abs)         00F86
_PR2                                      (abs)         00FCB
_PortA                                    bssBANK1      00179
_PortA_Property                           mediumconst   0FFB3
_PortB                                    bssBANK1      00183
_PortB_Property                           mediumconst   0FFB5
_PortC                                    bssBANK0      000A4
_PortC_Property                           mediumconst   0FFB7
_PortD                                    bssBANK1      0018D
_PortD_Property                           mediumconst   0FFB9
_PortE                                    bssBANK1      00197
_PortE_Property                           mediumconst   0FFBB
_PortF                                    bssBANK1      001A1
_PortF_Property                           mediumconst   0FFBD
_PortG                                    bssBANK1      001AB
_PortG_Property                           mediumconst   0FFBF
_PortProperty_Valid                       text74        13D9E
_Port_CheckPairType                       text68        13F84
_Port_CheckPortType                       text4         14700
_Port_CheckQuadType                       text67        1428A
_Port_GetPin                              text128       147F4
_Port_GetQuad                             text127       146C0
_Port_Init                                text2         110E8
_Port_Set                                 text5         1034A
_Port_SetPin                              text119       13B2C
_Port_SetPinType                          text70        10F5A
_Port_SetQuadType                         text66        10822
_Port_SetType                             text3         10A24
_Port_TogglePin                           text118       14C90
_RCONbits                                 (abs)         00FD0
_RLVALS                                   mediumconst   0FCE2
_RZVALS                                   mediumconst   0FCEA
_Read                                     bssCOMRAM     00044
_RemoteWakeup                             bssCOMRAM     00045
_Reset_High                               text53        00000
_Reset_Low                                text52        00000
_SPI1                                     bssBANK1      00163
_SPI2                                     bssBANK1      0016E
_SPI_DCS                                  text63        14C64
_SPI_DisableISR                           text62        14EC4
_SPI_Init                                 text58        10000
_SPI_MaxSpeed                             text49        13F24
_SPI_MinSpeed                             text57        13D3C
_SPI_Send                                 text81        13E00
_SPI_Send9                                text90        125F2
_SQVALS                                   mediumconst   0FCF2
_SSP1ADD                                  (abs)         00FC8
_SSP1BUF                                  (abs)         00FC9
_SSP1CON1                                 (abs)         00FC6
_SSP1CON1bits                             (abs)         00FC6
_SSP1CON2                                 (abs)         00FC5
_SSP1CON2bits                             (abs)         00FC5
_SSP1STAT                                 (abs)         00FC7
_SSP1STATbits                             (abs)         00FC7
_SSP2BUF                                  (abs)         00F6F
_SSP2CON1                                 (abs)         00F6C
_SSP2CON1bits                             (abs)         00F6C
_SSP2CON2                                 (abs)         00F6B
_SSP2CON2bits                             (abs)         00F6B
_SSP2STAT                                 (abs)         00F6D
_SSP2STATbits                             (abs)         00F6D
_Set_Addr_Window                          text87        13418
_Set_Rotation                             text46        1363C
_SetupPkt                                 (abs)         00430
_Stepper                                  bssBANK1      001DA
_T0CONbits                                (abs)         00FD5
_T2CONbits                                (abs)         00FCA
_TEVALS                                   mediumconst   0FCFA
_TMR0                                     (abs)         00FD6
_TRISA                                    (abs)         00F92
_TRISB                                    (abs)         00F93
_TRISC                                    (abs)         00F94
_TRISD                                    (abs)         00F95
_TRISE                                    (abs)         00F96
_TRISF                                    (abs)         00F97
_TRISFbits                                (abs)         00F97
_TRISG                                    (abs)         00F98
_TestButton                               bssBANK1      001BD
_Timer0_Clear                             text42        15064
_Timer0_ISR                               text162       14F08
_Timer0_Init                              text41        114E8
_Timer0_Restart                           text170       14F9C
_Timer0_Start                             text39        14E32
_Timer0_Stop                              text169       150A6
_Timer2_Clear                             text61        15090
_Timer2_Init                              text59        1162C
_ToSegment                                text112       10BE8
_UADDR                                    (abs)         00F5E
_UCFG                                     (abs)         00F5F
_UCON                                     (abs)         00F65
_UCONbits                                 (abs)         00F65
_UEIE                                     (abs)         00F5D
_UEIR                                     (abs)         00F63
_UEP0                                     (abs)         00F4C
_UEP0bits                                 (abs)         00F4C
_UEP1                                     (abs)         00F4D
_UIE                                      (abs)         00F5C
_UIEbits                                  (abs)         00F5C
_UIR                                      (abs)         00F62
_UIRbits                                  (abs)         00F62
_USB1msTickCount                          bssCOMRAM     00038
_USBActiveConfiguration                   bssCOMRAM     0005B
_USBAlternateInterface                    bssCOMRAM     00057
_USBBusIsSuspended                        bssBANK0      00097
_USBCheckCDCRequest                       text152       13008
_USBCheckStdRequest                       text142       12B46
_USBConfigureEndpoint                     text156       1326E
_USBCtrlEPAllowDataStage                  text141       131D8
_USBCtrlEPAllowStatusStage                text159       12A8A
_USBCtrlEPService                         text137       135B6
_USBCtrlEPServiceComplete                 text140       12360
_USBCtrlTrfInHandler                      text160       12D64
_USBCtrlTrfOutHandler                     text157       14192
_USBCtrlTrfRxService                      text158       11F50
_USBCtrlTrfSetupHandler                   text139       13CD8
_USBCtrlTrfTxService                      text161       12522
_USBDeferINDataStagePackets               bssCOMRAM     00046
_USBDeferOUTDataStagePackets              bssCOMRAM     00047
_USBDeferStatusStagePacket                bssCOMRAM     00048
_USBDeviceAttach                          text36        14B80
_USBDeviceInit                            text34        11C10
_USBDeviceState                           bssCOMRAM     00049
_USBDeviceTasks                           text131       119CA
_USBEnableEndpoint                        text155       148A4
_USBIncrement1msInternalTimers            text136       14F80
_USBInputBuffer                           bssBANK2      00228
_USBOutputBuffer                          bssBANK3      00300
_USBStallHandler                          text135       1467E
_USBStatusStageEnabledFlag1               bssCOMRAM     0004A
_USBStatusStageEnabledFlag2               bssCOMRAM     0004B
_USBStatusStageTimeoutCounter             bssCOMRAM     0004C
_USBStdFeatureReqHandler                  text147       105C2
_USBStdGetDscHandler                      text146       1176A
_USBStdGetStatusHandler                   text145       12F68
_USBStdSetCfgHandler                      text143       1284E
_USBSuspend                               text134       14EE6
_USBTicksSinceSuspendEnd                  bssBANK0      00098
_USBTransferOnePacket                     text29        1216A
_USBWakeFromSuspend                       text133       14D14
_USB_CD_Ptr                               mediumconst   0FD0F
_USB_ISR                                  text130       00000
_USB_Init                                 text33        14F28
_USB_Poll                                 text14        15046
_USB_Print                                text114       14EA0
_USB_SD_Ptr                               mediumconst   0FD02
_USB_Tasks                                text15        1463C
_USER_USB_CALLBACK_EVENT_HANDLER          text148       140EA
_USTAT                                    (abs)         00F64
_USTATcopy                                bssCOMRAM     0005C
_Word_GetPair                             text120       14CBC
_Word_SetPair                             text71        14BAE
__CFG_CCP2MX$DEFAULT                      (abs)         00000
__CFG_CPUDIV$OSC1                         (abs)         00000
__CFG_FCMEN$OFF                           (abs)         00000
__CFG_FOSC$HSPLL                          (abs)         00000
__CFG_IESO$OFF                            (abs)         00000
__CFG_MSSPMSK$MSK5                        (abs)         00000
__CFG_PLLDIV$3                            (abs)         00000
__CFG_STVREN$ON                           (abs)         00000
__CFG_WDTEN$OFF                           (abs)         00000
__CFG_WDTPS$32768                         (abs)         00000
__CFG_XINST$OFF                           (abs)         00000
__HRAM                                    (abs)         00000
__Habs1                                   abs1          00000
__Hbank0                                  bank0         00000
__Hbank1                                  bank1         00000
__Hbank10                                 bank10        00000
__Hbank11                                 bank11        00000
__Hbank12                                 bank12        00000
__Hbank13                                 bank13        00000
__Hbank14                                 bank14        00000
__Hbank15                                 bank15        00000
__Hbank2                                  bank2         00000
__Hbank3                                  bank3         00000
__Hbank4                                  bank4         00000
__Hbank5                                  bank5         00000
__Hbank6                                  bank6         00000
__Hbank7                                  bank7         00000
__Hbank8                                  bank8         00000
__Hbank9                                  bank9         00000
__Hbigbss                                 bigbss        00000
__Hbigdata                                bigdata       00000
__Hbigram                                 bigram        00000
__Hbss                                    bss           00000
__HbssBANK0                               bssBANK0      00000
__HbssBANK1                               bssBANK1      00000
__HbssBANK2                               bssBANK2      00000
__HbssBANK3                               bssBANK3      00000
__HbssBIGRAMh                             bssBIGRAMh    00000
__HbssBIGRAMl                             bssBIGRAMl    00000
__HbssCOMRAM                              bssCOMRAM     00000
__Hcinit                                  cinit         00000
__Hclrtext                                clrtext       00000
__Hcomram                                 comram        00000
__Hconfig                                 config        1FFFE
__Hconst                                  const         00000
__HcstackBANK0                            cstackBANK0   00000
__HcstackCOMRAM                           cstackCOMRAM  00000
__Hdata                                   data          00000
__HdataBANK0                              dataBANK0     00000
__HdataBANK1                              dataBANK1     00000
__HdataCOMRAM                             dataCOMRAM    00000
__Hend_init                               end_init      00098
__Hfarbss                                 farbss        00000
__Hfardata                                fardata       00000
__Hibigdata                               ibigdata      00000
__Hidata                                  idata         00000
__HidataBANK0                             idataBANK0    00000
__HidataBANK1                             idataBANK1    00000
__HidataCOMRAM                            idataCOMRAM   00000
__Hidloc                                  idloc         00000
__Hifardata                               ifardata      00000
__Hinit                                   init          00094
__Hintcode                                intcode       00094
__Hintcode_body                           intcode_body  00000
__Hintcodelo                              intcodelo     00094
__Hintentry                               intentry      00000
__Hintret                                 intret        00000
__Hintsave_regs                           intsave_regs  00000
__Hirdata                                 irdata        00000
__Hjflash_buffer                          jflash_buffer 1F800
__Hmediumconst                            mediumconst   10000
__HnvFARRAM                               nvFARRAM      00000
__Hnvbit                                  nvbit         00000
__Hnvrram                                 nvrram        00000
__Hparam                                  rparam        00000
__Hpowerup                                powerup       00094
__Hram                                    ram           00000
__Hramtop                                 ramtop        01000
__Hrbit                                   rbit          00000
__Hrbss                                   rbss          00000
__Hrdata                                  rdata         00000
__Hreset_vec                              reset_vec     00004
__Hrparam                                 rparam        00000
__Hsfr                                    sfr           00000
__Hsmallconst                             smallconst    00000
__Hspace_0                                (abs)         1FFFE
__Hspace_1                                (abs)         00D3D
__Hspace_2                                (abs)         00000
__Hstack                                  stack         00000
__Hstruct                                 struct        00000
__Htemp                                   temp          00060
__Htext                                   text          00000
__Htext0                                  text0         00000
__Htext1                                  text1         00000
__Htext10                                 text10        00000
__Htext100                                text100       00000
__Htext101                                text101       00000
__Htext102                                text102       00000
__Htext103                                text103       00000
__Htext104                                text104       00000
__Htext105                                text105       00000
__Htext106                                text106       00000
__Htext107                                text107       00000
__Htext108                                text108       00000
__Htext109                                text109       00000
__Htext11                                 text11        00000
__Htext110                                text110       00000
__Htext111                                text111       00000
__Htext112                                text112       00000
__Htext113                                text113       00000
__Htext114                                text114       00000
__Htext115                                text115       00000
__Htext116                                text116       00000
__Htext117                                text117       00000
__Htext118                                text118       00000
__Htext119                                text119       00000
__Htext12                                 text12        00000
__Htext120                                text120       00000
__Htext121                                text121       00000
__Htext122                                text122       00000
__Htext123                                text123       00000
__Htext124                                text124       00000
__Htext125                                text125       00000
__Htext126                                text126       00000
__Htext127                                text127       00000
__Htext128                                text128       00000
__Htext13                                 text13        00000
__Htext130                                text130       00000
__Htext131                                text131       00000
__Htext132                                text132       00000
__Htext133                                text133       00000
__Htext134                                text134       00000
__Htext135                                text135       00000
__Htext136                                text136       00000
__Htext137                                text137       00000
__Htext138                                text138       00000
__Htext139                                text139       00000
__Htext14                                 text14        00000
__Htext140                                text140       00000
__Htext141                                text141       00000
__Htext142                                text142       00000
__Htext143                                text143       00000
__Htext144                                text144       00000
__Htext145                                text145       00000
__Htext146                                text146       00000
__Htext147                                text147       00000
__Htext148                                text148       00000
__Htext149                                text149       00000
__Htext15                                 text15        00000
__Htext150                                text150       00000
__Htext151                                text151       00000
__Htext152                                text152       00000
__Htext153                                text153       00000
__Htext154                                text154       00000
__Htext155                                text155       00000
__Htext156                                text156       00000
__Htext157                                text157       00000
__Htext158                                text158       00000
__Htext159                                text159       00000
__Htext16                                 text16        00000
__Htext160                                text160       00000
__Htext161                                text161       00000
__Htext162                                text162       00000
__Htext163                                text163       00000
__Htext164                                text164       00000
__Htext165                                text165       00000
__Htext166                                text166       00000
__Htext167                                text167       00000
__Htext168                                text168       00000
__Htext169                                text169       00000
__Htext17                                 text17        00000
__Htext170                                text170       00000
__Htext171                                text171       00000
__Htext18                                 text18        00000
__Htext19                                 text19        00000
__Htext2                                  text2         00000
__Htext20                                 text20        00000
__Htext21                                 text21        00000
__Htext22                                 text22        00000
__Htext23                                 text23        00000
__Htext24                                 text24        00000
__Htext25                                 text25        00000
__Htext26                                 text26        00000
__Htext27                                 text27        00000
__Htext28                                 text28        00000
__Htext29                                 text29        00000
__Htext3                                  text3         00000
__Htext30                                 text30        00000
__Htext31                                 text31        00000
__Htext32                                 text32        00000
__Htext33                                 text33        00000
__Htext34                                 text34        00000
__Htext35                                 text35        00000
__Htext36                                 text36        00000
__Htext37                                 text37        00000
__Htext38                                 text38        00000
__Htext39                                 text39        00000
__Htext4                                  text4         00000
__Htext40                                 text40        00000
__Htext41                                 text41        00000
__Htext42                                 text42        00000
__Htext43                                 text43        00000
__Htext44                                 text44        00000
__Htext45                                 text45        00000
__Htext46                                 text46        00000
__Htext47                                 text47        00000
__Htext48                                 text48        00000
__Htext49                                 text49        00000
__Htext5                                  text5         00000
__Htext50                                 text50        00000
__Htext51                                 text51        00000
__Htext52                                 text52        00000
__Htext53                                 text53        00000
__Htext54                                 text54        00000
__Htext55                                 text55        00000
__Htext56                                 text56        00000
__Htext57                                 text57        00000
__Htext58                                 text58        00000
__Htext59                                 text59        00000
__Htext6                                  text6         00000
__Htext60                                 text60        00000
__Htext61                                 text61        00000
__Htext62                                 text62        00000
__Htext63                                 text63        00000
__Htext64                                 text64        00000
__Htext65                                 text65        00000
__Htext66                                 text66        00000
__Htext67                                 text67        00000
__Htext68                                 text68        00000
__Htext69                                 text69        00000
__Htext7                                  text7         00000
__Htext70                                 text70        00000
__Htext71                                 text71        00000
__Htext72                                 text72        00000
__Htext73                                 text73        00000
__Htext74                                 text74        00000
__Htext75                                 text75        00000
__Htext76                                 text76        00000
__Htext77                                 text77        00000
__Htext78                                 text78        00000
__Htext79                                 text79        00000
__Htext8                                  text8         00000
__Htext80                                 text80        00000
__Htext81                                 text81        00000
__Htext82                                 text82        00000
__Htext83                                 text83        00000
__Htext84                                 text84        00000
__Htext85                                 text85        00000
__Htext86                                 text86        00000
__Htext87                                 text87        00000
__Htext88                                 text88        00000
__Htext89                                 text89        00000
__Htext9                                  text9         00000
__Htext90                                 text90        00000
__Htext91                                 text91        00000
__Htext92                                 text92        00000
__Htext93                                 text93        00000
__Htext94                                 text94        00000
__Htext95                                 text95        00000
__Htext96                                 text96        00000
__Htext97                                 text97        00000
__Htext98                                 text98        00000
__Htext99                                 text99        00000
__LRAM                                    (abs)         00001
__Labs1                                   abs1          00000
__Lbank0                                  bank0         00000
__Lbank1                                  bank1         00000
__Lbank10                                 bank10        00000
__Lbank11                                 bank11        00000
__Lbank12                                 bank12        00000
__Lbank13                                 bank13        00000
__Lbank14                                 bank14        00000
__Lbank15                                 bank15        00000
__Lbank2                                  bank2         00000
__Lbank3                                  bank3         00000
__Lbank4                                  bank4         00000
__Lbank5                                  bank5         00000
__Lbank6                                  bank6         00000
__Lbank7                                  bank7         00000
__Lbank8                                  bank8         00000
__Lbank9                                  bank9         00000
__Lbigbss                                 bigbss        00000
__Lbigdata                                bigdata       00000
__Lbigram                                 bigram        00000
__Lbss                                    bss           00000
__LbssBANK0                               bssBANK0      00000
__LbssBANK1                               bssBANK1      00000
__LbssBANK2                               bssBANK2      00000
__LbssBANK3                               bssBANK3      00000
__LbssBIGRAMh                             bssBIGRAMh    00000
__LbssBIGRAMl                             bssBIGRAMl    00000
__LbssCOMRAM                              bssCOMRAM     00000
__Lcinit                                  cinit         00000
__Lclrtext                                clrtext       00000
__Lcomram                                 comram        00000
__Lconfig                                 config        1FFF8
__Lconst                                  const         00000
__LcstackBANK0                            cstackBANK0   00000
__LcstackCOMRAM                           cstackCOMRAM  00000
__Ldata                                   data          00000
__LdataBANK0                              dataBANK0     00000
__LdataBANK1                              dataBANK1     00000
__LdataCOMRAM                             dataCOMRAM    00000
__Lend_init                               end_init      00094
__Lfarbss                                 farbss        00000
__Lfardata                                fardata       00000
__Libigdata                               ibigdata      00000
__Lidata                                  idata         00000
__LidataBANK0                             idataBANK0    00000
__LidataBANK1                             idataBANK1    00000
__LidataCOMRAM                            idataCOMRAM   00000
__Lidloc                                  idloc         00000
__Lifardata                               ifardata      00000
__Linit                                   init          00094
__Lintcode                                intcode       00008
__Lintcode_body                           intcode_body  00000
__Lintcodelo                              intcodelo     00094
__Lintentry                               intentry      00000
__Lintret                                 intret        00000
__Lintsave_regs                           intsave_regs  00000
__Lirdata                                 irdata        00000
__Ljflash_buffer                          jflash_buffer 1F800
__Lmediumconst                            mediumconst   0FBEE
__LnvFARRAM                               nvFARRAM      00000
__Lnvbit                                  nvbit         00000
__Lnvrram                                 nvrram        00000
__Lparam                                  rparam        00000
__Lpowerup                                powerup       00094
__Lram                                    ram           00000
__Lramtop                                 ramtop        01000
__Lrbit                                   rbit          00000
__Lrbss                                   rbss          00000
__Lrdata                                  rdata         00000
__Lreset_vec                              reset_vec     00000
__Lrparam                                 rparam        00000
__Lsfr                                    sfr           00000
__Lsmallconst                             smallconst    00000
__Lspace_0                                (abs)         00000
__Lspace_1                                (abs)         00000
__Lspace_2                                (abs)         00000
__Lstack                                  stack         00000
__Lstruct                                 struct        00000
__Ltemp                                   temp          0005F
__Ltext                                   text          00000
__Ltext0                                  text0         00000
__Ltext1                                  text1         00000
__Ltext10                                 text10        00000
__Ltext100                                text100       00000
__Ltext101                                text101       00000
__Ltext102                                text102       00000
__Ltext103                                text103       00000
__Ltext104                                text104       00000
__Ltext105                                text105       00000
__Ltext106                                text106       00000
__Ltext107                                text107       00000
__Ltext108                                text108       00000
__Ltext109                                text109       00000
__Ltext11                                 text11        00000
__Ltext110                                text110       00000
__Ltext111                                text111       00000
__Ltext112                                text112       00000
__Ltext113                                text113       00000
__Ltext114                                text114       00000
__Ltext115                                text115       00000
__Ltext116                                text116       00000
__Ltext117                                text117       00000
__Ltext118                                text118       00000
__Ltext119                                text119       00000
__Ltext12                                 text12        00000
__Ltext120                                text120       00000
__Ltext121                                text121       00000
__Ltext122                                text122       00000
__Ltext123                                text123       00000
__Ltext124                                text124       00000
__Ltext125                                text125       00000
__Ltext126                                text126       00000
__Ltext127                                text127       00000
__Ltext128                                text128       00000
__Ltext13                                 text13        00000
__Ltext130                                text130       00000
__Ltext131                                text131       00000
__Ltext132                                text132       00000
__Ltext133                                text133       00000
__Ltext134                                text134       00000
__Ltext135                                text135       00000
__Ltext136                                text136       00000
__Ltext137                                text137       00000
__Ltext138                                text138       00000
__Ltext139                                text139       00000
__Ltext14                                 text14        00000
__Ltext140                                text140       00000
__Ltext141                                text141       00000
__Ltext142                                text142       00000
__Ltext143                                text143       00000
__Ltext144                                text144       00000
__Ltext145                                text145       00000
__Ltext146                                text146       00000
__Ltext147                                text147       00000
__Ltext148                                text148       00000
__Ltext149                                text149       00000
__Ltext15                                 text15        00000
__Ltext150                                text150       00000
__Ltext151                                text151       00000
__Ltext152                                text152       00000
__Ltext153                                text153       00000
__Ltext154                                text154       00000
__Ltext155                                text155       00000
__Ltext156                                text156       00000
__Ltext157                                text157       00000
__Ltext158                                text158       00000
__Ltext159                                text159       00000
__Ltext16                                 text16        00000
__Ltext160                                text160       00000
__Ltext161                                text161       00000
__Ltext162                                text162       00000
__Ltext163                                text163       00000
__Ltext164                                text164       00000
__Ltext165                                text165       00000
__Ltext166                                text166       00000
__Ltext167                                text167       00000
__Ltext168                                text168       00000
__Ltext169                                text169       00000
__Ltext17                                 text17        00000
__Ltext170                                text170       00000
__Ltext171                                text171       00000
__Ltext18                                 text18        00000
__Ltext19                                 text19        00000
__Ltext2                                  text2         00000
__Ltext20                                 text20        00000
__Ltext21                                 text21        00000
__Ltext22                                 text22        00000
__Ltext23                                 text23        00000
__Ltext24                                 text24        00000
__Ltext25                                 text25        00000
__Ltext26                                 text26        00000
__Ltext27                                 text27        00000
__Ltext28                                 text28        00000
__Ltext29                                 text29        00000
__Ltext3                                  text3         00000
__Ltext30                                 text30        00000
__Ltext31                                 text31        00000
__Ltext32                                 text32        00000
__Ltext33                                 text33        00000
__Ltext34                                 text34        00000
__Ltext35                                 text35        00000
__Ltext36                                 text36        00000
__Ltext37                                 text37        00000
__Ltext38                                 text38        00000
__Ltext39                                 text39        00000
__Ltext4                                  text4         00000
__Ltext40                                 text40        00000
__Ltext41                                 text41        00000
__Ltext42                                 text42        00000
__Ltext43                                 text43        00000
__Ltext44                                 text44        00000
__Ltext45                                 text45        00000
__Ltext46                                 text46        00000
__Ltext47                                 text47        00000
__Ltext48                                 text48        00000
__Ltext49                                 text49        00000
__Ltext5                                  text5         00000
__Ltext50                                 text50        00000
__Ltext51                                 text51        00000
__Ltext52                                 text52        00000
__Ltext53                                 text53        00000
__Ltext54                                 text54        00000
__Ltext55                                 text55        00000
__Ltext56                                 text56        00000
__Ltext57                                 text57        00000
__Ltext58                                 text58        00000
__Ltext59                                 text59        00000
__Ltext6                                  text6         00000
__Ltext60                                 text60        00000
__Ltext61                                 text61        00000
__Ltext62                                 text62        00000
__Ltext63                                 text63        00000
__Ltext64                                 text64        00000
__Ltext65                                 text65        00000
__Ltext66                                 text66        00000
__Ltext67                                 text67        00000
__Ltext68                                 text68        00000
__Ltext69                                 text69        00000
__Ltext7                                  text7         00000
__Ltext70                                 text70        00000
__Ltext71                                 text71        00000
__Ltext72                                 text72        00000
__Ltext73                                 text73        00000
__Ltext74                                 text74        00000
__Ltext75                                 text75        00000
__Ltext76                                 text76        00000
__Ltext77                                 text77        00000
__Ltext78                                 text78        00000
__Ltext79                                 text79        00000
__Ltext8                                  text8         00000
__Ltext80                                 text80        00000
__Ltext81                                 text81        00000
__Ltext82                                 text82        00000
__Ltext83                                 text83        00000
__Ltext84                                 text84        00000
__Ltext85                                 text85        00000
__Ltext86                                 text86        00000
__Ltext87                                 text87        00000
__Ltext88                                 text88        00000
__Ltext89                                 text89        00000
__Ltext9                                  text9         00000
__Ltext90                                 text90        00000
__Ltext91                                 text91        00000
__Ltext92                                 text92        00000
__Ltext93                                 text93        00000
__Ltext94                                 text94        00000
__Ltext95                                 text95        00000
__Ltext96                                 text96        00000
__Ltext97                                 text97        00000
__Ltext98                                 text98        00000
__Ltext99                                 text99        00000
__S0                                      (abs)         1FFFE
__S1                                      (abs)         00D3D
__S2                                      (abs)         00000
___awdiv                                  text22        1352E
___awdiv@counter                          cstackBANK0   000B2
___awdiv@dividend                         cstackBANK0   000AE
___awdiv@divisor                          cstackBANK0   000B0
___awdiv@quotient                         cstackBANK0   000B4
___awdiv@sign                             cstackBANK0   000B3
___extmem_base                            (abs)         20000
___inthi_sp                               stack         00000
___intlo_sp                               stack         00000
___lldiv                                  text60        13846
___lldiv@counter                          cstackBANK0   000BA
___lldiv@dividend                         cstackBANK0   000AE
___lldiv@divisor                          cstackBANK0   000B2
___lldiv@quotient                         cstackBANK0   000B6
___lwdiv                                  text110       14096
___lwdiv@counter                          cstackBANK0   000B4
___lwdiv@dividend                         cstackBANK0   000AE
___lwdiv@divisor                          cstackBANK0   000B0
___lwdiv@quotient                         cstackBANK0   000B2
___lwmod                                  text109       14452
___lwmod@counter                          cstackBANK0   000B2
___lwmod@dividend                         cstackBANK0   000AE
___lwmod@divisor                          cstackBANK0   000B0
___param_bank                             (abs)         00010
___rparam_used                            (abs)         00001
___sp                                     stack         00000
___wmul                                   text86        14DE4
___wmul@multiplicand                      cstackBANK0   000B0
___wmul@multiplier                        cstackBANK0   000AE
___wmul@product                           cstackBANK0   000B2
__accesstop                               (abs)         00060
__activetblptr                            (abs)         00003
__end_ofHMI_SetButton@F8267               mediumconst   0FD0C
__end_ofPortProperty_Valid@F7768          mediumconst   0FCB1
__end_ofTimer0_Init@PRESCALE              mediumconst   0FCC1
__end_ofTimer2_Init@PRESCALE              mediumconst   0FD0F
__end_of_BLOCKS_COUNT                     mediumconst   0FD12
__end_of_Button_Init                      text65        13140
__end_of_Button_Poll                      text94        11F50
__end_of_Button_State                     text126       1352E
__end_of_Byte_GetBit                      text92        14C0A
__end_of_Byte_GetPair                     text121       12EC0
__end_of_Byte_GetZone                     text122       00000
__end_of_Byte_SetBit                      text123       1428A
__end_of_Byte_SetPair                     text72        12A8A
__end_of_Byte_SetPort                     text6         15064
__end_of_Byte_SetQuad                     text69        129CC
__end_of_Byte_SetZone                     text73        00000
__end_of_CDCInitEP                        text153       14192
__end_of_CDCTxService                     text28        114E8
__end_of_Configure_GPIOs                  text48        143C0
__end_of_Console_Backspace                text26        14528
__end_of_Console_ClearCursor              text27        14B24
__end_of_Console_FormFeed                 text25        13C72
__end_of_Console_IncrementCursor          text23        14328
__end_of_Console_Init                     text54        13CD8
__end_of_Console_MakeField                text91        12F68
__end_of_Console_NewLine                  text24        13B2C
__end_of_Console_PrintChar                text20        00000
__end_of_Console_Render                   text83        10F5A
__end_of_Console_Tab                      text21        13418
__end_of_Event_DIPSwitch                  text95        14AF4
__end_of_Event_HMI_DIPSwitch              text100       14C38
__end_of_Event_HMI_DownButton             text96        149F2
__end_of_Event_HMI_LeftButton             text99        1440A
__end_of_Event_HMI_RightButton            text98        147B8
__end_of_Event_HMI_UpButton               text97        14A5C
__end_of_Event_TestButton                 text101       147F4
__end_of_Event_USBRecieve                 text17        14C64
__end_of_Font5x7                          mediumconst   0FEF2
__end_of_FunctButton                      text93        14E7C
__end_of_FunctHMI                         text75        14F80
__end_of_FunctInitButton                  text64        145B4
__end_of_FunctInitHMI                     text55        14DE4
__end_of_FunctInitLCD                     text44        14FCE
__end_of_FunctInitMotor                   text37        1456E
__end_of_FunctInitUSB                     text32        150B4
__end_of_FunctMotor                       text30        13F24
__end_of_FunctUSB                         text13        150B0
__end_of_GetPortPORT                      text9         13846
__end_of_GetPortProperties                text8         137C4
__end_of_GetPortTRIS                      text7         13742
__end_of_HMI_GetBar                       text125       150A6
__end_of_HMI_Init                         text56        11E3C
__end_of_HMI_Poll                         text82        14040
__end_of_HMI_Render                       text79        1494E
__end_of_HMI_SetBar                       text124       15090
__end_of_HMI_SetButton                    text102       13AB4
__end_of_HMI_SetDown                      text113       15036
__end_of_HMI_SetLeft                      text105       15022
__end_of_HMI_SetNumber                    text106       14EA0
__end_of_HMI_SetRight                     text104       1500E
__end_of_HMI_SetSegments                  text111       12788
__end_of_HMI_SetUp                        text103       14FFA
__end_of_ISR_Enable                       text12        15086
__end_of_ISR_Function                     intcode       00094
__end_of_InitList                         mediumconst   0FCA1
__end_of_LCD_DrawField                    text85        139C0
__end_of_LCD_Fill                         text47        145F8
__end_of_LCD_FillRectangle                text84        14238
__end_of_LCD_Init                         text45        119CA
__end_of_LCD_Reset                        text50        13A3A
__end_of_LCD_Word_Write                   text88        14FE6
__end_of_LCD_Write                        text89        14986
__end_of_LED_Init                         text10        14452
__end_of_LED_Set                          text11        149BC
__end_of_LED_Toggle                       text117       14A90
__end_of_LLVALS                           mediumconst   0FCD2
__end_of_LNVALS                           mediumconst   0FCDA
__end_of_LZVALS                           mediumconst   0FCE2
__end_of_MASKS                            mediumconst   0FCCA
__end_of_MXK_BlockSwitchTo                text77        14AC2
__end_of_MXK_Init                         text1         11C10
__end_of_MXK_Release                      text76        150A0
__end_of_Motor_Continious                 text43        148A4
__end_of_Motor_Init                       text40        13944
__end_of_Motor_Move                       text38        1486A
__end_of_Motor_Speed                      text31        14E32
__end_of_Motor_Step                       text163       12CB2
__end_of_OutSeg                           text80        13C08
__end_of_PortA_Property                   mediumconst   0FFB5
__end_of_PortB_Property                   mediumconst   0FFB7
__end_of_PortC_Property                   mediumconst   0FFB9
__end_of_PortD_Property                   mediumconst   0FFBB
__end_of_PortE_Property                   mediumconst   0FFBD
__end_of_PortF_Property                   mediumconst   0FFBF
__end_of_PortG_Property                   mediumconst   0FFC1
__end_of_PortProperty_Valid               text74        13E00
__end_of_Port_CheckPairType               text68        13FE4
__end_of_Port_CheckPortType               text4         1473E
__end_of_Port_CheckQuadType               text67        142DA
__end_of_Port_GetPin                      text128       14830
__end_of_Port_GetQuad                     text127       14700
__end_of_Port_Init                        text2         1124A
__end_of_Port_Set                         text5         105C2
__end_of_Port_SetPin                      text119       13B9C
__end_of_Port_SetPinType                  text70        110E8
__end_of_Port_SetQuadType                 text66        10A24
__end_of_Port_SetType                     text3         10BE8
__end_of_Port_TogglePin                   text118       14CBC
__end_of_RLVALS                           mediumconst   0FCEA
__end_of_RZVALS                           mediumconst   0FCF2
__end_of_Reset_High                       text53        00000
__end_of_Reset_Low                        text52        00000
__end_of_SPI_DCS                          text63        14C90
__end_of_SPI_DisableISR                   text62        14EE6
__end_of_SPI_Init                         text58        1034A
__end_of_SPI_MaxSpeed                     text49        13F84
__end_of_SPI_MinSpeed                     text57        13D9E
__end_of_SPI_Send                         text81        13E62
__end_of_SPI_Send9                        text90        126BE
__end_of_SQVALS                           mediumconst   0FCFA
__end_of_Set_Addr_Window                  text87        134A4
__end_of_Set_Rotation                     text46        136C0
__end_of_TEVALS                           mediumconst   0FD02
__end_of_Timer0_Clear                     text42        15070
__end_of_Timer0_ISR                       text162       14F28
__end_of_Timer0_Init                      text41        1162C
__end_of_Timer0_Restart                   text170       14FB6
__end_of_Timer0_Start                     text39        14E58
__end_of_Timer0_Stop                      text169       150AC
__end_of_Timer2_Clear                     text61        15098
__end_of_Timer2_Init                      text59        1176A
__end_of_ToSegment                        text112       10DA2
__end_of_USBCheckCDCRequest               text152       130A6
__end_of_USBCheckStdRequest               text142       12BFE
__end_of_USBConfigureEndpoint             text156       132FE
__end_of_USBCtrlEPAllowDataStage          text141       1326E
__end_of_USBCtrlEPAllowStatusStage        text159       12B46
__end_of_USBCtrlEPService                 text137       1363C
__end_of_USBCtrlEPServiceComplete         text140       12442
__end_of_USBCtrlTrfInHandler              text160       12E16
__end_of_USBCtrlTrfOutHandler             text157       141E6
__end_of_USBCtrlTrfRxService              text158       1205E
__end_of_USBCtrlTrfSetupHandler           text139       13D3C
__end_of_USBCtrlTrfTxService              text161       125F2
__end_of_USBDeviceAttach                  text36        14BAE
__end_of_USBDeviceInit                    text34        11D28
__end_of_USBDeviceTasks                   text131       11AF2
__end_of_USBEnableEndpoint                text155       148DE
__end_of_USBIncrement1msInternalTimers    text136       14F9C
__end_of_USBStallHandler                  text135       146C0
__end_of_USBStdFeatureReqHandler          text147       10822
__end_of_USBStdGetDscHandler              text146       1189C
__end_of_USBStdGetStatusHandler           text145       13008
__end_of_USBStdSetCfgHandler              text143       1290E
__end_of_USBSuspend                       text134       14F08
__end_of_USBTransferOnePacket             text29        1226A
__end_of_USBWakeFromSuspend               text133       14D3E
__end_of_USB_CD_Ptr                       mediumconst   0FD11
__end_of_USB_ISR                          text130       00000
__end_of_USB_Init                         text33        14F46
__end_of_USB_Poll                         text14        15056
__end_of_USB_Print                        text114       14EC4
__end_of_USB_SD_Ptr                       mediumconst   0FD08
__end_of_USB_Tasks                        text15        1467E
__end_of_USER_USB_CALLBACK_EVENT_HANDLER  text148       1413E
__end_of_Word_GetPair                     text120       14CE8
__end_of_Word_SetPair                     text71        14BDC
__end_of___awdiv                          text22        135B6
__end_of___lldiv                          text60        138C6
__end_of___lwdiv                          text110       140EA
__end_of___lwmod                          text109       1449A
__end_of___wmul                           text86        14E0C
__end_of__initialization                  cinit         12844
__end_of_configDescriptor1                mediumconst   0FF35
__end_of_delay_ms                         text51        14376
__end_of_delay_us                         text78        14916
__end_of_device_dsc                       mediumconst   0FFAF
__end_of_getsUSBUSART                     text16        131D8
__end_of_itos                             text107       12D64
__end_of_main                             text0         14B52
__end_of_memcpy                           text138       1477C
__end_of_memset                           text35        14B80
__end_of_printf                           text18        12522
__end_of_putUSBUSART                      text116       14F64
__end_of_putch                            text19        113A2
__end_of_reverse                          text108       14096
__end_of_sd000                            mediumconst   0FFB3
__end_of_sd001                            mediumconst   0FF69
__end_of_sd002                            mediumconst   0FF9D
__end_of_strlen                           text115       1463C
__end_ofi2_Byte_GetPair                   text166       1338C
__end_ofi2_Byte_GetZone                   text167       00000
__end_ofi2_Byte_SetBit                    text168       144E2
__end_ofi2_LED_Toggle                     text149       14D14
__end_ofi2_Port_GetPin                    text151       14A28
__end_ofi2_Port_SetPin                    text164       13EC4
__end_ofi2_Port_TogglePin                 text150       14D92
__end_ofi2_USBDeviceInit                  text132       1216A
__end_ofi2_USBTransferOnePacket           text154       12360
__end_ofi2_Word_GetPair                   text165       14DBC
__end_ofi2_memset                         text144       14D68
__initialization                          cinit         12788
__mediumconst                             mediumconst   0FBEE
__pbssBANK0                               bssBANK0      00060
__pbssBANK1                               bssBANK1      00100
__pbssBANK2                               bssBANK2      00200
__pbssBANK3                               bssBANK3      00300
__pbssBIGRAMh                             bssBIGRAMh    00440
__pbssBIGRAMl                             bssBIGRAMl    00C11
__pbssCOMRAM                              bssCOMRAM     00038
__pcinit                                  cinit         12788
__pcstackBANK0                            cstackBANK0   000AE
__pcstackCOMRAM                           cstackCOMRAM  00001
__pdataBANK0                              dataBANK0     000F4
__pdataBANK1                              dataBANK1     001E8
__pdataCOMRAM                             dataCOMRAM    0005D
__pidataBANK0                             idataBANK0    15070
__pidataBANK1                             idataBANK1    15036
__pidataCOMRAM                            idataCOMRAM   150B4
__pintcode                                intcode       00008
__pmediumconst                            mediumconst   0FBEE
__ptext0                                  text0         14B24
__ptext1                                  text1         11AF2
__ptext10                                 text10        1440A
__ptext100                                text100       14C0A
__ptext101                                text101       147B8
__ptext102                                text102       13A3A
__ptext103                                text103       14FE6
__ptext104                                text104       14FFA
__ptext105                                text105       1500E
__ptext106                                text106       14E7C
__ptext107                                text107       12CB2
__ptext108                                text108       14040
__ptext109                                text109       14452
__ptext11                                 text11        14986
__ptext110                                text110       14096
__ptext111                                text111       126BE
__ptext112                                text112       10BE8
__ptext113                                text113       15022
__ptext114                                text114       14EA0
__ptext115                                text115       145F8
__ptext116                                text116       14F46
__ptext117                                text117       14A5C
__ptext118                                text118       14C90
__ptext119                                text119       13B2C
__ptext12                                 text12        1507C
__ptext120                                text120       14CBC
__ptext121                                text121       12E16
__ptext122                                text122       00000
__ptext123                                text123       14238
__ptext124                                text124       15086
__ptext125                                text125       150A0
__ptext126                                text126       134A4
__ptext127                                text127       146C0
__ptext128                                text128       147F4
__ptext13                                 text13        150AC
__ptext130                                text130       00000
__ptext131                                text131       119CA
__ptext132                                text132       1205E
__ptext133                                text133       14D14
__ptext134                                text134       14EE6
__ptext135                                text135       1467E
__ptext136                                text136       14F80
__ptext137                                text137       135B6
__ptext138                                text138       1473E
__ptext139                                text139       13CD8
__ptext14                                 text14        15046
__ptext140                                text140       12360
__ptext141                                text141       131D8
__ptext142                                text142       12B46
__ptext143                                text143       1284E
__ptext144                                text144       14D3E
__ptext145                                text145       12F68
__ptext146                                text146       1176A
__ptext147                                text147       105C2
__ptext148                                text148       140EA
__ptext149                                text149       14CE8
__ptext15                                 text15        1463C
__ptext150                                text150       14D68
__ptext151                                text151       149F2
__ptext152                                text152       13008
__ptext153                                text153       1413E
__ptext154                                text154       1226A
__ptext155                                text155       148A4
__ptext156                                text156       1326E
__ptext157                                text157       14192
__ptext158                                text158       11F50
__ptext159                                text159       12A8A
__ptext16                                 text16        13140
__ptext160                                text160       12D64
__ptext161                                text161       12522
__ptext162                                text162       14F08
__ptext163                                text163       12BFE
__ptext164                                text164       13E62
__ptext165                                text165       14D92
__ptext166                                text166       132FE
__ptext167                                text167       00000
__ptext168                                text168       1449A
__ptext169                                text169       150A6
__ptext17                                 text17        14C38
__ptext170                                text170       14F9C
__ptext171                                text171       00000
__ptext18                                 text18        12442
__ptext19                                 text19        1124A
__ptext2                                  text2         110E8
__ptext20                                 text20        00000
__ptext21                                 text21        1338C
__ptext22                                 text22        1352E
__ptext23                                 text23        142DA
__ptext24                                 text24        13AB4
__ptext25                                 text25        13C08
__ptext26                                 text26        144E2
__ptext27                                 text27        14AF4
__ptext28                                 text28        113A2
__ptext29                                 text29        1216A
__ptext3                                  text3         10A24
__ptext30                                 text30        13EC4
__ptext31                                 text31        14E0C
__ptext32                                 text32        150B0
__ptext33                                 text33        14F28
__ptext34                                 text34        11C10
__ptext35                                 text35        14B52
__ptext36                                 text36        14B80
__ptext37                                 text37        14528
__ptext38                                 text38        14830
__ptext39                                 text39        14E32
__ptext4                                  text4         14700
__ptext40                                 text40        138C6
__ptext41                                 text41        114E8
__ptext42                                 text42        15064
__ptext43                                 text43        1486A
__ptext44                                 text44        14FB6
__ptext45                                 text45        1189C
__ptext46                                 text46        1363C
__ptext47                                 text47        145B4
__ptext48                                 text48        14376
__ptext49                                 text49        13F24
__ptext5                                  text5         1034A
__ptext50                                 text50        139C0
__ptext51                                 text51        14328
__ptext52                                 text52        00000
__ptext53                                 text53        00000
__ptext54                                 text54        13C72
__ptext55                                 text55        14DBC
__ptext56                                 text56        11D28
__ptext57                                 text57        13D3C
__ptext58                                 text58        10000
__ptext59                                 text59        1162C
__ptext6                                  text6         15056
__ptext60                                 text60        13846
__ptext61                                 text61        15090
__ptext62                                 text62        14EC4
__ptext63                                 text63        14C64
__ptext64                                 text64        1456E
__ptext65                                 text65        130A6
__ptext66                                 text66        10822
__ptext67                                 text67        1428A
__ptext68                                 text68        13F84
__ptext69                                 text69        1290E
__ptext7                                  text7         136C0
__ptext70                                 text70        10F5A
__ptext71                                 text71        14BAE
__ptext72                                 text72        129CC
__ptext73                                 text73        00000
__ptext74                                 text74        13D9E
__ptext75                                 text75        14F64
__ptext76                                 text76        15098
__ptext77                                 text77        14A90
__ptext78                                 text78        148DE
__ptext79                                 text79        14916
__ptext8                                  text8         13742
__ptext80                                 text80        13B9C
__ptext81                                 text81        13E00
__ptext82                                 text82        13FE4
__ptext83                                 text83        10DA2
__ptext84                                 text84        141E6
__ptext85                                 text85        13944
__ptext86                                 text86        14DE4
__ptext87                                 text87        13418
__ptext88                                 text88        14FCE
__ptext89                                 text89        1494E
__ptext9                                  text9         137C4
__ptext90                                 text90        125F2
__ptext91                                 text91        12EC0
__ptext92                                 text92        14BDC
__ptext93                                 text93        14E58
__ptext94                                 text94        11E3C
__ptext95                                 text95        14AC2
__ptext96                                 text96        149BC
__ptext97                                 text97        14A28
__ptext98                                 text98        1477C
__ptext99                                 text99        143C0
__ramtop                                  ramtop        01000
__size_of_Button_Init                     (abs)         00000
__size_of_Button_Poll                     (abs)         00000
__size_of_Button_State                    (abs)         00000
__size_of_Byte_GetBit                     (abs)         00000
__size_of_Byte_GetPair                    (abs)         00000
__size_of_Byte_GetZone                    (abs)         00000
__size_of_Byte_SetBit                     (abs)         00000
__size_of_Byte_SetPair                    (abs)         00000
__size_of_Byte_SetPort                    (abs)         00000
__size_of_Byte_SetQuad                    (abs)         00000
__size_of_Byte_SetZone                    (abs)         00000
__size_of_CDCInitEP                       (abs)         00000
__size_of_CDCTxService                    (abs)         00000
__size_of_Configure_GPIOs                 (abs)         00000
__size_of_Console_Backspace               (abs)         00000
__size_of_Console_ClearCursor             (abs)         00000
__size_of_Console_FormFeed                (abs)         00000
__size_of_Console_IncrementCursor         (abs)         00000
__size_of_Console_Init                    (abs)         00000
__size_of_Console_MakeField               (abs)         00000
__size_of_Console_NewLine                 (abs)         00000
__size_of_Console_PrintChar               (abs)         00000
__size_of_Console_Render                  (abs)         00000
__size_of_Console_Tab                     (abs)         00000
__size_of_Event_DIPSwitch                 (abs)         00000
__size_of_Event_HMI_DIPSwitch             (abs)         00000
__size_of_Event_HMI_DownButton            (abs)         00000
__size_of_Event_HMI_LeftButton            (abs)         00000
__size_of_Event_HMI_RightButton           (abs)         00000
__size_of_Event_HMI_UpButton              (abs)         00000
__size_of_Event_TestButton                (abs)         00000
__size_of_Event_USBRecieve                (abs)         00000
__size_of_FunctButton                     (abs)         00000
__size_of_FunctHMI                        (abs)         00000
__size_of_FunctInitButton                 (abs)         00000
__size_of_FunctInitHMI                    (abs)         00000
__size_of_FunctInitLCD                    (abs)         00000
__size_of_FunctInitMotor                  (abs)         00000
__size_of_FunctInitUSB                    (abs)         00000
__size_of_FunctMotor                      (abs)         00000
__size_of_FunctUSB                        (abs)         00000
__size_of_GetPortPORT                     (abs)         00000
__size_of_GetPortProperties               (abs)         00000
__size_of_GetPortTRIS                     (abs)         00000
__size_of_HMI_GetBar                      (abs)         00000
__size_of_HMI_Init                        (abs)         00000
__size_of_HMI_Poll                        (abs)         00000
__size_of_HMI_Render                      (abs)         00000
__size_of_HMI_SetBar                      (abs)         00000
__size_of_HMI_SetButton                   (abs)         00000
__size_of_HMI_SetDown                     (abs)         00000
__size_of_HMI_SetLeft                     (abs)         00000
__size_of_HMI_SetNumber                   (abs)         00000
__size_of_HMI_SetRight                    (abs)         00000
__size_of_HMI_SetSegments                 (abs)         00000
__size_of_HMI_SetUp                       (abs)         00000
__size_of_ISR_Enable                      (abs)         00000
__size_of_ISR_Function                    (abs)         00000
__size_of_LCD_DrawField                   (abs)         00000
__size_of_LCD_Fill                        (abs)         00000
__size_of_LCD_FillRectangle               (abs)         00000
__size_of_LCD_Init                        (abs)         00000
__size_of_LCD_Reset                       (abs)         00000
__size_of_LCD_Word_Write                  (abs)         00000
__size_of_LCD_Write                       (abs)         00000
__size_of_LED_Init                        (abs)         00000
__size_of_LED_Set                         (abs)         00000
__size_of_LED_Toggle                      (abs)         00000
__size_of_MXK_BlockSwitchTo               (abs)         00000
__size_of_MXK_Init                        (abs)         00000
__size_of_MXK_Release                     (abs)         00000
__size_of_Motor_Continious                (abs)         00000
__size_of_Motor_Init                      (abs)         00000
__size_of_Motor_Move                      (abs)         00000
__size_of_Motor_Speed                     (abs)         00000
__size_of_Motor_Step                      (abs)         00000
__size_of_OutSeg                          (abs)         00000
__size_of_PortProperty_Valid              (abs)         00000
__size_of_Port_CheckPairType              (abs)         00000
__size_of_Port_CheckPortType              (abs)         00000
__size_of_Port_CheckQuadType              (abs)         00000
__size_of_Port_GetPin                     (abs)         00000
__size_of_Port_GetQuad                    (abs)         00000
__size_of_Port_Init                       (abs)         00000
__size_of_Port_Set                        (abs)         00000
__size_of_Port_SetPin                     (abs)         00000
__size_of_Port_SetPinType                 (abs)         00000
__size_of_Port_SetQuadType                (abs)         00000
__size_of_Port_SetType                    (abs)         00000
__size_of_Port_TogglePin                  (abs)         00000
__size_of_Reset_High                      (abs)         00000
__size_of_Reset_Low                       (abs)         00000
__size_of_SPI_DCS                         (abs)         00000
__size_of_SPI_DisableISR                  (abs)         00000
__size_of_SPI_Init                        (abs)         00000
__size_of_SPI_MaxSpeed                    (abs)         00000
__size_of_SPI_MinSpeed                    (abs)         00000
__size_of_SPI_Send                        (abs)         00000
__size_of_SPI_Send9                       (abs)         00000
__size_of_Set_Addr_Window                 (abs)         00000
__size_of_Set_Rotation                    (abs)         00000
__size_of_Timer0_Clear                    (abs)         00000
__size_of_Timer0_ISR                      (abs)         00000
__size_of_Timer0_Init                     (abs)         00000
__size_of_Timer0_Restart                  (abs)         00000
__size_of_Timer0_Start                    (abs)         00000
__size_of_Timer0_Stop                     (abs)         00000
__size_of_Timer2_Clear                    (abs)         00000
__size_of_Timer2_Init                     (abs)         00000
__size_of_ToSegment                       (abs)         00000
__size_of_USBCheckCDCRequest              (abs)         00000
__size_of_USBCheckStdRequest              (abs)         00000
__size_of_USBConfigureEndpoint            (abs)         00000
__size_of_USBCtrlEPAllowDataStage         (abs)         00000
__size_of_USBCtrlEPAllowStatusStage       (abs)         00000
__size_of_USBCtrlEPService                (abs)         00000
__size_of_USBCtrlEPServiceComplete        (abs)         00000
__size_of_USBCtrlTrfInHandler             (abs)         00000
__size_of_USBCtrlTrfOutHandler            (abs)         00000
__size_of_USBCtrlTrfRxService             (abs)         00000
__size_of_USBCtrlTrfSetupHandler          (abs)         00000
__size_of_USBCtrlTrfTxService             (abs)         00000
__size_of_USBDeviceAttach                 (abs)         00000
__size_of_USBDeviceInit                   (abs)         00000
__size_of_USBDeviceTasks                  (abs)         00000
__size_of_USBEnableEndpoint               (abs)         00000
__size_of_USBIncrement1msInternalTimers   (abs)         00000
__size_of_USBStallHandler                 (abs)         00000
__size_of_USBStdFeatureReqHandler         (abs)         00000
__size_of_USBStdGetDscHandler             (abs)         00000
__size_of_USBStdGetStatusHandler          (abs)         00000
__size_of_USBStdSetCfgHandler             (abs)         00000
__size_of_USBSuspend                      (abs)         00000
__size_of_USBTransferOnePacket            (abs)         00000
__size_of_USBWakeFromSuspend              (abs)         00000
__size_of_USB_ISR                         (abs)         00000
__size_of_USB_Init                        (abs)         00000
__size_of_USB_Poll                        (abs)         00000
__size_of_USB_Print                       (abs)         00000
__size_of_USB_Tasks                       (abs)         00000
__size_of_USER_USB_CALLBACK_EVENT_HANDLER (abs)         00000
__size_of_Word_GetPair                    (abs)         00000
__size_of_Word_SetPair                    (abs)         00000
__size_of___awdiv                         (abs)         00000
__size_of___lldiv                         (abs)         00000
__size_of___lwdiv                         (abs)         00000
__size_of___lwmod                         (abs)         00000
__size_of___wmul                          (abs)         00000
__size_of_delay_ms                        (abs)         00000
__size_of_delay_us                        (abs)         00000
__size_of_getsUSBUSART                    (abs)         00000
__size_of_itos                            (abs)         00000
__size_of_main                            (abs)         00000
__size_of_memcpy                          (abs)         00000
__size_of_memset                          (abs)         00000
__size_of_printf                          (abs)         00000
__size_of_putUSBUSART                     (abs)         00000
__size_of_putch                           (abs)         00000
__size_of_reverse                         (abs)         00000
__size_of_strlen                          (abs)         00000
__size_ofi2_Byte_GetPair                  (abs)         00000
__size_ofi2_Byte_GetZone                  (abs)         00000
__size_ofi2_Byte_SetBit                   (abs)         00000
__size_ofi2_LED_Toggle                    (abs)         00000
__size_ofi2_Port_GetPin                   (abs)         00000
__size_ofi2_Port_SetPin                   (abs)         00000
__size_ofi2_Port_TogglePin                (abs)         00000
__size_ofi2_USBDeviceInit                 (abs)         00000
__size_ofi2_USBTransferOnePacket          (abs)         00000
__size_ofi2_Word_GetPair                  (abs)         00000
__size_ofi2_memset                        (abs)         00000
__smallconst                              smallconst    00000
_cdc_data_rx                              bssBANK2      00268
_cdc_data_tx                              bssBANK2      002A8
_cdc_mem_type                             bssBANK0      00099
_cdc_notice                               bssBANK2      0021E
_cdc_rx_len                               bssBANK0      0009A
_cdc_trf_state                            bssBANK0      0009B
_cdc_tx_len                               bssBANK0      0009C
_change                                   dataBANK0     000FC
_clearall                                 bssBANK0      0009D
_configDescriptor1                        mediumconst   0FEF2
_controlTransferState                     bssCOMRAM     0004D
_control_signal_bitmap                    bssCOMRAM     0004E
_delay_ms                                 text51        14328
_delay_us                                 text78        148DE
_device_dsc                               mediumconst   0FF9D
_dummy_encapsulated_cmd_response          bssBANK1      001C5
_endpoint_number                          bssCOMRAM     0004F
_ep_data_in                               bssBANK0      0007B
_ep_data_out                              bssBANK0      0007E
_gBackcolour                              bssBANK0      00089
_gCharSize                                dataBANK1     001EC
_gCursor                                  dataBANK0     000F4
_gForecolour                              dataBANK1     001F6
_gISR                                     bssBANK1      00124
_gLineSize                                dataBANK1     001F0
_gMotor                                   bssCOMRAM     0003C
_gTestBlock                               bssBANK3      00340
_gTetrisField                             bssBIGRAMh    00440
_getsUSBUSART                             text16        13140
_i                                        bssBANK0      0009E
_inPipes                                  bssBANK0      00069
_inlined$_Byte_GetZone                    (abs)         00001
_inlined$_Byte_SetZone                    (abs)         00001
_inlined$_Console_PrintChar               (abs)         00001
_inlined$_Reset_High                      (abs)         00001
_inlined$_Reset_Low                       (abs)         00001
_inlined$_USB_ISR                         (abs)         00001
_inlined$i2_Byte_GetZone                  (abs)         00001
_itos                                     text107       12CB2
_j                                        bssBANK0      0009F
_k                                        bssBANK0      000A0
_l                                        dataBANK0     000FD
_lBuffer                                  bssBIGRAMl    00C11
_lBufferX                                 bssBANK0      000A1
_lBufferY                                 bssBANK0      000A2
_lCBuffer                                 bssBANK2      00200
_line_coding                              bssBANK1      001CD
_main                                     text0         14B24
_memcpy                                   text138       1473E
_memset                                   text35        14B52
_outPipes                                 bssBANK0      00060
_pBDTEntryEP0OutCurrent                   bssCOMRAM     0003E
_pBDTEntryEP0OutNext                      bssCOMRAM     00040
_pBDTEntryIn                              bssBANK0      0006F
_pBDTEntryOut                             bssBANK0      00075
_pCDCDst                                  bssBANK1      00127
_pCDCSrc                                  bssBANK1      0012A
_pCMD                                     bssBANK1      00114
_pDst                                     bssBANK1      00131
_pShiftVal                                bssBANK0      0008B
_printf                                   text18        12442
_putUSBUSART                              text116       14F46
_putch                                    text19        1124A
_reverse                                  text108       14040
_sd000                                    mediumconst   0FFAF
_sd001                                    mediumconst   0FF35
_sd002                                    mediumconst   0FF69
_shortPacketStatus                        bssCOMRAM     00050
_strlen                                   text115       145F8
_u                                        bssBANK0      000A3
_val                                      bssBANK0      0008D
_w                                        dataBANK0     000FE
btemp                                     temp          0005F
delay_ms@ms                               cstackBANK0   000AE
delay_ms@u                                cstackBANK0   000B0
delay_us@u                                cstackBANK0   000B0
delay_us@us                               cstackBANK0   000AE
end_of_initialization                     cinit         12844
getsUSBUSART@buffer                       cstackBANK0   000B9
getsUSBUSART@len                          cstackBANK0   000BB
i2Byte_GetPair@pInput                     cstackCOMRAM  0000A
i2Byte_GetPair@pPair                      cstackCOMRAM  0000C
i2Byte_GetZone@MASK                       cstackCOMRAM  00007
i2Byte_GetZone@Offset                     cstackCOMRAM  00008
i2Byte_GetZone@Output                     cstackCOMRAM  00009
i2Byte_GetZone@pChunk                     cstackCOMRAM  00004
i2Byte_GetZone@pChunkSize                 cstackCOMRAM  00005
i2Byte_GetZone@pInput                     cstackCOMRAM  00001
i2Byte_GetZone@pMax                       cstackCOMRAM  00003
i2Byte_SetBit@pBit                        cstackCOMRAM  00003
i2Byte_SetBit@pInput                      cstackCOMRAM  00001
i2Byte_SetBit@pValue                      cstackCOMRAM  00004
i2LED_Toggle@pLED                         cstackCOMRAM  00019
i2Port_GetPin@Output                      cstackCOMRAM  00006
i2Port_GetPin@pInput                      cstackCOMRAM  00001
i2Port_GetPin@pPin                        cstackCOMRAM  00003
i2Port_SetPin@Type                        cstackCOMRAM  00014
i2Port_SetPin@pInput                      cstackCOMRAM  00010
i2Port_SetPin@pPin                        cstackCOMRAM  00012
i2Port_SetPin@pValue                      cstackCOMRAM  00013
i2Port_TogglePin@Value                    cstackCOMRAM  00018
i2Port_TogglePin@pInput                   cstackCOMRAM  00015
i2Port_TogglePin@pPin                     cstackCOMRAM  00017
i2USBDeviceInit@i                         cstackCOMRAM  00009
i2USBTransferOnePacket@data               cstackCOMRAM  00002
i2USBTransferOnePacket@dir                cstackCOMRAM  00001
i2USBTransferOnePacket@ep                 cstackCOMRAM  00009
i2USBTransferOnePacket@handle             cstackCOMRAM  0000A
i2USBTransferOnePacket@len                cstackCOMRAM  00004
i2Word_GetPair@pInput                     cstackCOMRAM  0000D
i2Word_GetPair@pPair                      cstackCOMRAM  0000F
i2_Byte_GetPair                           text166       132FE
i2_Byte_GetZone                           text167       00000
i2_Byte_SetBit                            text168       1449A
i2_LED_Toggle                             text149       14CE8
i2_Port_GetPin                            text151       149F2
i2_Port_SetPin                            text164       13E62
i2_Port_TogglePin                         text150       14D68
i2_USBDeviceInit                          text132       1205E
i2_USBTransferOnePacket                   text154       1226A
i2_Word_GetPair                           text165       14D92
i2_memset                                 text144       14D3E
i2memset@c                                cstackCOMRAM  00003
i2memset@n                                cstackCOMRAM  00005
i2memset@p                                cstackCOMRAM  00007
i2memset@p1                               cstackCOMRAM  00001
int$flags                                 temp          0005F
intlevel0                                 text          00000
intlevel1                                 text          00000
intlevel2                                 text          00000
intlevel3                                 text          00000
itos@Data                                 cstackBANK0   000B9
itos@Length                               cstackBANK0   000BB
itos@Out                                  cstackBANK0   000BD
itos@destination                          cstackBANK0   000B7
itos@input                                cstackBANK0   000B5
memcpy@d                                  cstackCOMRAM  00007
memcpy@d1                                 cstackCOMRAM  00001
memcpy@n                                  cstackCOMRAM  00005
memcpy@s                                  cstackCOMRAM  00009
memcpy@s1                                 cstackCOMRAM  00003
memset@c                                  cstackBANK0   000B0
memset@n                                  cstackBANK0   000B2
memset@p                                  cstackBANK0   000B4
memset@p1                                 cstackBANK0   000AE
printf@ap                                 cstackBANK0   000C8
printf@c                                  cstackBANK0   000CA
printf@cp                                 cstackBANK0   000CB
printf@f                                  cstackBANK0   000C3
printf@flag                               cstackBANK0   000C7
putUSBUSART@data                          cstackBANK0   000AE
putUSBUSART@length                        cstackBANK0   000B0
putch@c                                   cstackBANK0   000C2
reverse@input                             cstackBANK0   000AE
reverse@iterator                          cstackBANK0   000B3
reverse@length                            cstackBANK0   000B0
reverse@tempVar                           cstackBANK0   000B2
stackhi                                   (abs)         00F3F
stacklo                                   (abs)         00D3D
start                                     init          00094
start_initialization                      cinit         12788
strlen@cp                                 cstackBANK0   000B2
strlen@s                                  cstackBANK0   000AE


FUNCTION INFORMATION:

 *************** function _main *****************
 Defined at:
		line 18 in file "main.c"
 Parameters:    Size  Location     Type
		None
 Auto vars:     Size  Location     Type
		None
 Return value:  Size  Location     Type
                  1    wreg      void 
 Registers used:
		wreg, fsr0l, fsr0h, fsr1l, fsr1h, fsr2l, fsr2h, status,2, status,0, pclat, tosl, tblptrl, tblptrh, tblptru, prodl, prodh, cstack
 Tracked objects:
		On entry : 
		On exit  : 
		Unchanged: 
 Data sizes:     COMRAM   BANK0   BANK1   BANK2   BANK3   BANK4   BANK5   BANK6   BANK7   BANK8   BANK9  BANK10  BANK11  BANK12  BANK13  BANK14  BANK15
      Params:         0       0       0       0       0       0       0       0       0       0       0       0       0       0       0       0       0
      Locals:         0       0       0       0       0       0       0       0       0       0       0       0       0       0       0       0       0
      Temps:          0       0       0       0       0       0       0       0       0       0       0       0       0       0       0       0       0
      Totals:         0       0       0       0       0       0       0       0       0       0       0       0       0       0       0       0       0
Total ram usage:        0 bytes
 Hardware stack levels required when called:   24
 This function calls:
		_FunctButton
		_FunctHMI
		_FunctInitButton
		_FunctInitHMI
		_FunctInitLCD
		_FunctInitMotor
		_FunctInitUSB
		_FunctMotor
		_FunctUSB
		_ISR_Enable
		_MXK_Init
 This function is called by:
		Startup code after reset
 This function uses a non-reentrant model


 *************** function _MXK_Init *****************
 Defined at:
		line 12 in file "MXK.c"
 Parameters:    Size  Location     Type
		None
 Auto vars:     Size  Location     Type
		None
 Return value:  Size  Location     Type
                  1    wreg      void 
 Registers used:
		wreg, fsr0l, fsr0h, fsr2l, fsr2h, status,2, status,0, tblptrl, tblptrh, tblptru, prodl, prodh, cstack
 Tracked objects:
		On entry : 
		On exit  : 
		Unchanged: 
 Data sizes:     COMRAM   BANK0   BANK1   BANK2   BANK3   BANK4   BANK5   BANK6   BANK7   BANK8   BANK9  BANK10  BANK11  BANK12  BANK13  BANK14  BANK15
      Params:         0       0       0       0       0       0       0       0       0       0       0       0       0       0       0       0       0
      Locals:         0       0       0       0       0       0       0       0       0       0       0       0       0       0       0       0       0
      Temps:          0       0       0       0       0       0       0       0       0       0       0       0       0       0       0       0       0
      Totals:         0       0       0       0       0       0       0       0       0       0       0       0       0       0       0       0       0
Total ram usage:        0 bytes
 Hardware stack levels used:    1
 Hardware stack levels required when called:   23
 This function calls:
		_LED_Init
		_Port_Init
		_Port_SetPin
		_Port_SetPinType
		_Port_SetQuadType
		_Port_SetType
		_delay_ms
 This function is called by:
		_main
 This function uses a non-reentrant model


 *************** function _Port_Init *****************
 Defined at:
		line 150 in file "Library/Port.c"
 Parameters:    Size  Location     Type
  pInput          2   64[BANK0 ] const PTR struct Port
		 -> PortG(10), PortA(10), PortC(10), PortF(10), 
		 -> PortE(10), PortD(10), PortB(10), 
  pPort           1   66[BANK0 ] enum E7724
 Auto vars:     Size  Location     Type
  i               1   69[BANK0 ] unsigned char 
 Return value:  Size  Location     Type
                  1    wreg      void 
 Registers used:
		wreg, fsr0l, fsr0h, fsr2l, fsr2h, status,2, status,0, tblptrl, tblptrh, tblptru, prodl, prodh, cstack
 Tracked objects:
		On entry : 
		On exit  : 
		Unchanged: 
 Data sizes:     COMRAM   BANK0   BANK1   BANK2   BANK3   BANK4   BANK5   BANK6   BANK7   BANK8   BANK9  BANK10  BANK11  BANK12  BANK13  BANK14  BANK15
      Params:         0       3       0       0       0       0       0       0       0       0       0       0       0       0       0       0       0
      Locals:         0       1       0       0       0       0       0       0       0       0       0       0       0       0       0       0       0
      Temps:          0       2       0       0       0       0       0       0       0       0       0       0       0       0       0       0       0
      Totals:         0       6       0       0       0       0       0       0       0       0       0       0       0       0       0       0       0
Total ram usage:        6 bytes
 Hardware stack levels used:    1
 Hardware stack levels required when called:   22
 This function calls:
		_GetPortPORT
		_GetPortProperties
		_GetPortTRIS
		_Port_Set
		_Port_SetPinType
		_Port_SetType
		_Word_GetPair
 This function is called by:
		_MXK_Init
 This function uses a non-reentrant model


 *************** function _Port_SetType *****************
 Defined at:
		line 513 in file "Library/Port.c"
 Parameters:    Size  Location     Type
  pInput          2   58[BANK0 ] const PTR struct Port
		 -> PortG(10), PortA(10), PortC(10), PortF(10), 
		 -> PortE(10), PortD(10), PortB(10), 
  pType           1   60[BANK0 ] enum E7733
 Auto vars:     Size  Location     Type
  Output          1   63[BANK0 ] enum E7416
 Return value:  Size  Location     Type
                  1    wreg      enum E7416
 Registers used:
		wreg, fsr0l, fsr0h, fsr2l, fsr2h, status,2, status,0, tblptrl, tblptrh, tblptru, prodl, prodh, cstack
 Tracked objects:
		On entry : 
		On exit  : 
		Unchanged: 
 Data sizes:     COMRAM   BANK0   BANK1   BANK2   BANK3   BANK4   BANK5   BANK6   BANK7   BANK8   BANK9  BANK10  BANK11  BANK12  BANK13  BANK14  BANK15
      Params:         0       3       0       0       0       0       0       0       0       0       0       0       0       0       0       0       0
      Locals:         0       1       0       0       0       0       0       0       0       0       0       0       0       0       0       0       0
      Temps:          0       2       0       0       0       0       0       0       0       0       0       0       0       0       0       0       0
      Totals:         0       6       0       0       0       0       0       0       0       0       0       0       0       0       0       0       0
Total ram usage:        6 bytes
 Hardware stack levels used:    1
 Hardware stack levels required when called:   21
 This function calls:
		_Port_CheckPortType
		_Word_SetPair
 This function is called by:
		_Port_Init
		_MXK_Init
 This function uses a non-reentrant model


 *************** function _Port_CheckPortType *****************
 Defined at:
		line 138 in file "Library/Port.c"
 Parameters:    Size  Location     Type
  pInput          2   54[BANK0 ] const PTR struct Port
		 -> PortG(10), PortA(10), PortC(10), PortF(10), 
		 -> PortE(10), PortD(10), PortB(10), 
  pDrive          1   56[BANK0 ] enum E7410
 Auto vars:     Size  Location     Type
  Output          1   57[BANK0 ] enum E7416
 Return value:  Size  Location     Type
                  1    wreg      enum E7416
 Registers used:
		wreg, fsr0l, fsr0h, fsr2l, fsr2h, status,2, status,0, tblptrl, tblptrh, tblptru, prodl, prodh, cstack
 Tracked objects:
		On entry : 
		On exit  : 
		Unchanged: 
 Data sizes:     COMRAM   BANK0   BANK1   BANK2   BANK3   BANK4   BANK5   BANK6   BANK7   BANK8   BANK9  BANK10  BANK11  BANK12  BANK13  BANK14  BANK15
      Params:         0       3       0       0       0       0       0       0       0       0       0       0       0       0       0       0       0
      Locals:         0       1       0       0       0       0       0       0       0       0       0       0       0       0       0       0       0
      Temps:          0       0       0       0       0       0       0       0       0       0       0       0       0       0       0       0       0
      Totals:         0       4       0       0       0       0       0       0       0       0       0       0       0       0       0       0       0
Total ram usage:        4 bytes
 Hardware stack levels used:    1
 Hardware stack levels required when called:   20
 This function calls:
		_Port_CheckQuadType
 This function is called by:
		_Port_SetType
 This function uses a non-reentrant model


 *************** function _Port_Set *****************
 Defined at:
		line 570 in file "Library/Port.c"
 Parameters:    Size  Location     Type
  pInput          2   15[BANK0 ] const PTR struct Port
		 -> PortG(10), PortA(10), PortC(10), PortF(10), 
		 -> PortE(10), PortD(10), PortB(10), 
  pValue          1   17[BANK0 ] unsigned char 
 Auto vars:     Size  Location     Type
  TypeActual      2   36[BANK0 ] unsigned short 
  TypeRequired    2   34[BANK0 ] unsigned short 
  Type            1   38[BANK0 ] enum E7733
 Return value:  Size  Location     Type
                  1    wreg      void 
 Registers used:
		wreg, fsr0l, fsr0h, fsr2l, fsr2h, status,2, status,0, tblptrl, tblptrh, tblptru, prodl, prodh, cstack
 Tracked objects:
		On entry : 
		On exit  : 
		Unchanged: 
 Data sizes:     COMRAM   BANK0   BANK1   BANK2   BANK3   BANK4   BANK5   BANK6   BANK7   BANK8   BANK9  BANK10  BANK11  BANK12  BANK13  BANK14  BANK15
      Params:         0       3       0       0       0       0       0       0       0       0       0       0       0       0       0       0       0
      Locals:         0       5       0       0       0       0       0       0       0       0       0       0       0       0       0       0       0
      Temps:          0      16       0       0       0       0       0       0       0       0       0       0       0       0       0       0       0
      Totals:         0      24       0       0       0       0       0       0       0       0       0       0       0       0       0       0       0
Total ram usage:       24 bytes
 Hardware stack levels used:    1
 Hardware stack levels required when called:   17
 This function calls:
		_Byte_SetPort
		_Word_GetPair
 This function is called by:
		_Port_Init
		_Port_Toggle
 This function uses a non-reentrant model


 *************** function _Byte_SetPort *****************
 Defined at:
		line 110 in file "Library/Types.c"
 Parameters:    Size  Location     Type
  pInput          2    0[BANK0 ] PTR struct Byte
		 -> SSP2CON2(1), SSP1CON2(1), TRISG(1), TRISF(1), 
		 -> TRISE(1), TRISD(1), TRISC(1), TRISB(1), 
		 -> TRISA(1), PORTG(1), PORTF(1), PORTE(1), 
		 -> PORTD(1), PORTC(1), PORTB(1), PORTA(1), 
		 -> NULL(0), 
  pValue          1    2[BANK0 ] unsigned char 
 Auto vars:     Size  Location     Type
		None
 Return value:  Size  Location     Type
                  1    wreg      void 
 Registers used:
		fsr2l, fsr2h
 Tracked objects:
		On entry : 
		On exit  : 
		Unchanged: 
 Data sizes:     COMRAM   BANK0   BANK1   BANK2   BANK3   BANK4   BANK5   BANK6   BANK7   BANK8   BANK9  BANK10  BANK11  BANK12  BANK13  BANK14  BANK15
      Params:         0       3       0       0       0       0       0       0       0       0       0       0       0       0       0       0       0
      Locals:         0       0       0       0       0       0       0       0       0       0       0       0       0       0       0       0       0
      Temps:          0       0       0       0       0       0       0       0       0       0       0       0       0       0       0       0       0
      Totals:         0       3       0       0       0       0       0       0       0       0       0       0       0       0       0       0       0
Total ram usage:        3 bytes
 Hardware stack levels used:    1
 Hardware stack levels required when called:   14
 This function calls:
		Nothing
 This function is called by:
		_Port_Set
		_I2C_Init
 This function uses a non-reentrant model


 *************** function _GetPortTRIS *****************
 Defined at:
		line 67 in file "Library/Port.c"
 Parameters:    Size  Location     Type
  pInput          1    wreg     enum E7724
 Auto vars:     Size  Location     Type
  pInput          1    2[BANK0 ] enum E7724
 Return value:  Size  Location     Type
                  2    0[BANK0 ] PTR struct Byte
 Registers used:
		wreg, status,2, status,0
 Tracked objects:
		On entry : 
		On exit  : 
		Unchanged: 
 Data sizes:     COMRAM   BANK0   BANK1   BANK2   BANK3   BANK4   BANK5   BANK6   BANK7   BANK8   BANK9  BANK10  BANK11  BANK12  BANK13  BANK14  BANK15
      Params:         0       2       0       0       0       0       0       0       0       0       0       0       0       0       0       0       0
      Locals:         0       1       0       0       0       0       0       0       0       0       0       0       0       0       0       0       0
      Temps:          0       0       0       0       0       0       0       0       0       0       0       0       0       0       0       0       0
      Totals:         0       3       0       0       0       0       0       0       0       0       0       0       0       0       0       0       0
Total ram usage:        3 bytes
 Hardware stack levels used:    1
 Hardware stack levels required when called:   14
 This function calls:
		Nothing
 This function is called by:
		_Port_Init
 This function uses a non-reentrant model


 *************** function _GetPortProperties *****************
 Defined at:
		line 21 in file "Library/Port.c"
 Parameters:    Size  Location     Type
  pInput          1    wreg     enum E7724
 Auto vars:     Size  Location     Type
  pInput          1    2[BANK0 ] enum E7724
 Return value:  Size  Location     Type
                  2    0[BANK0 ] PTR struct PortProperty
 Registers used:
		wreg, status,2, status,0
 Tracked objects:
		On entry : 
		On exit  : 
		Unchanged: 
 Data sizes:     COMRAM   BANK0   BANK1   BANK2   BANK3   BANK4   BANK5   BANK6   BANK7   BANK8   BANK9  BANK10  BANK11  BANK12  BANK13  BANK14  BANK15
      Params:         0       2       0       0       0       0       0       0       0       0       0       0       0       0       0       0       0
      Locals:         0       1       0       0       0       0       0       0       0       0       0       0       0       0       0       0       0
      Temps:          0       0       0       0       0       0       0       0       0       0       0       0       0       0       0       0       0
      Totals:         0       3       0       0       0       0       0       0       0       0       0       0       0       0       0       0       0
Total ram usage:        3 bytes
 Hardware stack levels used:    1
 Hardware stack levels required when called:   14
 This function calls:
		Nothing
 This function is called by:
		_Port_Init
 This function uses a non-reentrant model


 *************** function _GetPortPORT *****************
 Defined at:
		line 44 in file "Library/Port.c"
 Parameters:    Size  Location     Type
  pInput          1    wreg     enum E7724
 Auto vars:     Size  Location     Type
  pInput          1    2[BANK0 ] enum E7724
 Return value:  Size  Location     Type
                  2    0[BANK0 ] PTR struct Byte
 Registers used:
		wreg, status,2, status,0
 Tracked objects:
		On entry : 
		On exit  : 
		Unchanged: 
 Data sizes:     COMRAM   BANK0   BANK1   BANK2   BANK3   BANK4   BANK5   BANK6   BANK7   BANK8   BANK9  BANK10  BANK11  BANK12  BANK13  BANK14  BANK15
      Params:         0       2       0       0       0       0       0       0       0       0       0       0       0       0       0       0       0
      Locals:         0       1       0       0       0       0       0       0       0       0       0       0       0       0       0       0       0
      Temps:          0       0       0       0       0       0       0       0       0       0       0       0       0       0       0       0       0
      Totals:         0       3       0       0       0       0       0       0       0       0       0       0       0       0       0       0       0
Total ram usage:        3 bytes
 Hardware stack levels used:    1
 Hardware stack levels required when called:   14
 This function calls:
		Nothing
 This function is called by:
		_Port_Init
 This function uses a non-reentrant model


 *************** function _LED_Init *****************
 Defined at:
		line 15 in file "Library/LED.c"
 Parameters:    Size  Location     Type
  pLED            1    wreg     enum E7677
 Auto vars:     Size  Location     Type
  pLED            1   45[BANK0 ] enum E7677
 Return value:  Size  Location     Type
                  1    wreg      void 
 Registers used:
		wreg, fsr0l, fsr0h, fsr2l, fsr2h, status,2, status,0, tblptrl, tblptrh, tblptru, prodl, prodh, cstack
 Tracked objects:
		On entry : 
		On exit  : 
		Unchanged: 
 Data sizes:     COMRAM   BANK0   BANK1   BANK2   BANK3   BANK4   BANK5   BANK6   BANK7   BANK8   BANK9  BANK10  BANK11  BANK12  BANK13  BANK14  BANK15
      Params:         0       0       0       0       0       0       0       0       0       0       0       0       0       0       0       0       0
      Locals:         0       1       0       0       0       0       0       0       0       0       0       0       0       0       0       0       0
      Temps:          0       0       0       0       0       0       0       0       0       0       0       0       0       0       0       0       0
      Totals:         0       1       0       0       0       0       0       0       0       0       0       0       0       0       0       0       0
Total ram usage:        1 bytes
 Hardware stack levels used:    1
 Hardware stack levels required when called:   19
 This function calls:
		_LED_Set
		_Port_SetPinType
 This function is called by:
		_MXK_Init
 This function uses a non-reentrant model


 *************** function _LED_Set *****************
 Defined at:
		line 33 in file "Library/LED.c"
 Parameters:    Size  Location     Type
  pLED            1    wreg     enum E7677
  pValue          1   20[BANK0 ] unsigned char 
 Auto vars:     Size  Location     Type
  pLED            1   21[BANK0 ] enum E7677
 Return value:  Size  Location     Type
                  1    wreg      void 
 Registers used:
		wreg, fsr0l, fsr0h, fsr2l, fsr2h, status,2, status,0, tblptrl, tblptrh, tblptru, prodl, prodh, cstack
 Tracked objects:
		On entry : 
		On exit  : 
		Unchanged: 
 Data sizes:     COMRAM   BANK0   BANK1   BANK2   BANK3   BANK4   BANK5   BANK6   BANK7   BANK8   BANK9  BANK10  BANK11  BANK12  BANK13  BANK14  BANK15
      Params:         0       1       0       0       0       0       0       0       0       0       0       0       0       0       0       0       0
      Locals:         0       1       0       0       0       0       0       0       0       0       0       0       0       0       0       0       0
      Temps:          0       0       0       0       0       0       0       0       0       0       0       0       0       0       0       0       0
      Totals:         0       2       0       0       0       0       0       0       0       0       0       0       0       0       0       0       0
Total ram usage:        2 bytes
 Hardware stack levels used:    1
 Hardware stack levels required when called:   18
 This function calls:
		_Port_SetPin
 This function is called by:
		_LED_Init
 This function uses a non-reentrant model


 *************** function _ISR_Enable *****************
 Defined at:
		line 29 in file "ISR.c"
 Parameters:    Size  Location     Type
		None
 Auto vars:     Size  Location     Type
		None
 Return value:  Size  Location     Type
                  1    wreg      void 
 Registers used:
		None
 Tracked objects:
		On entry : 
		On exit  : 
		Unchanged: 
 Data sizes:     COMRAM   BANK0   BANK1   BANK2   BANK3   BANK4   BANK5   BANK6   BANK7   BANK8   BANK9  BANK10  BANK11  BANK12  BANK13  BANK14  BANK15
      Params:         0       0       0       0       0       0       0       0       0       0       0       0       0       0       0       0       0
      Locals:         0       0       0       0       0       0       0       0       0       0       0       0       0       0       0       0       0
      Temps:          0       0       0       0       0       0       0       0       0       0       0       0       0       0       0       0       0
      Totals:         0       0       0       0       0       0       0       0       0       0       0       0       0       0       0       0       0
Total ram usage:        0 bytes
 Hardware stack levels used:    1
 Hardware stack levels required when called:   14
 This function calls:
		Nothing
 This function is called by:
		_main
		_IMU_Init
 This function uses a non-reentrant model


 *************** function _FunctUSB *****************
 Defined at:
		line 167 in file "Functions.c"
 Parameters:    Size  Location     Type
		None
 Auto vars:     Size  Location     Type
		None
 Return value:  Size  Location     Type
                  1    wreg      void 
 Registers used:
		wreg, fsr0l, fsr0h, fsr1l, fsr1h, fsr2l, fsr2h, status,2, status,0, tblptrl, tblptrh, tblptru, prodl, prodh, cstack
 Tracked objects:
		On entry : 
		On exit  : 
		Unchanged: 
 Data sizes:     COMRAM   BANK0   BANK1   BANK2   BANK3   BANK4   BANK5   BANK6   BANK7   BANK8   BANK9  BANK10  BANK11  BANK12  BANK13  BANK14  BANK15
      Params:         0       0       0       0       0       0       0       0       0       0       0       0       0       0       0       0       0
      Locals:         0       0       0       0       0       0       0       0       0       0       0       0       0       0       0       0       0
      Temps:          0       0       0       0       0       0       0       0       0       0       0       0       0       0       0       0       0
      Totals:         0       0       0       0       0       0       0       0       0       0       0       0       0       0       0       0       0
Total ram usage:        0 bytes
 Hardware stack levels used:    1
 Hardware stack levels required when called:   23
 This function calls:
		_USB_Poll
 This function is called by:
		_main
 This function uses a non-reentrant model


 *************** function _USB_Poll *****************
 Defined at:
		line 26 in file "USB_Wrap.c"
 Parameters:    Size  Location     Type
		None
 Auto vars:     Size  Location     Type
		None
 Return value:  Size  Location     Type
                  1    wreg      void 
 Registers used:
		wreg, fsr0l, fsr0h, fsr1l, fsr1h, fsr2l, fsr2h, status,2, status,0, tblptrl, tblptrh, tblptru, prodl, prodh, cstack
 Tracked objects:
		On entry : 
		On exit  : 
		Unchanged: 
 Data sizes:     COMRAM   BANK0   BANK1   BANK2   BANK3   BANK4   BANK5   BANK6   BANK7   BANK8   BANK9  BANK10  BANK11  BANK12  BANK13  BANK14  BANK15
      Params:         0       0       0       0       0       0       0       0       0       0       0       0       0       0       0       0       0
      Locals:         0       0       0       0       0       0       0       0       0       0       0       0       0       0       0       0       0
      Temps:          0       0       0       0       0       0       0       0       0       0       0       0       0       0       0       0       0
      Totals:         0       0       0       0       0       0       0       0       0       0       0       0       0       0       0       0       0
Total ram usage:        0 bytes
 Hardware stack levels used:    1
 Hardware stack levels required when called:   22
 This function calls:
		_USB_Tasks
 This function is called by:
		_FunctUSB
 This function uses a non-reentrant model


 *************** function _USB_Tasks *****************
 Defined at:
		line 61 in file "USB_Wrap.c"
 Parameters:    Size  Location     Type
		None
 Auto vars:     Size  Location     Type
  Recieved        1   32[BANK0 ] unsigned char 
 Return value:  Size  Location     Type
                  1    wreg      void 
 Registers used:
		wreg, fsr0l, fsr0h, fsr1l, fsr1h, fsr2l, fsr2h, status,2, status,0, tblptrl, tblptrh, tblptru, prodl, prodh, cstack
 Tracked objects:
		On entry : 
		On exit  : 
		Unchanged: 
 Data sizes:     COMRAM   BANK0   BANK1   BANK2   BANK3   BANK4   BANK5   BANK6   BANK7   BANK8   BANK9  BANK10  BANK11  BANK12  BANK13  BANK14  BANK15
      Params:         0       0       0       0       0       0       0       0       0       0       0       0       0       0       0       0       0
      Locals:         0       1       0       0       0       0       0       0       0       0       0       0       0       0       0       0       0
      Temps:          0       0       0       0       0       0       0       0       0       0       0       0       0       0       0       0       0
      Totals:         0       1       0       0       0       0       0       0       0       0       0       0       0       0       0       0       0
Total ram usage:        1 bytes
 Hardware stack levels used:    1
 Hardware stack levels required when called:   21
 This function calls:
		_CDCTxService
		_Event_USBRecieve
		_getsUSBUSART
		_putUSBUSART
 This function is called by:
		_USB_Poll
 This function uses a non-reentrant model


 *************** function _getsUSBUSART *****************
 Defined at:
		line 486 in file "Library/USB/src/usb_device_cdc.c"
 Parameters:    Size  Location     Type
  buffer          2   11[BANK0 ] PTR unsigned char 
		 -> USBInputBuffer(64), 
  len             1   13[BANK0 ] unsigned char 
 Auto vars:     Size  Location     Type
		None
 Return value:  Size  Location     Type
                  1    wreg      unsigned char 
 Registers used:
		wreg, fsr1l, fsr1h, fsr2l, fsr2h, status,2, status,0, prodl, prodh, cstack
 Tracked objects:
		On entry : 
		On exit  : 
		Unchanged: 
 Data sizes:     COMRAM   BANK0   BANK1   BANK2   BANK3   BANK4   BANK5   BANK6   BANK7   BANK8   BANK9  BANK10  BANK11  BANK12  BANK13  BANK14  BANK15
      Params:         0       3       0       0       0       0       0       0       0       0       0       0       0       0       0       0       0
      Locals:         0       0       0       0       0       0       0       0       0       0       0       0       0       0       0       0       0
      Temps:          0       1       0       0       0       0       0       0       0       0       0       0       0       0       0       0       0
      Totals:         0       4       0       0       0       0       0       0       0       0       0       0       0       0       0       0       0
Total ram usage:        4 bytes
 Hardware stack levels used:    1
 Hardware stack levels required when called:   15
 This function calls:
		_USBTransferOnePacket
 This function is called by:
		_USB_Tasks
 This function uses a non-reentrant model


 *************** function _Event_USBRecieve *****************
 Defined at:
		line 9 in file "Events.c"
 Parameters:    Size  Location     Type
  pLength         1    wreg     unsigned char 
 Auto vars:     Size  Location     Type
  pLength         1   31[BANK0 ] unsigned char 
 Return value:  Size  Location     Type
                  1    wreg      void 
 Registers used:
		wreg, fsr0l, fsr0h, fsr2l, fsr2h, status,2, status,0, tblptrl, tblptrh, tblptru, prodl, prodh, cstack
 Tracked objects:
		On entry : 
		On exit  : 
		Unchanged: 
 Data sizes:     COMRAM   BANK0   BANK1   BANK2   BANK3   BANK4   BANK5   BANK6   BANK7   BANK8   BANK9  BANK10  BANK11  BANK12  BANK13  BANK14  BANK15
      Params:         0       0       0       0       0       0       0       0       0       0       0       0       0       0       0       0       0
      Locals:         0       1       0       0       0       0       0       0       0       0       0       0       0       0       0       0       0
      Temps:          0       0       0       0       0       0       0       0       0       0       0       0       0       0       0       0       0
      Totals:         0       1       0       0       0       0       0       0       0       0       0       0       0       0       0       0       0
Total ram usage:        1 bytes
 Hardware stack levels used:    1
 Hardware stack levels required when called:   20
 This function calls:
		_printf
 This function is called by:
		_USB_Tasks
 This function uses a non-reentrant model


 *************** function _printf *****************
 Defined at:
		line 464 in file "C:\Program Files (x86)\Microchip\xc8\v1.38\sources\common\doprnt.c"
 Parameters:    Size  Location     Type
  f               2   21[BANK0 ] PTR const unsigned char 
		 -> STR_1(3), 
 Auto vars:     Size  Location     Type
  tmpval          4    0        struct .
  cp              2   29[BANK0 ] PTR const unsigned char 
		 -> STR_10(7), USBInputBuffer(64), 
  ap              2   26[BANK0 ] PTR void [1]
		 -> ?_printf(2), 
  len             2    0        unsigned int 
  val             2    0        unsigned int 
  c               1   28[BANK0 ] char 
  flag            1   25[BANK0 ] unsigned char 
  prec            1    0        char 
 Return value:  Size  Location     Type
                  2   21[BANK0 ] int 
 Registers used:
		wreg, fsr0l, fsr0h, fsr2l, fsr2h, status,2, status,0, tblptrl, tblptrh, tblptru, prodl, prodh, cstack
 Tracked objects:
		On entry : 
		On exit  : 
		Unchanged: 
 Data sizes:     COMRAM   BANK0   BANK1   BANK2   BANK3   BANK4   BANK5   BANK6   BANK7   BANK8   BANK9  BANK10  BANK11  BANK12  BANK13  BANK14  BANK15
      Params:         0       4       0       0       0       0       0       0       0       0       0       0       0       0       0       0       0
      Locals:         0       6       0       0       0       0       0       0       0       0       0       0       0       0       0       0       0
      Temps:          0       0       0       0       0       0       0       0       0       0       0       0       0       0       0       0       0
      Totals:         0      10       0       0       0       0       0       0       0       0       0       0       0       0       0       0       0
Total ram usage:       10 bytes
 Hardware stack levels used:    1
 Hardware stack levels required when called:   19
 This function calls:
		_putch
 This function is called by:
		_Event_USBRecieve
 This function uses a non-reentrant model


 *************** function _putch *****************
 Defined at:
		line 440 in file "Library/Console.c"
 Parameters:    Size  Location     Type
  c               1    wreg     unsigned char 
 Auto vars:     Size  Location     Type
  c               1   20[BANK0 ] unsigned char 
 Return value:  Size  Location     Type
                  1    wreg      void 
 Registers used:
		wreg, fsr2l, fsr2h, status,2, status,0, prodl, prodh, cstack
 Tracked objects:
		On entry : 
		On exit  : 
		Unchanged: 
 Data sizes:     COMRAM   BANK0   BANK1   BANK2   BANK3   BANK4   BANK5   BANK6   BANK7   BANK8   BANK9  BANK10  BANK11  BANK12  BANK13  BANK14  BANK15
      Params:         0       0       0       0       0       0       0       0       0       0       0       0       0       0       0       0       0
      Locals:         0       1       0       0       0       0       0       0       0       0       0       0       0       0       0       0       0
      Temps:          0       0       0       0       0       0       0       0       0       0       0       0       0       0       0       0       0
      Totals:         0       1       0       0       0       0       0       0       0       0       0       0       0       0       0       0       0
Total ram usage:        1 bytes
 Hardware stack levels used:    1
 Hardware stack levels required when called:   18
 This function calls:
		_Console_PrintChar
 This function is called by:
		_printf
 This function uses a non-reentrant model


 *************** function _Console_PrintChar *****************
 Defined at:
		line 310 in file "Library/Console.c"
 Parameters:    Size  Location     Type
  pInput          1    wreg     unsigned char 
 Auto vars:     Size  Location     Type
  pInput          1   19[BANK0 ] unsigned char 
 Return value:  Size  Location     Type
                  1    wreg      void 
 Registers used:
		wreg, fsr2l, fsr2h, status,2, status,0, prodl, prodh, cstack
 Tracked objects:
		On entry : 
		On exit  : 
		Unchanged: 
 Data sizes:     COMRAM   BANK0   BANK1   BANK2   BANK3   BANK4   BANK5   BANK6   BANK7   BANK8   BANK9  BANK10  BANK11  BANK12  BANK13  BANK14  BANK15
      Params:         0       0       0       0       0       0       0       0       0       0       0       0       0       0       0       0       0
      Locals:         0       1       0       0       0       0       0       0       0       0       0       0       0       0       0       0       0
      Temps:          0       3       0       0       0       0       0       0       0       0       0       0       0       0       0       0       0
      Totals:         0       4       0       0       0       0       0       0       0       0       0       0       0       0       0       0       0
Total ram usage:        4 bytes
 Hardware stack levels used:    1
 Hardware stack levels required when called:   17
 This function calls:
		_Console_Backspace
		_Console_FormFeed
		_Console_IncrementCursor
		_Console_NewLine
		_Console_Tab
 This function is called by:
		_putch
		_Console_PrintString
 This function uses a non-reentrant model


 *************** function _Console_Tab *****************
 Defined at:
		line 258 in file "Library/Console.c"
 Parameters:    Size  Location     Type
		None
 Auto vars:     Size  Location     Type
  c               1   15[BANK0 ] unsigned char 
  i               1   14[BANK0 ] unsigned char 
  t               1   13[BANK0 ] unsigned char 
 Return value:  Size  Location     Type
                  1    wreg      void 
 Registers used:
		wreg, fsr2l, fsr2h, status,2, status,0, prodl, prodh, cstack
 Tracked objects:
		On entry : 
		On exit  : 
		Unchanged: 
 Data sizes:     COMRAM   BANK0   BANK1   BANK2   BANK3   BANK4   BANK5   BANK6   BANK7   BANK8   BANK9  BANK10  BANK11  BANK12  BANK13  BANK14  BANK15
      Params:         0       0       0       0       0       0       0       0       0       0       0       0       0       0       0       0       0
      Locals:         0       3       0       0       0       0       0       0       0       0       0       0       0       0       0       0       0
      Temps:          0       5       0       0       0       0       0       0       0       0       0       0       0       0       0       0       0
      Totals:         0       8       0       0       0       0       0       0       0       0       0       0       0       0       0       0       0
Total ram usage:        8 bytes
 Hardware stack levels used:    1
 Hardware stack levels required when called:   16
 This function calls:
		_Console_ClearCursor
		_Console_IncrementCursor
		___awdiv
 This function is called by:
		_Console_PrintChar
 This function uses a non-reentrant model


 *************** function ___awdiv *****************
 Defined at:
		line 8 in file "C:\Program Files (x86)\Microchip\xc8\v1.38\sources\common\awdiv.c"
 Parameters:    Size  Location     Type
  dividend        2    0[BANK0 ] int 
  divisor         2    2[BANK0 ] int 
 Auto vars:     Size  Location     Type
  quotient        2    6[BANK0 ] int 
  sign            1    5[BANK0 ] unsigned char 
  counter         1    4[BANK0 ] unsigned char 
 Return value:  Size  Location     Type
                  2    0[BANK0 ] int 
 Registers used:
		wreg, status,2, status,0
 Tracked objects:
		On entry : 
		On exit  : 
		Unchanged: 
 Data sizes:     COMRAM   BANK0   BANK1   BANK2   BANK3   BANK4   BANK5   BANK6   BANK7   BANK8   BANK9  BANK10  BANK11  BANK12  BANK13  BANK14  BANK15
      Params:         0       4       0       0       0       0       0       0       0       0       0       0       0       0       0       0       0
      Locals:         0       4       0       0       0       0       0       0       0       0       0       0       0       0       0       0       0
      Temps:          0       0       0       0       0       0       0       0       0       0       0       0       0       0       0       0       0
      Totals:         0       8       0       0       0       0       0       0       0       0       0       0       0       0       0       0       0
Total ram usage:        8 bytes
 Hardware stack levels used:    1
 Hardware stack levels required when called:   14
 This function calls:
		Nothing
 This function is called by:
		_Console_Tab
 This function uses a non-reentrant model


 *************** function _Console_IncrementCursor *****************
 Defined at:
		line 241 in file "Library/Console.c"
 Parameters:    Size  Location     Type
		None
 Auto vars:     Size  Location     Type
		None
 Return value:  Size  Location     Type
                  1    wreg      unsigned char 
 Registers used:
		wreg, fsr2l, fsr2h, status,2, status,0, prodl, prodh, cstack
 Tracked objects:
		On entry : 
		On exit  : 
		Unchanged: 
 Data sizes:     COMRAM   BANK0   BANK1   BANK2   BANK3   BANK4   BANK5   BANK6   BANK7   BANK8   BANK9  BANK10  BANK11  BANK12  BANK13  BANK14  BANK15
      Params:         0       0       0       0       0       0       0       0       0       0       0       0       0       0       0       0       0
      Locals:         0       0       0       0       0       0       0       0       0       0       0       0       0       0       0       0       0
      Temps:          0       2       0       0       0       0       0       0       0       0       0       0       0       0       0       0       0
      Totals:         0       2       0       0       0       0       0       0       0       0       0       0       0       0       0       0       0
Total ram usage:        2 bytes
 Hardware stack levels used:    1
 Hardware stack levels required when called:   15
 This function calls:
		_Console_FormFeed
		_Console_NewLine
 This function is called by:
		_Console_Tab
		_Console_PrintChar
 This function uses a non-reentrant model


 *************** function _Console_NewLine *****************
 Defined at:
		line 173 in file "Library/Console.c"
 Parameters:    Size  Location     Type
		None
 Auto vars:     Size  Location     Type
		None
 Return value:  Size  Location     Type
                  1    wreg      void 
 Registers used:
		wreg, fsr2l, fsr2h, status,2, status,0, prodl, prodh
 Tracked objects:
		On entry : 
		On exit  : 
		Unchanged: 
 Data sizes:     COMRAM   BANK0   BANK1   BANK2   BANK3   BANK4   BANK5   BANK6   BANK7   BANK8   BANK9  BANK10  BANK11  BANK12  BANK13  BANK14  BANK15
      Params:         0       0       0       0       0       0       0       0       0       0       0       0       0       0       0       0       0
      Locals:         0       0       0       0       0       0       0       0       0       0       0       0       0       0       0       0       0
      Temps:          0       2       0       0       0       0       0       0       0       0       0       0       0       0       0       0       0
      Totals:         0       2       0       0       0       0       0       0       0       0       0       0       0       0       0       0       0
Total ram usage:        2 bytes
 Hardware stack levels used:    1
 Hardware stack levels required when called:   14
 This function calls:
		Nothing
 This function is called by:
		_Console_IncrementCursor
		_Console_PrintChar
 This function uses a non-reentrant model


 *************** function _Console_FormFeed *****************
 Defined at:
		line 190 in file "Library/Console.c"
 Parameters:    Size  Location     Type
		None
 Auto vars:     Size  Location     Type
  y               1    3[BANK0 ] unsigned char 
  x               1    2[BANK0 ] unsigned char 
 Return value:  Size  Location     Type
                  1    wreg      void 
 Registers used:
		wreg, fsr2l, fsr2h, status,2, status,0, prodl, prodh
 Tracked objects:
		On entry : 
		On exit  : 
		Unchanged: 
 Data sizes:     COMRAM   BANK0   BANK1   BANK2   BANK3   BANK4   BANK5   BANK6   BANK7   BANK8   BANK9  BANK10  BANK11  BANK12  BANK13  BANK14  BANK15
      Params:         0       0       0       0       0       0       0       0       0       0       0       0       0       0       0       0       0
      Locals:         0       2       0       0       0       0       0       0       0       0       0       0       0       0       0       0       0
      Temps:          0       2       0       0       0       0       0       0       0       0       0       0       0       0       0       0       0
      Totals:         0       4       0       0       0       0       0       0       0       0       0       0       0       0       0       0       0
Total ram usage:        4 bytes
 Hardware stack levels used:    1
 Hardware stack levels required when called:   14
 This function calls:
		Nothing
 This function is called by:
		_Console_IncrementCursor
		_Console_PrintChar
 This function uses a non-reentrant model


 *************** function _Console_Backspace *****************
 Defined at:
		line 207 in file "Library/Console.c"
 Parameters:    Size  Location     Type
		None
 Auto vars:     Size  Location     Type
		None
 Return value:  Size  Location     Type
                  1    wreg      void 
 Registers used:
		wreg, fsr2l, fsr2h, status,2, status,0, prodl, prodh, cstack
 Tracked objects:
		On entry : 
		On exit  : 
		Unchanged: 
 Data sizes:     COMRAM   BANK0   BANK1   BANK2   BANK3   BANK4   BANK5   BANK6   BANK7   BANK8   BANK9  BANK10  BANK11  BANK12  BANK13  BANK14  BANK15
      Params:         0       0       0       0       0       0       0       0       0       0       0       0       0       0       0       0       0
      Locals:         0       0       0       0       0       0       0       0       0       0       0       0       0       0       0       0       0
      Temps:          0       0       0       0       0       0       0       0       0       0       0       0       0       0       0       0       0
      Totals:         0       0       0       0       0       0       0       0       0       0       0       0       0       0       0       0       0
Total ram usage:        0 bytes
 Hardware stack levels used:    1
 Hardware stack levels required when called:   15
 This function calls:
		_Console_ClearCursor
 This function is called by:
		_Console_PrintChar
 This function uses a non-reentrant model


 *************** function _Console_ClearCursor *****************
 Defined at:
		line 296 in file "Library/Console.c"
 Parameters:    Size  Location     Type
		None
 Auto vars:     Size  Location     Type
		None
 Return value:  Size  Location     Type
                  1    wreg      void 
 Registers used:
		wreg, fsr2l, fsr2h, status,2, status,0, prodl, prodh
 Tracked objects:
		On entry : 
		On exit  : 
		Unchanged: 
 Data sizes:     COMRAM   BANK0   BANK1   BANK2   BANK3   BANK4   BANK5   BANK6   BANK7   BANK8   BANK9  BANK10  BANK11  BANK12  BANK13  BANK14  BANK15
      Params:         0       0       0       0       0       0       0       0       0       0       0       0       0       0       0       0       0
      Locals:         0       0       0       0       0       0       0       0       0       0       0       0       0       0       0       0       0
      Temps:          0       2       0       0       0       0       0       0       0       0       0       0       0       0       0       0       0
      Totals:         0       2       0       0       0       0       0       0       0       0       0       0       0       0       0       0       0
Total ram usage:        2 bytes
 Hardware stack levels used:    1
 Hardware stack levels required when called:   14
 This function calls:
		Nothing
 This function is called by:
		_Console_Backspace
		_Console_Tab
 This function uses a non-reentrant model


 *************** function _CDCTxService *****************
 Defined at:
		line 902 in file "Library/USB/src/usb_device_cdc.c"
 Parameters:    Size  Location     Type
		None
 Auto vars:     Size  Location     Type
  byte_to_send    1   12[BANK0 ] unsigned char 
  i               1   11[BANK0 ] unsigned char 
 Return value:  Size  Location     Type
                  1    wreg      void 
 Registers used:
		wreg, fsr0l, fsr0h, fsr2l, fsr2h, status,2, status,0, tblptrl, tblptrh, tblptru, prodl, prodh, cstack
 Tracked objects:
		On entry : 
		On exit  : 
		Unchanged: 
 Data sizes:     COMRAM   BANK0   BANK1   BANK2   BANK3   BANK4   BANK5   BANK6   BANK7   BANK8   BANK9  BANK10  BANK11  BANK12  BANK13  BANK14  BANK15
      Params:         0       0       0       0       0       0       0       0       0       0       0       0       0       0       0       0       0
      Locals:         0       2       0       0       0       0       0       0       0       0       0       0       0       0       0       0       0
      Temps:          0       0       0       0       0       0       0       0       0       0       0       0       0       0       0       0       0
      Totals:         0       2       0       0       0       0       0       0       0       0       0       0       0       0       0       0       0
Total ram usage:        2 bytes
 Hardware stack levels used:    1
 Hardware stack levels required when called:   15
 This function calls:
		_USBTransferOnePacket
 This function is called by:
		_USB_Tasks
 This function uses a non-reentrant model


 *************** function _USBTransferOnePacket *****************
 Defined at:
		line 995 in file "Library/USB/src/usb_device.c"
 Parameters:    Size  Location     Type
  ep              1    wreg     unsigned char 
  dir             1    0[BANK0 ] unsigned char 
  data            2    1[BANK0 ] PTR unsigned char 
		 -> cdc_data_tx(64), cdc_data_rx(64), NULL(0), 
  len             1    3[BANK0 ] unsigned char 
 Auto vars:     Size  Location     Type
  ep              1    8[BANK0 ] unsigned char 
  handle          2    9[BANK0 ] PTR volatile struct __BD
		 -> RAM(3903), NULL(0), BDT(48), 
 Return value:  Size  Location     Type
                  2    0[BANK0 ] PTR void 
 Registers used:
		wreg, fsr2l, fsr2h, status,2, status,0, prodl, prodh
 Tracked objects:
		On entry : 
		On exit  : 
		Unchanged: 
 Data sizes:     COMRAM   BANK0   BANK1   BANK2   BANK3   BANK4   BANK5   BANK6   BANK7   BANK8   BANK9  BANK10  BANK11  BANK12  BANK13  BANK14  BANK15
      Params:         0       4       0       0       0       0       0       0       0       0       0       0       0       0       0       0       0
      Locals:         0       3       0       0       0       0       0       0       0       0       0       0       0       0       0       0       0
      Temps:          0       4       0       0       0       0       0       0       0       0       0       0       0       0       0       0       0
      Totals:         0      11       0       0       0       0       0       0       0       0       0       0       0       0       0       0       0
Total ram usage:       11 bytes
 Hardware stack levels used:    1
 Hardware stack levels required when called:   14
 This function calls:
		Nothing
 This function is called by:
		_getsUSBUSART
		_CDCTxService
		_USBCDCEventHandler
		_getUSBUSART_FIFO
 This function uses a non-reentrant model


 *************** function _FunctMotor *****************
 Defined at:
		line 187 in file "Functions.c"
 Parameters:    Size  Location     Type
		None
 Auto vars:     Size  Location     Type
		None
 Return value:  Size  Location     Type
                  1    wreg      void 
 Registers used:
		wreg, fsr2l, fsr2h, status,2, status,0, tblptrl, tblptrh, tblptru, prodl, prodh, cstack
 Tracked objects:
		On entry : 
		On exit  : 
		Unchanged: 
 Data sizes:     COMRAM   BANK0   BANK1   BANK2   BANK3   BANK4   BANK5   BANK6   BANK7   BANK8   BANK9  BANK10  BANK11  BANK12  BANK13  BANK14  BANK15
      Params:         0       0       0       0       0       0       0       0       0       0       0       0       0       0       0       0       0
      Locals:         0       0       0       0       0       0       0       0       0       0       0       0       0       0       0       0       0
      Temps:          0       0       0       0       0       0       0       0       0       0       0       0       0       0       0       0       0
      Totals:         0       0       0       0       0       0       0       0       0       0       0       0       0       0       0       0       0
Total ram usage:        0 bytes
 Hardware stack levels used:    1
 Hardware stack levels required when called:   17
 This function calls:
		_MXK_BlockSwitchTo
		_MXK_Release
		_Motor_Speed
		___wmul
 This function is called by:
		_main
 This function uses a non-reentrant model


 *************** function _Motor_Speed *****************
 Defined at:
		line 115 in file "Motor.c"
 Parameters:    Size  Location     Type
  pMotor          2   27[BANK0 ] PTR struct Motor
		 -> Stepper(6), 
  pFrequency      2   29[BANK0 ] unsigned short 
 Auto vars:     Size  Location     Type
		None
 Return value:  Size  Location     Type
                  1    wreg      unsigned char 
 Registers used:
		wreg, fsr2l, fsr2h, status,2, status,0, tblptrl, tblptrh, tblptru, prodl, prodh, cstack
 Tracked objects:
		On entry : 
		On exit  : 
		Unchanged: 
 Data sizes:     COMRAM   BANK0   BANK1   BANK2   BANK3   BANK4   BANK5   BANK6   BANK7   BANK8   BANK9  BANK10  BANK11  BANK12  BANK13  BANK14  BANK15
      Params:         0       4       0       0       0       0       0       0       0       0       0       0       0       0       0       0       0
      Locals:         0       0       0       0       0       0       0       0       0       0       0       0       0       0       0       0       0
      Temps:          0       0       0       0       0       0       0       0       0       0       0       0       0       0       0       0       0
      Totals:         0       4       0       0       0       0       0       0       0       0       0       0       0       0       0       0       0
Total ram usage:        4 bytes
 Hardware stack levels used:    1
 Hardware stack levels required when called:   16
 This function calls:
		_Timer0_Init
 This function is called by:
		_FunctMotor
 This function uses a non-reentrant model


 *************** function _FunctInitUSB *****************
 Defined at:
		line 136 in file "Functions.c"
 Parameters:    Size  Location     Type
		None
 Auto vars:     Size  Location     Type
		None
 Return value:  Size  Location     Type
                  1    wreg      void 
 Registers used:
		wreg, fsr2l, fsr2h, status,2, status,0, prodl, prodh, cstack
 Tracked objects:
		On entry : 
		On exit  : 
		Unchanged: 
 Data sizes:     COMRAM   BANK0   BANK1   BANK2   BANK3   BANK4   BANK5   BANK6   BANK7   BANK8   BANK9  BANK10  BANK11  BANK12  BANK13  BANK14  BANK15
      Params:         0       0       0       0       0       0       0       0       0       0       0       0       0       0       0       0       0
      Locals:         0       0       0       0       0       0       0       0       0       0       0       0       0       0       0       0       0
      Temps:          0       0       0       0       0       0       0       0       0       0       0       0       0       0       0       0       0
      Totals:         0       0       0       0       0       0       0       0       0       0       0       0       0       0       0       0       0
Total ram usage:        0 bytes
 Hardware stack levels used:    1
 Hardware stack levels required when called:   17
 This function calls:
		_USB_Init
 This function is called by:
		_main
 This function uses a non-reentrant model


 *************** function _USB_Init *****************
 Defined at:
		line 15 in file "USB_Wrap.c"
 Parameters:    Size  Location     Type
		None
 Auto vars:     Size  Location     Type
		None
 Return value:  Size  Location     Type
                  1    wreg      void 
 Registers used:
		wreg, fsr2l, fsr2h, status,2, status,0, prodl, prodh, cstack
 Tracked objects:
		On entry : 
		On exit  : 
		Unchanged: 
 Data sizes:     COMRAM   BANK0   BANK1   BANK2   BANK3   BANK4   BANK5   BANK6   BANK7   BANK8   BANK9  BANK10  BANK11  BANK12  BANK13  BANK14  BANK15
      Params:         0       0       0       0       0       0       0       0       0       0       0       0       0       0       0       0       0
      Locals:         0       0       0       0       0       0       0       0       0       0       0       0       0       0       0       0       0
      Temps:          0       0       0       0       0       0       0       0       0       0       0       0       0       0       0       0       0
      Totals:         0       0       0       0       0       0       0       0       0       0       0       0       0       0       0       0       0
Total ram usage:        0 bytes
 Hardware stack levels used:    1
 Hardware stack levels required when called:   16
 This function calls:
		_USBDeviceAttach
		_USBDeviceInit
 This function is called by:
		_FunctInitUSB
 This function uses a non-reentrant model


 *************** function _USBDeviceInit *****************
 Defined at:
		line 277 in file "Library/USB/src/usb_device.c"
 Parameters:    Size  Location     Type
		None
 Auto vars:     Size  Location     Type
  i               1    8[BANK0 ] unsigned char 
 Return value:  Size  Location     Type
                  1    wreg      void 
 Registers used:
		wreg, fsr2l, fsr2h, status,2, status,0, prodl, prodh, cstack
 Tracked objects:
		On entry : 
		On exit  : 
		Unchanged: 
 Data sizes:     COMRAM   BANK0   BANK1   BANK2   BANK3   BANK4   BANK5   BANK6   BANK7   BANK8   BANK9  BANK10  BANK11  BANK12  BANK13  BANK14  BANK15
      Params:         0       0       0       0       0       0       0       0       0       0       0       0       0       0       0       0       0
      Locals:         0       1       0       0       0       0       0       0       0       0       0       0       0       0       0       0       0
      Temps:          0       0       0       0       0       0       0       0       0       0       0       0       0       0       0       0       0
      Totals:         0       1       0       0       0       0       0       0       0       0       0       0       0       0       0       0       0
Total ram usage:        1 bytes
 Hardware stack levels used:    1
 Hardware stack levels required when called:   15
 This function calls:
		_memset
 This function is called by:
		_USB_Init
 This function uses a non-reentrant model


 *************** function _memset *****************
 Defined at:
		line 8 in file "C:\Program Files (x86)\Microchip\xc8\v1.38\sources\common\memset.c"
 Parameters:    Size  Location     Type
  p1              2    0[BANK0 ] PTR void 
		 -> USBAlternateInterface(2), BDT(48), UEP1(1), 
  c               2    2[BANK0 ] int 
  n               2    4[BANK0 ] unsigned int 
 Auto vars:     Size  Location     Type
  p               2    6[BANK0 ] PTR unsigned char 
		 -> USBAlternateInterface(2), BDT(48), UEP1(1), 
 Return value:  Size  Location     Type
                  2    0[BANK0 ] PTR void 
 Registers used:
		wreg, fsr2l, fsr2h, status,2, status,0
 Tracked objects:
		On entry : 
		On exit  : 
		Unchanged: 
 Data sizes:     COMRAM   BANK0   BANK1   BANK2   BANK3   BANK4   BANK5   BANK6   BANK7   BANK8   BANK9  BANK10  BANK11  BANK12  BANK13  BANK14  BANK15
      Params:         0       6       0       0       0       0       0       0       0       0       0       0       0       0       0       0       0
      Locals:         0       2       0       0       0       0       0       0       0       0       0       0       0       0       0       0       0
      Temps:          0       0       0       0       0       0       0       0       0       0       0       0       0       0       0       0       0
      Totals:         0       8       0       0       0       0       0       0       0       0       0       0       0       0       0       0       0
Total ram usage:        8 bytes
 Hardware stack levels used:    1
 Hardware stack levels required when called:   14
 This function calls:
		Nothing
 This function is called by:
		_USBDeviceInit
 This function uses a non-reentrant model


 *************** function _USBDeviceAttach *****************
 Defined at:
		line 1352 in file "Library/USB/src/usb_device.c"
 Parameters:    Size  Location     Type
		None
 Auto vars:     Size  Location     Type
		None
 Return value:  Size  Location     Type
                  1    wreg      void 
 Registers used:
		wreg, status,2
 Tracked objects:
		On entry : 
		On exit  : 
		Unchanged: 
 Data sizes:     COMRAM   BANK0   BANK1   BANK2   BANK3   BANK4   BANK5   BANK6   BANK7   BANK8   BANK9  BANK10  BANK11  BANK12  BANK13  BANK14  BANK15
      Params:         0       0       0       0       0       0       0       0       0       0       0       0       0       0       0       0       0
      Locals:         0       0       0       0       0       0       0       0       0       0       0       0       0       0       0       0       0
      Temps:          0       0       0       0       0       0       0       0       0       0       0       0       0       0       0       0       0
      Totals:         0       0       0       0       0       0       0       0       0       0       0       0       0       0       0       0       0
Total ram usage:        0 bytes
 Hardware stack levels used:    1
 Hardware stack levels required when called:   14
 This function calls:
		Nothing
 This function is called by:
		_USB_Init
 This function uses a non-reentrant model


 *************** function _FunctInitMotor *****************
 Defined at:
		line 50 in file "Functions.c"
 Parameters:    Size  Location     Type
		None
 Auto vars:     Size  Location     Type
		None
 Return value:  Size  Location     Type
                  1    wreg      void 
 Registers used:
		wreg, fsr0l, fsr0h, fsr2l, fsr2h, status,2, status,0, tblptrl, tblptrh, tblptru, prodl, prodh, cstack
 Tracked objects:
		On entry : 
		On exit  : 
		Unchanged: 
 Data sizes:     COMRAM   BANK0   BANK1   BANK2   BANK3   BANK4   BANK5   BANK6   BANK7   BANK8   BANK9  BANK10  BANK11  BANK12  BANK13  BANK14  BANK15
      Params:         0       0       0       0       0       0       0       0       0       0       0       0       0       0       0       0       0
      Locals:         0       0       0       0       0       0       0       0       0       0       0       0       0       0       0       0       0
      Temps:          0       0       0       0       0       0       0       0       0       0       0       0       0       0       0       0       0
      Totals:         0       0       0       0       0       0       0       0       0       0       0       0       0       0       0       0       0
Total ram usage:        0 bytes
 Hardware stack levels used:    1
 Hardware stack levels required when called:   20
 This function calls:
		_MXK_BlockSwitchTo
		_MXK_Release
		_Motor_Continious
		_Motor_Init
		_Motor_Move
 This function is called by:
		_main
 This function uses a non-reentrant model


 *************** function _Motor_Move *****************
 Defined at:
		line 60 in file "Motor.c"
 Parameters:    Size  Location     Type
  pMotor          2    3[BANK0 ] PTR struct Motor
		 -> Stepper(6), 
  pDelta          2    5[BANK0 ] short 
 Auto vars:     Size  Location     Type
		None
 Return value:  Size  Location     Type
                  1    wreg      unsigned char 
 Registers used:
		wreg, fsr2l, fsr2h, status,2, status,0, cstack
 Tracked objects:
		On entry : 
		On exit  : 
		Unchanged: 
 Data sizes:     COMRAM   BANK0   BANK1   BANK2   BANK3   BANK4   BANK5   BANK6   BANK7   BANK8   BANK9  BANK10  BANK11  BANK12  BANK13  BANK14  BANK15
      Params:         0       4       0       0       0       0       0       0       0       0       0       0       0       0       0       0       0
      Locals:         0       0       0       0       0       0       0       0       0       0       0       0       0       0       0       0       0
      Temps:          0       2       0       0       0       0       0       0       0       0       0       0       0       0       0       0       0
      Totals:         0       6       0       0       0       0       0       0       0       0       0       0       0       0       0       0       0
Total ram usage:        6 bytes
 Hardware stack levels used:    1
 Hardware stack levels required when called:   15
 This function calls:
		_Timer0_Start
 This function is called by:
		_FunctInitMotor
 This function uses a non-reentrant model


 *************** function _Timer0_Start *****************
 Defined at:
		line 74 in file "Timer0.c"
 Parameters:    Size  Location     Type
  pFunction       3    0[BANK0 ] PTR FTN()void 
		 -> Motor_Step(1), 
 Auto vars:     Size  Location     Type
		None
 Return value:  Size  Location     Type
                  1    wreg      void 
 Registers used:
		wreg, status,2, status,0
 Tracked objects:
		On entry : 
		On exit  : 
		Unchanged: 
 Data sizes:     COMRAM   BANK0   BANK1   BANK2   BANK3   BANK4   BANK5   BANK6   BANK7   BANK8   BANK9  BANK10  BANK11  BANK12  BANK13  BANK14  BANK15
      Params:         0       3       0       0       0       0       0       0       0       0       0       0       0       0       0       0       0
      Locals:         0       0       0       0       0       0       0       0       0       0       0       0       0       0       0       0       0
      Temps:          0       0       0       0       0       0       0       0       0       0       0       0       0       0       0       0       0
      Totals:         0       3       0       0       0       0       0       0       0       0       0       0       0       0       0       0       0
Total ram usage:        3 bytes
 Hardware stack levels used:    1
 Hardware stack levels required when called:   14
 This function calls:
		Nothing
 This function is called by:
		_Motor_Move
 This function uses a non-reentrant model


 *************** function _Motor_Init *****************
 Defined at:
		line 37 in file "Motor.c"
 Parameters:    Size  Location     Type
  pMotor          2   45[BANK0 ] PTR struct Motor
		 -> Stepper(6), 
 Auto vars:     Size  Location     Type
		None
 Return value:  Size  Location     Type
                  1    wreg      void 
 Registers used:
		wreg, fsr0l, fsr0h, fsr2l, fsr2h, status,2, status,0, tblptrl, tblptrh, tblptru, prodl, prodh, cstack
 Tracked objects:
		On entry : 
		On exit  : 
		Unchanged: 
 Data sizes:     COMRAM   BANK0   BANK1   BANK2   BANK3   BANK4   BANK5   BANK6   BANK7   BANK8   BANK9  BANK10  BANK11  BANK12  BANK13  BANK14  BANK15
      Params:         0       2       0       0       0       0       0       0       0       0       0       0       0       0       0       0       0
      Locals:         0       0       0       0       0       0       0       0       0       0       0       0       0       0       0       0       0
      Temps:          0       0       0       0       0       0       0       0       0       0       0       0       0       0       0       0       0
      Totals:         0       2       0       0       0       0       0       0       0       0       0       0       0       0       0       0       0
Total ram usage:        2 bytes
 Hardware stack levels used:    1
 Hardware stack levels required when called:   19
 This function calls:
		_Port_SetPin
		_Port_SetPinType
		_Timer0_Init
 This function is called by:
		_FunctInitMotor
 This function uses a non-reentrant model


 *************** function _Timer0_Init *****************
 Defined at:
		line 25 in file "Timer0.c"
 Parameters:    Size  Location     Type
  pFrequency      4   13[BANK0 ] unsigned long 
 Auto vars:     Size  Location     Type
  DIVIDE          4   23[BANK0 ] unsigned long 
  pCPUClock       4   19[BANK0 ] unsigned long 
 Return value:  Size  Location     Type
                  1    wreg      void 
 Registers used:
		wreg, status,2, status,0, tblptrl, tblptrh, tblptru, prodl, prodh, cstack
 Tracked objects:
		On entry : 
		On exit  : 
		Unchanged: 
 Data sizes:     COMRAM   BANK0   BANK1   BANK2   BANK3   BANK4   BANK5   BANK6   BANK7   BANK8   BANK9  BANK10  BANK11  BANK12  BANK13  BANK14  BANK15
      Params:         0       4       0       0       0       0       0       0       0       0       0       0       0       0       0       0       0
      Locals:         0       8       0       0       0       0       0       0       0       0       0       0       0       0       0       0       0
      Temps:          0       2       0       0       0       0       0       0       0       0       0       0       0       0       0       0       0
      Totals:         0      14       0       0       0       0       0       0       0       0       0       0       0       0       0       0       0
Total ram usage:       14 bytes
 Hardware stack levels used:    1
 Hardware stack levels required when called:   15
 This function calls:
		_Timer0_Clear
		___lldiv
 This function is called by:
		_Motor_Init
		_Motor_Speed
 This function uses a non-reentrant model


 *************** function _Timer0_Clear *****************
 Defined at:
		line 20 in file "Timer0.c"
 Parameters:    Size  Location     Type
		None
 Auto vars:     Size  Location     Type
		None
 Return value:  Size  Location     Type
                  1    wreg      void 
 Registers used:
		None
 Tracked objects:
		On entry : 
		On exit  : 
		Unchanged: 
 Data sizes:     COMRAM   BANK0   BANK1   BANK2   BANK3   BANK4   BANK5   BANK6   BANK7   BANK8   BANK9  BANK10  BANK11  BANK12  BANK13  BANK14  BANK15
      Params:         0       0       0       0       0       0       0       0       0       0       0       0       0       0       0       0       0
      Locals:         0       0       0       0       0       0       0       0       0       0       0       0       0       0       0       0       0
      Temps:          0       0       0       0       0       0       0       0       0       0       0       0       0       0       0       0       0
      Totals:         0       0       0       0       0       0       0       0       0       0       0       0       0       0       0       0       0
Total ram usage:        0 bytes
 Hardware stack levels used:    1
 Hardware stack levels required when called:   14
 This function calls:
		Nothing
 This function is called by:
		_Timer0_Init
 This function uses a non-reentrant model


 *************** function _Motor_Continious *****************
 Defined at:
		line 134 in file "Motor.c"
 Parameters:    Size  Location     Type
  pMotor          2    0[BANK0 ] PTR struct Motor
		 -> Stepper(6), 
  pDirection      2    2[BANK0 ] short 
 Auto vars:     Size  Location     Type
		None
 Return value:  Size  Location     Type
                  1    wreg      unsigned char 
 Registers used:
		wreg, fsr2l, fsr2h, status,2, status,0
 Tracked objects:
		On entry : 
		On exit  : 
		Unchanged: 
 Data sizes:     COMRAM   BANK0   BANK1   BANK2   BANK3   BANK4   BANK5   BANK6   BANK7   BANK8   BANK9  BANK10  BANK11  BANK12  BANK13  BANK14  BANK15
      Params:         0       4       0       0       0       0       0       0       0       0       0       0       0       0       0       0       0
      Locals:         0       0       0       0       0       0       0       0       0       0       0       0       0       0       0       0       0
      Temps:          0       0       0       0       0       0       0       0       0       0       0       0       0       0       0       0       0
      Totals:         0       4       0       0       0       0       0       0       0       0       0       0       0       0       0       0       0
Total ram usage:        4 bytes
 Hardware stack levels used:    1
 Hardware stack levels required when called:   14
 This function calls:
		Nothing
 This function is called by:
		_FunctInitMotor
 This function uses a non-reentrant model


 *************** function _FunctInitLCD *****************
 Defined at:
		line 66 in file "Functions.c"
 Parameters:    Size  Location     Type
		None
 Auto vars:     Size  Location     Type
		None
 Return value:  Size  Location     Type
                  1    wreg      void 
 Registers used:
		wreg, fsr0l, fsr0h, fsr2l, fsr2h, status,2, status,0, tblptrl, tblptrh, tblptru, prodl, prodh, cstack
 Tracked objects:
		On entry : 
		On exit  : 
		Unchanged: 
 Data sizes:     COMRAM   BANK0   BANK1   BANK2   BANK3   BANK4   BANK5   BANK6   BANK7   BANK8   BANK9  BANK10  BANK11  BANK12  BANK13  BANK14  BANK15
      Params:         0       0       0       0       0       0       0       0       0       0       0       0       0       0       0       0       0
      Locals:         0       0       0       0       0       0       0       0       0       0       0       0       0       0       0       0       0
      Temps:          0       0       0       0       0       0       0       0       0       0       0       0       0       0       0       0       0
      Totals:         0       0       0       0       0       0       0       0       0       0       0       0       0       0       0       0       0
Total ram usage:        0 bytes
 Hardware stack levels used:    1
 Hardware stack levels required when called:   23
 This function calls:
		_Console_Init
		_LCD_Init
		_MXK_BlockSwitchTo
		_MXK_Release
 This function is called by:
		_main
 This function uses a non-reentrant model


 *************** function _LCD_Init *****************
 Defined at:
		line 134 in file "Library/LCD.c"
 Parameters:    Size  Location     Type
		None
 Auto vars:     Size  Location     Type
  i               2   55[BANK0 ] unsigned short 
 Return value:  Size  Location     Type
                  1    wreg      void 
 Registers used:
		wreg, fsr0l, fsr0h, fsr2l, fsr2h, status,2, status,0, tblptrl, tblptrh, tblptru, prodl, prodh, cstack
 Tracked objects:
		On entry : 
		On exit  : 
		Unchanged: 
 Data sizes:     COMRAM   BANK0   BANK1   BANK2   BANK3   BANK4   BANK5   BANK6   BANK7   BANK8   BANK9  BANK10  BANK11  BANK12  BANK13  BANK14  BANK15
      Params:         0       0       0       0       0       0       0       0       0       0       0       0       0       0       0       0       0
      Locals:         0       2       0       0       0       0       0       0       0       0       0       0       0       0       0       0       0
      Temps:          0       2       0       0       0       0       0       0       0       0       0       0       0       0       0       0       0
      Totals:         0       4       0       0       0       0       0       0       0       0       0       0       0       0       0       0       0
Total ram usage:        4 bytes
 Hardware stack levels used:    1
 Hardware stack levels required when called:   22
 This function calls:
		_Configure_GPIOs
		_LCD_Fill
		_LCD_Write
		_Set_Rotation
		_delay_ms
 This function is called by:
		_FunctInitLCD
 This function uses a non-reentrant model


 *************** function _Set_Rotation *****************
 Defined at:
		line 210 in file "Library/LCD.c"
 Parameters:    Size  Location     Type
  m               1    wreg     unsigned char 
 Auto vars:     Size  Location     Type
  m               1   10[BANK0 ] unsigned char 
  rotation        1   11[BANK0 ] unsigned char 
 Return value:  Size  Location     Type
                  1    wreg      void 
 Registers used:
		wreg, fsr2l, fsr2h, status,2, status,0, cstack
 Tracked objects:
		On entry : 
		On exit  : 
		Unchanged: 
 Data sizes:     COMRAM   BANK0   BANK1   BANK2   BANK3   BANK4   BANK5   BANK6   BANK7   BANK8   BANK9  BANK10  BANK11  BANK12  BANK13  BANK14  BANK15
      Params:         0       0       0       0       0       0       0       0       0       0       0       0       0       0       0       0       0
      Locals:         0       2       0       0       0       0       0       0       0       0       0       0       0       0       0       0       0
      Temps:          0       0       0       0       0       0       0       0       0       0       0       0       0       0       0       0       0
      Totals:         0       2       0       0       0       0       0       0       0       0       0       0       0       0       0       0       0
Total ram usage:        2 bytes
 Hardware stack levels used:    1
 Hardware stack levels required when called:   16
 This function calls:
		_LCD_Write
 This function is called by:
		_LCD_Init
 This function uses a non-reentrant model


 *************** function _LCD_Fill *****************
 Defined at:
		line 249 in file "Library/LCD.c"
 Parameters:    Size  Location     Type
  pColour         2   14[BANK0 ] unsigned short 
 Auto vars:     Size  Location     Type
  j               1   17[BANK0 ] unsigned char 
  i               1   16[BANK0 ] unsigned char 
 Return value:  Size  Location     Type
                  1    wreg      void 
 Registers used:
		wreg, fsr2l, fsr2h, status,2, status,0, cstack
 Tracked objects:
		On entry : 
		On exit  : 
		Unchanged: 
 Data sizes:     COMRAM   BANK0   BANK1   BANK2   BANK3   BANK4   BANK5   BANK6   BANK7   BANK8   BANK9  BANK10  BANK11  BANK12  BANK13  BANK14  BANK15
      Params:         0       2       0       0       0       0       0       0       0       0       0       0       0       0       0       0       0
      Locals:         0       2       0       0       0       0       0       0       0       0       0       0       0       0       0       0       0
      Temps:          0       0       0       0       0       0       0       0       0       0       0       0       0       0       0       0       0
      Totals:         0       4       0       0       0       0       0       0       0       0       0       0       0       0       0       0       0
Total ram usage:        4 bytes
 Hardware stack levels used:    1
 Hardware stack levels required when called:   17
 This function calls:
		_LCD_Word_Write
		_Set_Addr_Window
 This function is called by:
		_LCD_Init
 This function uses a non-reentrant model


 *************** function _Configure_GPIOs *****************
 Defined at:
		line 38 in file "Library/LCD.c"
 Parameters:    Size  Location     Type
		None
 Auto vars:     Size  Location     Type
		None
 Return value:  Size  Location     Type
                  1    wreg      void 
 Registers used:
		wreg, fsr0l, fsr0h, fsr2l, fsr2h, status,2, status,0, tblptrl, tblptrh, tblptru, prodl, prodh, cstack
 Tracked objects:
		On entry : 
		On exit  : 
		Unchanged: 
 Data sizes:     COMRAM   BANK0   BANK1   BANK2   BANK3   BANK4   BANK5   BANK6   BANK7   BANK8   BANK9  BANK10  BANK11  BANK12  BANK13  BANK14  BANK15
      Params:         0       0       0       0       0       0       0       0       0       0       0       0       0       0       0       0       0
      Locals:         0       0       0       0       0       0       0       0       0       0       0       0       0       0       0       0       0
      Temps:          0       0       0       0       0       0       0       0       0       0       0       0       0       0       0       0       0
      Totals:         0       0       0       0       0       0       0       0       0       0       0       0       0       0       0       0       0
Total ram usage:        0 bytes
 Hardware stack levels used:    1
 Hardware stack levels required when called:   21
 This function calls:
		_LCD_Reset
		_Port_SetPinType
		_SPI_Init
		_SPI_MaxSpeed
 This function is called by:
		_LCD_Init
 This function uses a non-reentrant model


 *************** function _SPI_MaxSpeed *****************
 Defined at:
		line 188 in file "Library/SPI.c"
 Parameters:    Size  Location     Type
  pInput          2   15[BANK0 ] const PTR struct SPI
		 -> SPI2(11), 
 Auto vars:     Size  Location     Type
		None
 Return value:  Size  Location     Type
                  1    wreg      void 
 Registers used:
		wreg, fsr2l, fsr2h, status,2, status,0, tblptrl, tblptrh, tblptru, prodl, prodh, cstack
 Tracked objects:
		On entry : 
		On exit  : 
		Unchanged: 
 Data sizes:     COMRAM   BANK0   BANK1   BANK2   BANK3   BANK4   BANK5   BANK6   BANK7   BANK8   BANK9  BANK10  BANK11  BANK12  BANK13  BANK14  BANK15
      Params:         0       2       0       0       0       0       0       0       0       0       0       0       0       0       0       0       0
      Locals:         0       0       0       0       0       0       0       0       0       0       0       0       0       0       0       0       0
      Temps:          0       0       0       0       0       0       0       0       0       0       0       0       0       0       0       0       0
      Totals:         0       2       0       0       0       0       0       0       0       0       0       0       0       0       0       0       0
Total ram usage:        2 bytes
 Hardware stack levels used:    1
 Hardware stack levels required when called:   16
 This function calls:
		_Byte_SetBit
		_Byte_SetQuad
 This function is called by:
		_Configure_GPIOs
 This function uses a non-reentrant model


 *************** function _LCD_Reset *****************
 Defined at:
		line 82 in file "Library/LCD.c"
 Parameters:    Size  Location     Type
		None
 Auto vars:     Size  Location     Type
		None
 Return value:  Size  Location     Type
                  1    wreg      void 
 Registers used:
		wreg, fsr0l, fsr0h, fsr2l, fsr2h, status,2, status,0, tblptrl, tblptrh, tblptru, prodl, prodh, cstack
 Tracked objects:
		On entry : 
		On exit  : 
		Unchanged: 
 Data sizes:     COMRAM   BANK0   BANK1   BANK2   BANK3   BANK4   BANK5   BANK6   BANK7   BANK8   BANK9  BANK10  BANK11  BANK12  BANK13  BANK14  BANK15
      Params:         0       0       0       0       0       0       0       0       0       0       0       0       0       0       0       0       0
      Locals:         0       0       0       0       0       0       0       0       0       0       0       0       0       0       0       0       0
      Temps:          0       0       0       0       0       0       0       0       0       0       0       0       0       0       0       0       0
      Totals:         0       0       0       0       0       0       0       0       0       0       0       0       0       0       0       0       0
Total ram usage:        0 bytes
 Hardware stack levels used:    1
 Hardware stack levels required when called:   20
 This function calls:
		_LED_Toggle
		_Reset_High
		_Reset_Low
		_delay_ms
 This function is called by:
		_Configure_GPIOs
 This function uses a non-reentrant model


 *************** function _delay_ms *****************
 Defined at:
		line 240 in file "Library/Types.c"
 Parameters:    Size  Location     Type
  ms              2    0[BANK0 ] unsigned short 
 Auto vars:     Size  Location     Type
  u               4    2[BANK0 ] volatile unsigned long 
 Return value:  Size  Location     Type
                  1    wreg      void 
 Registers used:
		wreg, status,2, status,0
 Tracked objects:
		On entry : 
		On exit  : 
		Unchanged: 
 Data sizes:     COMRAM   BANK0   BANK1   BANK2   BANK3   BANK4   BANK5   BANK6   BANK7   BANK8   BANK9  BANK10  BANK11  BANK12  BANK13  BANK14  BANK15
      Params:         0       2       0       0       0       0       0       0       0       0       0       0       0       0       0       0       0
      Locals:         0       4       0       0       0       0       0       0       0       0       0       0       0       0       0       0       0
      Temps:          0       0       0       0       0       0       0       0       0       0       0       0       0       0       0       0       0
      Totals:         0       6       0       0       0       0       0       0       0       0       0       0       0       0       0       0       0
Total ram usage:        6 bytes
 Hardware stack levels used:    1
 Hardware stack levels required when called:   14
 This function calls:
		Nothing
 This function is called by:
		_LCD_Reset
		_LCD_Init
		_MXK_Init
 This function uses a non-reentrant model


 *************** function _Reset_Low *****************
 Defined at:
		line 28 in file "Library/LCD.c"
 Parameters:    Size  Location     Type
		None
 Auto vars:     Size  Location     Type
		None
 Return value:  Size  Location     Type
                  1    wreg      void 
 Registers used:
		wreg, fsr0l, fsr0h, fsr2l, fsr2h, status,2, status,0, tblptrl, tblptrh, tblptru, prodl, prodh, cstack
 Tracked objects:
		On entry : 
		On exit  : 
		Unchanged: 
 Data sizes:     COMRAM   BANK0   BANK1   BANK2   BANK3   BANK4   BANK5   BANK6   BANK7   BANK8   BANK9  BANK10  BANK11  BANK12  BANK13  BANK14  BANK15
      Params:         0       0       0       0       0       0       0       0       0       0       0       0       0       0       0       0       0
      Locals:         0       0       0       0       0       0       0       0       0       0       0       0       0       0       0       0       0
      Temps:          0       0       0       0       0       0       0       0       0       0       0       0       0       0       0       0       0
      Totals:         0       0       0       0       0       0       0       0       0       0       0       0       0       0       0       0       0
Total ram usage:        0 bytes
 Hardware stack levels used:    1
 Hardware stack levels required when called:   18
 This function calls:
		_Port_SetPin
 This function is called by:
		_LCD_Reset
 This function uses a non-reentrant model


 *************** function _Reset_High *****************
 Defined at:
		line 32 in file "Library/LCD.c"
 Parameters:    Size  Location     Type
		None
 Auto vars:     Size  Location     Type
		None
 Return value:  Size  Location     Type
                  1    wreg      void 
 Registers used:
		wreg, fsr0l, fsr0h, fsr2l, fsr2h, status,2, status,0, tblptrl, tblptrh, tblptru, prodl, prodh, cstack
 Tracked objects:
		On entry : 
		On exit  : 
		Unchanged: 
 Data sizes:     COMRAM   BANK0   BANK1   BANK2   BANK3   BANK4   BANK5   BANK6   BANK7   BANK8   BANK9  BANK10  BANK11  BANK12  BANK13  BANK14  BANK15
      Params:         0       0       0       0       0       0       0       0       0       0       0       0       0       0       0       0       0
      Locals:         0       0       0       0       0       0       0       0       0       0       0       0       0       0       0       0       0
      Temps:          0       0       0       0       0       0       0       0       0       0       0       0       0       0       0       0       0
      Totals:         0       0       0       0       0       0       0       0       0       0       0       0       0       0       0       0       0
Total ram usage:        0 bytes
 Hardware stack levels used:    1
 Hardware stack levels required when called:   18
 This function calls:
		_Port_SetPin
 This function is called by:
		_LCD_Reset
 This function uses a non-reentrant model


 *************** function _Console_Init *****************
 Defined at:
		line 154 in file "Library/Console.c"
 Parameters:    Size  Location     Type
		None
 Auto vars:     Size  Location     Type
  y               1    3[BANK0 ] unsigned char 
  x               1    2[BANK0 ] unsigned char 
 Return value:  Size  Location     Type
                  1    wreg      void 
 Registers used:
		wreg, fsr2l, fsr2h, status,2, status,0, prodl, prodh
 Tracked objects:
		On entry : 
		On exit  : 
		Unchanged: 
 Data sizes:     COMRAM   BANK0   BANK1   BANK2   BANK3   BANK4   BANK5   BANK6   BANK7   BANK8   BANK9  BANK10  BANK11  BANK12  BANK13  BANK14  BANK15
      Params:         0       0       0       0       0       0       0       0       0       0       0       0       0       0       0       0       0
      Locals:         0       2       0       0       0       0       0       0       0       0       0       0       0       0       0       0       0
      Temps:          0       2       0       0       0       0       0       0       0       0       0       0       0       0       0       0       0
      Totals:         0       4       0       0       0       0       0       0       0       0       0       0       0       0       0       0       0
Total ram usage:        4 bytes
 Hardware stack levels used:    1
 Hardware stack levels required when called:   14
 This function calls:
		Nothing
 This function is called by:
		_FunctInitLCD
 This function uses a non-reentrant model


 *************** function _FunctInitHMI *****************
 Defined at:
		line 112 in file "Functions.c"
 Parameters:    Size  Location     Type
		None
 Auto vars:     Size  Location     Type
		None
 Return value:  Size  Location     Type
                  1    wreg      void 
 Registers used:
		wreg, fsr0l, fsr0h, fsr2l, fsr2h, status,2, status,0, tblptrl, tblptrh, tblptru, prodl, prodh, cstack
 Tracked objects:
		On entry : 
		On exit  : 
		Unchanged: 
 Data sizes:     COMRAM   BANK0   BANK1   BANK2   BANK3   BANK4   BANK5   BANK6   BANK7   BANK8   BANK9  BANK10  BANK11  BANK12  BANK13  BANK14  BANK15
      Params:         0       0       0       0       0       0       0       0       0       0       0       0       0       0       0       0       0
      Locals:         0       0       0       0       0       0       0       0       0       0       0       0       0       0       0       0       0
      Temps:          0       0       0       0       0       0       0       0       0       0       0       0       0       0       0       0       0
      Totals:         0       0       0       0       0       0       0       0       0       0       0       0       0       0       0       0       0
Total ram usage:        0 bytes
 Hardware stack levels used:    1
 Hardware stack levels required when called:   23
 This function calls:
		_HMI_Init
		_HMI_SetBar
		_HMI_SetSegments
		_MXK_BlockSwitchTo
		_MXK_Release
 This function is called by:
		_main
 This function uses a non-reentrant model


 *************** function _HMI_Init *****************
 Defined at:
		line 73 in file "HMI.c"
 Parameters:    Size  Location     Type
		None
 Auto vars:     Size  Location     Type
  in              2   67[BANK0 ] unsigned short 
 Return value:  Size  Location     Type
                  1    wreg      void 
 Registers used:
		wreg, fsr0l, fsr0h, fsr2l, fsr2h, status,2, status,0, tblptrl, tblptrh, tblptru, prodl, prodh, cstack
 Tracked objects:
		On entry : 
		On exit  : 
		Unchanged: 
 Data sizes:     COMRAM   BANK0   BANK1   BANK2   BANK3   BANK4   BANK5   BANK6   BANK7   BANK8   BANK9  BANK10  BANK11  BANK12  BANK13  BANK14  BANK15
      Params:         0       0       0       0       0       0       0       0       0       0       0       0       0       0       0       0       0
      Locals:         0       2       0       0       0       0       0       0       0       0       0       0       0       0       0       0       0
      Temps:          0       0       0       0       0       0       0       0       0       0       0       0       0       0       0       0       0
      Totals:         0       2       0       0       0       0       0       0       0       0       0       0       0       0       0       0       0
Total ram usage:        2 bytes
 Hardware stack levels used:    1
 Hardware stack levels required when called:   22
 This function calls:
		_Button_Init
		_SPI_Init
		_SPI_MinSpeed
 This function is called by:
		_FunctInitHMI
 This function uses a non-reentrant model


 *************** function _SPI_MinSpeed *****************
 Defined at:
		line 177 in file "Library/SPI.c"
 Parameters:    Size  Location     Type
  pInput          2   15[BANK0 ] const PTR struct SPI
		 -> SPI1(11), 
 Auto vars:     Size  Location     Type
		None
 Return value:  Size  Location     Type
                  1    wreg      void 
 Registers used:
		wreg, fsr2l, fsr2h, status,2, status,0, tblptrl, tblptrh, tblptru, prodl, prodh, cstack
 Tracked objects:
		On entry : 
		On exit  : 
		Unchanged: 
 Data sizes:     COMRAM   BANK0   BANK1   BANK2   BANK3   BANK4   BANK5   BANK6   BANK7   BANK8   BANK9  BANK10  BANK11  BANK12  BANK13  BANK14  BANK15
      Params:         0       2       0       0       0       0       0       0       0       0       0       0       0       0       0       0       0
      Locals:         0       0       0       0       0       0       0       0       0       0       0       0       0       0       0       0       0
      Temps:          0       0       0       0       0       0       0       0       0       0       0       0       0       0       0       0       0
      Totals:         0       2       0       0       0       0       0       0       0       0       0       0       0       0       0       0       0
Total ram usage:        2 bytes
 Hardware stack levels used:    1
 Hardware stack levels required when called:   16
 This function calls:
		_Byte_SetBit
		_Byte_SetQuad
 This function is called by:
		_HMI_Init
 This function uses a non-reentrant model


 *************** function _SPI_Init *****************
 Defined at:
		line 11 in file "Library/SPI.c"
 Parameters:    Size  Location     Type
  pInput          2   45[BANK0 ] const PTR struct SPI
		 -> SPI1(11), SPI2(11), 
  pClock          4   47[BANK0 ] unsigned long 
  pChannel        1   51[BANK0 ] enum E7734
  pMode           1   52[BANK0 ] enum E7738
 Auto vars:     Size  Location     Type
		None
 Return value:  Size  Location     Type
                  1    wreg      void 
 Registers used:
		wreg, fsr0l, fsr0h, fsr2l, fsr2h, status,2, status,0, tblptrl, tblptrh, tblptru, prodl, prodh, cstack
 Tracked objects:
		On entry : 
		On exit  : 
		Unchanged: 
 Data sizes:     COMRAM   BANK0   BANK1   BANK2   BANK3   BANK4   BANK5   BANK6   BANK7   BANK8   BANK9  BANK10  BANK11  BANK12  BANK13  BANK14  BANK15
      Params:         0       8       0       0       0       0       0       0       0       0       0       0       0       0       0       0       0
      Locals:         0       0       0       0       0       0       0       0       0       0       0       0       0       0       0       0       0
      Temps:          0       0       0       0       0       0       0       0       0       0       0       0       0       0       0       0       0
      Totals:         0       8       0       0       0       0       0       0       0       0       0       0       0       0       0       0       0
Total ram usage:        8 bytes
 Hardware stack levels used:    1
 Hardware stack levels required when called:   19
 This function calls:
		_Byte_SetBit
		_Byte_SetQuad
		_Port_SetPinType
		_SPI_DCS
		_SPI_DisableISR
		_Timer2_Init
 This function is called by:
		_Configure_GPIOs
		_HMI_Init
 This function uses a non-reentrant model


 *************** function _Timer2_Init *****************
 Defined at:
		line 10 in file "Timer2.c"
 Parameters:    Size  Location     Type
  pFrequency      4   13[BANK0 ] unsigned long 
 Auto vars:     Size  Location     Type
  DIVIDE          4   26[BANK0 ] unsigned long 
  pCPUClock       4   22[BANK0 ] unsigned long 
  RDIV            4   18[BANK0 ] unsigned long 
 Return value:  Size  Location     Type
                  1    wreg      void 
 Registers used:
		wreg, status,2, status,0, tblptrl, tblptrh, tblptru, prodl, prodh, cstack
 Tracked objects:
		On entry : 
		On exit  : 
		Unchanged: 
 Data sizes:     COMRAM   BANK0   BANK1   BANK2   BANK3   BANK4   BANK5   BANK6   BANK7   BANK8   BANK9  BANK10  BANK11  BANK12  BANK13  BANK14  BANK15
      Params:         0       4       0       0       0       0       0       0       0       0       0       0       0       0       0       0       0
      Locals:         0      12       0       0       0       0       0       0       0       0       0       0       0       0       0       0       0
      Temps:          0       1       0       0       0       0       0       0       0       0       0       0       0       0       0       0       0
      Totals:         0      17       0       0       0       0       0       0       0       0       0       0       0       0       0       0       0
Total ram usage:       17 bytes
 Hardware stack levels used:    1
 Hardware stack levels required when called:   15
 This function calls:
		_Timer2_Clear
		___lldiv
 This function is called by:
		_SPI_Init
 This function uses a non-reentrant model


 *************** function ___lldiv *****************
 Defined at:
		line 8 in file "C:\Program Files (x86)\Microchip\xc8\v1.38\sources\common\lldiv.c"
 Parameters:    Size  Location     Type
  dividend        4    0[BANK0 ] unsigned long 
  divisor         4    4[BANK0 ] unsigned long 
 Auto vars:     Size  Location     Type
  quotient        4    8[BANK0 ] unsigned long 
  counter         1   12[BANK0 ] unsigned char 
 Return value:  Size  Location     Type
                  4    0[BANK0 ] unsigned long 
 Registers used:
		wreg, status,2, status,0
 Tracked objects:
		On entry : 
		On exit  : 
		Unchanged: 
 Data sizes:     COMRAM   BANK0   BANK1   BANK2   BANK3   BANK4   BANK5   BANK6   BANK7   BANK8   BANK9  BANK10  BANK11  BANK12  BANK13  BANK14  BANK15
      Params:         0       8       0       0       0       0       0       0       0       0       0       0       0       0       0       0       0
      Locals:         0       5       0       0       0       0       0       0       0       0       0       0       0       0       0       0       0
      Temps:          0       0       0       0       0       0       0       0       0       0       0       0       0       0       0       0       0
      Totals:         0      13       0       0       0       0       0       0       0       0       0       0       0       0       0       0       0
Total ram usage:       13 bytes
 Hardware stack levels used:    1
 Hardware stack levels required when called:   14
 This function calls:
		Nothing
 This function is called by:
		_Timer0_Init
		_Timer2_Init
		_I2C_Init
 This function uses a non-reentrant model


 *************** function _Timer2_Clear *****************
 Defined at:
		line 3 in file "Timer2.c"
 Parameters:    Size  Location     Type
		None
 Auto vars:     Size  Location     Type
		None
 Return value:  Size  Location     Type
                  1    wreg      void 
 Registers used:
		None
 Tracked objects:
		On entry : 
		On exit  : 
		Unchanged: 
 Data sizes:     COMRAM   BANK0   BANK1   BANK2   BANK3   BANK4   BANK5   BANK6   BANK7   BANK8   BANK9  BANK10  BANK11  BANK12  BANK13  BANK14  BANK15
      Params:         0       0       0       0       0       0       0       0       0       0       0       0       0       0       0       0       0
      Locals:         0       0       0       0       0       0       0       0       0       0       0       0       0       0       0       0       0
      Temps:          0       0       0       0       0       0       0       0       0       0       0       0       0       0       0       0       0
      Totals:         0       0       0       0       0       0       0       0       0       0       0       0       0       0       0       0       0
Total ram usage:        0 bytes
 Hardware stack levels used:    1
 Hardware stack levels required when called:   14
 This function calls:
		Nothing
 This function is called by:
		_Timer2_Init
 This function uses a non-reentrant model


 *************** function _SPI_DisableISR *****************
 Defined at:
		line 168 in file "Library/SPI.c"
 Parameters:    Size  Location     Type
  pInput          2    0[BANK0 ] const PTR struct SPI
		 -> SPI1(11), SPI2(11), 
 Auto vars:     Size  Location     Type
		None
 Return value:  Size  Location     Type
                  1    wreg      void 
 Registers used:
		wreg, fsr2l, fsr2h, status,2, status,0
 Tracked objects:
		On entry : 
		On exit  : 
		Unchanged: 
 Data sizes:     COMRAM   BANK0   BANK1   BANK2   BANK3   BANK4   BANK5   BANK6   BANK7   BANK8   BANK9  BANK10  BANK11  BANK12  BANK13  BANK14  BANK15
      Params:         0       2       0       0       0       0       0       0       0       0       0       0       0       0       0       0       0
      Locals:         0       0       0       0       0       0       0       0       0       0       0       0       0       0       0       0       0
      Temps:          0       0       0       0       0       0       0       0       0       0       0       0       0       0       0       0       0
      Totals:         0       2       0       0       0       0       0       0       0       0       0       0       0       0       0       0       0
Total ram usage:        2 bytes
 Hardware stack levels used:    1
 Hardware stack levels required when called:   14
 This function calls:
		Nothing
 This function is called by:
		_SPI_Init
 This function uses a non-reentrant model


 *************** function _SPI_DCS *****************
 Defined at:
		line 206 in file "Library/SPI.c"
 Parameters:    Size  Location     Type
  pInput          2    0[BANK0 ] const PTR struct SPI
		 -> SPI1(11), SPI2(11), 
 Auto vars:     Size  Location     Type
		None
 Return value:  Size  Location     Type
                  1    wreg      void 
 Registers used:
		wreg, fsr2l, fsr2h, status,2, status,0
 Tracked objects:
		On entry : 
		On exit  : 
		Unchanged: 
 Data sizes:     COMRAM   BANK0   BANK1   BANK2   BANK3   BANK4   BANK5   BANK6   BANK7   BANK8   BANK9  BANK10  BANK11  BANK12  BANK13  BANK14  BANK15
      Params:         0       2       0       0       0       0       0       0       0       0       0       0       0       0       0       0       0
      Locals:         0       0       0       0       0       0       0       0       0       0       0       0       0       0       0       0       0
      Temps:          0       0       0       0       0       0       0       0       0       0       0       0       0       0       0       0       0
      Totals:         0       2       0       0       0       0       0       0       0       0       0       0       0       0       0       0       0
Total ram usage:        2 bytes
 Hardware stack levels used:    1
 Hardware stack levels required when called:   14
 This function calls:
		Nothing
 This function is called by:
		_SPI_Init
 This function uses a non-reentrant model


 *************** function _FunctInitButton *****************
 Defined at:
		line 32 in file "Functions.c"
 Parameters:    Size  Location     Type
		None
 Auto vars:     Size  Location     Type
		None
 Return value:  Size  Location     Type
                  1    wreg      void 
 Registers used:
		wreg, fsr0l, fsr0h, fsr2l, fsr2h, status,2, status,0, tblptrl, tblptrh, tblptru, prodl, prodh, cstack
 Tracked objects:
		On entry : 
		On exit  : 
		Unchanged: 
 Data sizes:     COMRAM   BANK0   BANK1   BANK2   BANK3   BANK4   BANK5   BANK6   BANK7   BANK8   BANK9  BANK10  BANK11  BANK12  BANK13  BANK14  BANK15
      Params:         0       0       0       0       0       0       0       0       0       0       0       0       0       0       0       0       0
      Locals:         0       0       0       0       0       0       0       0       0       0       0       0       0       0       0       0       0
      Temps:          0       0       0       0       0       0       0       0       0       0       0       0       0       0       0       0       0
      Totals:         0       0       0       0       0       0       0       0       0       0       0       0       0       0       0       0       0
Total ram usage:        0 bytes
 Hardware stack levels used:    1
 Hardware stack levels required when called:   22
 This function calls:
		_Button_Init
 This function is called by:
		_main
 This function uses a non-reentrant model


 *************** function _Button_Init *****************
 Defined at:
		line 18 in file "Library/Button.c"
 Parameters:    Size  Location     Type
  pInput          2   59[BANK0 ] const PTR struct Button
		 -> DIPSwitch(8), TestButton(8), HMIBoard(48), 
  pButton         1   61[BANK0 ] enum E7677
  pThreshold      2   62[BANK0 ] unsigned short 
  pFunction       3   64[BANK0 ] PTR FTN(unsigned char ,)
		 -> Event_TestButton(1), Event_DIPSwitch(1), Event_HMI_DownButton(1), Event_HMI_UpButton(1), 
		 -> Event_HMI_RightButton(1), Event_HMI_LeftButton(1), Event_HMI_DIPSwitch(1), 
 Auto vars:     Size  Location     Type
		None
 Return value:  Size  Location     Type
                  1    wreg      void 
 Registers used:
		wreg, fsr0l, fsr0h, fsr2l, fsr2h, status,2, status,0, tblptrl, tblptrh, tblptru, prodl, prodh, cstack
 Tracked objects:
		On entry : 
		On exit  : 
		Unchanged: 
 Data sizes:     COMRAM   BANK0   BANK1   BANK2   BANK3   BANK4   BANK5   BANK6   BANK7   BANK8   BANK9  BANK10  BANK11  BANK12  BANK13  BANK14  BANK15
      Params:         0       8       0       0       0       0       0       0       0       0       0       0       0       0       0       0       0
      Locals:         0       0       0       0       0       0       0       0       0       0       0       0       0       0       0       0       0
      Temps:          0       0       0       0       0       0       0       0       0       0       0       0       0       0       0       0       0
      Totals:         0       8       0       0       0       0       0       0       0       0       0       0       0       0       0       0       0
Total ram usage:        8 bytes
 Hardware stack levels used:    1
 Hardware stack levels required when called:   21
 This function calls:
		_Port_SetPinType
		_Port_SetQuadType
 This function is called by:
		_HMI_Init
		_FunctInitButton
 This function uses a non-reentrant model


 *************** function _Port_SetQuadType *****************
 Defined at:
		line 399 in file "Library/Port.c"
 Parameters:    Size  Location     Type
  pInput          2   54[BANK0 ] const PTR struct Port
		 -> PortD(10), PortB(10), 
  pQuad           1   56[BANK0 ] enum E7714
  pType           1   57[BANK0 ] enum E7733
 Auto vars:     Size  Location     Type
  Output          1   58[BANK0 ] enum E7416
 Return value:  Size  Location     Type
                  1    wreg      enum E7416
 Registers used:
		wreg, fsr0l, fsr0h, fsr2l, fsr2h, status,2, status,0, tblptrl, tblptrh, tblptru, prodl, prodh, cstack
 Tracked objects:
		On entry : 
		On exit  : 
		Unchanged: 
 Data sizes:     COMRAM   BANK0   BANK1   BANK2   BANK3   BANK4   BANK5   BANK6   BANK7   BANK8   BANK9  BANK10  BANK11  BANK12  BANK13  BANK14  BANK15
      Params:         0       4       0       0       0       0       0       0       0       0       0       0       0       0       0       0       0
      Locals:         0       1       0       0       0       0       0       0       0       0       0       0       0       0       0       0       0
      Temps:          0       0       0       0       0       0       0       0       0       0       0       0       0       0       0       0       0
      Totals:         0       5       0       0       0       0       0       0       0       0       0       0       0       0       0       0       0
Total ram usage:        5 bytes
 Hardware stack levels used:    1
 Hardware stack levels required when called:   20
 This function calls:
		_Byte_SetQuad
		_Port_CheckQuadType
		_Word_SetPair
 This function is called by:
		_Button_Init
		_MXK_Init
 This function uses a non-reentrant model


 *************** function _Port_CheckQuadType *****************
 Defined at:
		line 126 in file "Library/Port.c"
 Parameters:    Size  Location     Type
  pInput          2   47[BANK0 ] const PTR struct Port
		 -> PortG(10), PortA(10), PortC(10), PortF(10), 
		 -> PortE(10), PortD(10), PortB(10), 
  pQuad           1   49[BANK0 ] enum E7714
  pDrive          1   50[BANK0 ] enum E7410
 Auto vars:     Size  Location     Type
  Output          1   53[BANK0 ] enum E7416
  Pair2           1   52[BANK0 ] enum E7698
  Pair1           1   51[BANK0 ] enum E7698
 Return value:  Size  Location     Type
                  1    wreg      enum E7416
 Registers used:
		wreg, fsr0l, fsr0h, fsr2l, fsr2h, status,2, status,0, tblptrl, tblptrh, tblptru, prodl, prodh, cstack
 Tracked objects:
		On entry : 
		On exit  : 
		Unchanged: 
 Data sizes:     COMRAM   BANK0   BANK1   BANK2   BANK3   BANK4   BANK5   BANK6   BANK7   BANK8   BANK9  BANK10  BANK11  BANK12  BANK13  BANK14  BANK15
      Params:         0       4       0       0       0       0       0       0       0       0       0       0       0       0       0       0       0
      Locals:         0       3       0       0       0       0       0       0       0       0       0       0       0       0       0       0       0
      Temps:          0       0       0       0       0       0       0       0       0       0       0       0       0       0       0       0       0
      Totals:         0       7       0       0       0       0       0       0       0       0       0       0       0       0       0       0       0
Total ram usage:        7 bytes
 Hardware stack levels used:    1
 Hardware stack levels required when called:   19
 This function calls:
		_Port_CheckPairType
 This function is called by:
		_Port_CheckPortType
		_Port_SetQuadType
 This function uses a non-reentrant model


 *************** function _Port_CheckPairType *****************
 Defined at:
		line 112 in file "Library/Port.c"
 Parameters:    Size  Location     Type
  pInput          2   38[BANK0 ] const PTR struct Port
		 -> PortG(10), PortA(10), PortC(10), PortF(10), 
		 -> PortE(10), PortD(10), PortB(10), 
  pPair           1   40[BANK0 ] enum E7698
  pDrive          1   41[BANK0 ] enum E7410
 Auto vars:     Size  Location     Type
  Props           2   45[BANK0 ] PTR struct PortProperty
		 -> PortG(10), PortA(10), PortG_Property(2), PortF_Property(2), 
		 -> PortE_Property(2), PortD_Property(2), PortC_Property(2), PortB_Property(2), 
		 -> PortA_Property(2), PortC(10), PortF(10), PortE(10), 
		 -> PortD(10), PortB(10), NULL(0), 
  Output          1   44[BANK0 ] enum E7416
  Pin2            1   43[BANK0 ] enum E7688
  Pin1            1   42[BANK0 ] enum E7688
 Return value:  Size  Location     Type
                  1    wreg      enum E7416
 Registers used:
		wreg, fsr0l, fsr0h, fsr2l, fsr2h, status,2, status,0, tblptrl, tblptrh, tblptru, prodl, prodh, cstack
 Tracked objects:
		On entry : 
		On exit  : 
		Unchanged: 
 Data sizes:     COMRAM   BANK0   BANK1   BANK2   BANK3   BANK4   BANK5   BANK6   BANK7   BANK8   BANK9  BANK10  BANK11  BANK12  BANK13  BANK14  BANK15
      Params:         0       4       0       0       0       0       0       0       0       0       0       0       0       0       0       0       0
      Locals:         0       5       0       0       0       0       0       0       0       0       0       0       0       0       0       0       0
      Temps:          0       0       0       0       0       0       0       0       0       0       0       0       0       0       0       0       0
      Totals:         0       9       0       0       0       0       0       0       0       0       0       0       0       0       0       0       0
Total ram usage:        9 bytes
 Hardware stack levels used:    1
 Hardware stack levels required when called:   18
 This function calls:
		_PortProperty_Valid
 This function is called by:
		_Port_CheckQuadType
		_Port_SetPairType
 This function uses a non-reentrant model


 *************** function _Byte_SetQuad *****************
 Defined at:
		line 101 in file "Library/Types.c"
 Parameters:    Size  Location     Type
  pInput          2   11[BANK0 ] PTR struct Byte
		 -> SSP2CON1(1), SSP1CON1(1), TRISG(1), TRISF(1), 
		 -> TRISE(1), TRISD(1), TRISC(1), TRISB(1), 
		 -> TRISA(1), PORTG(1), PORTF(1), PORTE(1), 
		 -> PORTD(1), PORTC(1), PORTB(1), PORTA(1), 
		 -> NULL(0), 
  pQuad           1   13[BANK0 ] unsigned char 
  pValue          1   14[BANK0 ] unsigned char 
 Auto vars:     Size  Location     Type
		None
 Return value:  Size  Location     Type
                  1    wreg      void 
 Registers used:
		wreg, fsr2l, fsr2h, status,2, status,0, tblptrl, tblptrh, tblptru, prodl, prodh, cstack
 Tracked objects:
		On entry : 
		On exit  : 
		Unchanged: 
 Data sizes:     COMRAM   BANK0   BANK1   BANK2   BANK3   BANK4   BANK5   BANK6   BANK7   BANK8   BANK9  BANK10  BANK11  BANK12  BANK13  BANK14  BANK15
      Params:         0       4       0       0       0       0       0       0       0       0       0       0       0       0       0       0       0
      Locals:         0       0       0       0       0       0       0       0       0       0       0       0       0       0       0       0       0
      Temps:          0       0       0       0       0       0       0       0       0       0       0       0       0       0       0       0       0
      Totals:         0       4       0       0       0       0       0       0       0       0       0       0       0       0       0       0       0
Total ram usage:        4 bytes
 Hardware stack levels used:    1
 Hardware stack levels required when called:   15
 This function calls:
		_Byte_SetZone
 This function is called by:
		_Port_SetQuadType
		_SPI_Init
		_SPI_MinSpeed
		_SPI_MaxSpeed
		_Port_SetQuad
		_Word_SetQuad
		_I2C_Init
 This function uses a non-reentrant model


 *************** function _Port_SetPinType *****************
 Defined at:
		line 189 in file "Library/Port.c"
 Parameters:    Size  Location     Type
  pInput          2   38[BANK0 ] const PTR struct Port
		 -> PortG(10), PortA(10), PortC(10), PortF(10), 
		 -> PortE(10), PortD(10), PortB(10), 
  pPin            1   40[BANK0 ] enum E7688
  pType           1   41[BANK0 ] enum E7733
 Auto vars:     Size  Location     Type
  Props           2   43[BANK0 ] PTR struct PortProperty
		 -> PortG_Property(2), PortF_Property(2), PortE_Property(2), PortD_Property(2), 
		 -> PortC_Property(2), PortB_Property(2), PortA_Property(2), NULL(0), 
  Output          1   42[BANK0 ] enum E7416
 Return value:  Size  Location     Type
                  1    wreg      enum E7416
 Registers used:
		wreg, fsr0l, fsr0h, fsr2l, fsr2h, status,2, status,0, tblptrl, tblptrh, tblptru, prodl, prodh, cstack
 Tracked objects:
		On entry : 
		On exit  : 
		Unchanged: 
 Data sizes:     COMRAM   BANK0   BANK1   BANK2   BANK3   BANK4   BANK5   BANK6   BANK7   BANK8   BANK9  BANK10  BANK11  BANK12  BANK13  BANK14  BANK15
      Params:         0       4       0       0       0       0       0       0       0       0       0       0       0       0       0       0       0
      Locals:         0       3       0       0       0       0       0       0       0       0       0       0       0       0       0       0       0
      Temps:          0       0       0       0       0       0       0       0       0       0       0       0       0       0       0       0       0
      Totals:         0       7       0       0       0       0       0       0       0       0       0       0       0       0       0       0       0
Total ram usage:        7 bytes
 Hardware stack levels used:    1
 Hardware stack levels required when called:   18
 This function calls:
		_Byte_SetBit
		_PortProperty_Valid
		_Word_SetPair
 This function is called by:
		_Button_Init
		_Configure_GPIOs
		_LED_Init
		_Port_Init
		_SPI_Init
		_Motor_Init
		_MXK_Init
		_I2C_Init
 This function uses a non-reentrant model


 *************** function _Word_SetPair *****************
 Defined at:
		line 149 in file "Library/Types.c"
 Parameters:    Size  Location     Type
  pInput          2   15[BANK0 ] PTR struct Word
		 -> PortG(10), PortA(10), PortC(10), PortF(10), 
		 -> PortE(10), PortD(10), PortB(10), 
  pPair           1   17[BANK0 ] unsigned char 
  pValue          1   18[BANK0 ] unsigned char 
 Auto vars:     Size  Location     Type
		None
 Return value:  Size  Location     Type
                  1    wreg      void 
 Registers used:
		wreg, fsr2l, fsr2h, status,2, status,0, tblptrl, tblptrh, tblptru, prodl, prodh, cstack
 Tracked objects:
		On entry : 
		On exit  : 
		Unchanged: 
 Data sizes:     COMRAM   BANK0   BANK1   BANK2   BANK3   BANK4   BANK5   BANK6   BANK7   BANK8   BANK9  BANK10  BANK11  BANK12  BANK13  BANK14  BANK15
      Params:         0       4       0       0       0       0       0       0       0       0       0       0       0       0       0       0       0
      Locals:         0       0       0       0       0       0       0       0       0       0       0       0       0       0       0       0       0
      Temps:          0       0       0       0       0       0       0       0       0       0       0       0       0       0       0       0       0
      Totals:         0       4       0       0       0       0       0       0       0       0       0       0       0       0       0       0       0
Total ram usage:        4 bytes
 Hardware stack levels used:    1
 Hardware stack levels required when called:   16
 This function calls:
		_Byte_SetPair
 This function is called by:
		_Port_SetPinType
		_Port_SetQuadType
		_Port_SetType
		_Port_SetPairType
		_PortProperty_Init
 This function uses a non-reentrant model


 *************** function _Byte_SetPair *****************
 Defined at:
		line 83 in file "Library/Types.c"
 Parameters:    Size  Location     Type
  pInput          2   11[BANK0 ] PTR struct Byte
		 -> PortB..(2), PortD..(2), PortE..(2), PortF..(2), 
		 -> PortC..(2), PortA..(2), PortG..(2), PortG(10), 
		 -> PortA(10), TRISG(1), TRISF(1), TRISE(1), 
		 -> TRISD(1), TRISC(1), TRISB(1), TRISA(1), 
		 -> PORTG(1), PORTF(1), PORTE(1), PORTD(1), 
		 -> PORTC(1), PORTB(1), PORTA(1), PortC(10), 
		 -> PortF(10), PortE(10), PortD(10), PortB(10), 
		 -> NULL(0), 
  pPair           1   13[BANK0 ] unsigned char 
  pValue          1   14[BANK0 ] unsigned char 
 Auto vars:     Size  Location     Type
		None
 Return value:  Size  Location     Type
                  1    wreg      void 
 Registers used:
		wreg, fsr2l, fsr2h, status,2, status,0, tblptrl, tblptrh, tblptru, prodl, prodh, cstack
 Tracked objects:
		On entry : 
		On exit  : 
		Unchanged: 
 Data sizes:     COMRAM   BANK0   BANK1   BANK2   BANK3   BANK4   BANK5   BANK6   BANK7   BANK8   BANK9  BANK10  BANK11  BANK12  BANK13  BANK14  BANK15
      Params:         0       4       0       0       0       0       0       0       0       0       0       0       0       0       0       0       0
      Locals:         0       0       0       0       0       0       0       0       0       0       0       0       0       0       0       0       0
      Temps:          0       0       0       0       0       0       0       0       0       0       0       0       0       0       0       0       0
      Totals:         0       4       0       0       0       0       0       0       0       0       0       0       0       0       0       0       0
Total ram usage:        4 bytes
 Hardware stack levels used:    1
 Hardware stack levels required when called:   15
 This function calls:
		_Byte_SetZone
 This function is called by:
		_Word_SetPair
		_Port_SetPairType
		_Port_SetPair
 This function uses a non-reentrant model


 *************** function _Byte_SetZone *****************
 Defined at:
		line 47 in file "Library/Types.c"
 Parameters:    Size  Location     Type
  pInput          2    0[BANK0 ] PTR struct Byte
		 -> PortB..(2), PortD..(2), PortE..(2), PortF..(2), 
		 -> PortC..(2), PortA..(2), PortG..(2), PortG(10), 
		 -> PortA(10), SSP2CON1(1), SSP1CON1(1), TRISG(1), 
		 -> TRISF(1), TRISE(1), TRISD(1), TRISC(1), 
		 -> TRISB(1), TRISA(1), PORTG(1), PORTF(1), 
		 -> PORTE(1), PORTD(1), PORTC(1), PORTB(1), 
		 -> PORTA(1), PortC(10), PortF(10), PortE(10), 
		 -> PortD(10), PortB(10), NULL(0), 
  pMax            1    2[BANK0 ] unsigned char 
  pChunk          1    3[BANK0 ] unsigned char 
  pChunkSize      1    4[BANK0 ] unsigned char 
  pValue          1    5[BANK0 ] unsigned char 
 Auto vars:     Size  Location     Type
  MASK            1   10[BANK0 ] unsigned char 
  Offset          1    9[BANK0 ] unsigned char 
 Return value:  Size  Location     Type
                  1    wreg      void 
 Registers used:
		wreg, fsr2l, fsr2h, status,2, status,0, tblptrl, tblptrh, tblptru, prodl, prodh
 Tracked objects:
		On entry : 
		On exit  : 
		Unchanged: 
 Data sizes:     COMRAM   BANK0   BANK1   BANK2   BANK3   BANK4   BANK5   BANK6   BANK7   BANK8   BANK9  BANK10  BANK11  BANK12  BANK13  BANK14  BANK15
      Params:         0       6       0       0       0       0       0       0       0       0       0       0       0       0       0       0       0
      Locals:         0       2       0       0       0       0       0       0       0       0       0       0       0       0       0       0       0
      Temps:          0       3       0       0       0       0       0       0       0       0       0       0       0       0       0       0       0
      Totals:         0      11       0       0       0       0       0       0       0       0       0       0       0       0       0       0       0
Total ram usage:       11 bytes
 Hardware stack levels used:    1
 Hardware stack levels required when called:   14
 This function calls:
		Nothing
 This function is called by:
		_Byte_SetPair
		_Byte_SetQuad
		_Byte_SetTriple
 This function uses a non-reentrant model


 *************** function _PortProperty_Valid *****************
 Defined at:
		line 220 in file "Library/Types.c"
 Parameters:    Size  Location     Type
  pInput          2   15[BANK0 ] PTR struct PortProperty
		 -> PortG(10), PortA(10), PortG_Property(2), PortF_Property(2), 
		 -> PortE_Property(2), PortD_Property(2), PortC_Property(2), PortB_Property(2), 
		 -> PortA_Property(2), PortC(10), PortF(10), PortE(10), 
		 -> PortD(10), PortB(10), NULL(0), 
  pPinDrive       1   17[BANK0 ] enum E7410
  pPin            1   18[BANK0 ] unsigned char 
 Auto vars:     Size  Location     Type
  Errors         16   21[BANK0 ] const enum E7416[4][4]
  Pair            1   37[BANK0 ] enum E7410
 Return value:  Size  Location     Type
                  1    wreg      enum E7416
 Registers used:
		wreg, fsr0l, fsr0h, fsr2l, fsr2h, status,2, status,0, tblptrl, tblptrh, tblptru, prodl, prodh, cstack
 Tracked objects:
		On entry : 
		On exit  : 
		Unchanged: 
 Data sizes:     COMRAM   BANK0   BANK1   BANK2   BANK3   BANK4   BANK5   BANK6   BANK7   BANK8   BANK9  BANK10  BANK11  BANK12  BANK13  BANK14  BANK15
      Params:         0       4       0       0       0       0       0       0       0       0       0       0       0       0       0       0       0
      Locals:         0      17       0       0       0       0       0       0       0       0       0       0       0       0       0       0       0
      Temps:          0       2       0       0       0       0       0       0       0       0       0       0       0       0       0       0       0
      Totals:         0      23       0       0       0       0       0       0       0       0       0       0       0       0       0       0       0
Total ram usage:       23 bytes
 Hardware stack levels used:    1
 Hardware stack levels required when called:   17
 This function calls:
		_Word_GetPair
 This function is called by:
		_Port_CheckPairType
		_Port_SetPinType
 This function uses a non-reentrant model


 *************** function _FunctHMI *****************
 Defined at:
		line 212 in file "Functions.c"
 Parameters:    Size  Location     Type
		None
 Auto vars:     Size  Location     Type
		None
 Return value:  Size  Location     Type
                  1    wreg      void 
 Registers used:
		wreg, fsr0l, fsr0h, fsr1l, fsr1h, fsr2l, fsr2h, status,2, status,0, pclat, tosl, tblptrl, tblptrh, tblptru, prodl, prodh, cstack
 Tracked objects:
		On entry : 
		On exit  : 
		Unchanged: 
 Data sizes:     COMRAM   BANK0   BANK1   BANK2   BANK3   BANK4   BANK5   BANK6   BANK7   BANK8   BANK9  BANK10  BANK11  BANK12  BANK13  BANK14  BANK15
      Params:         0       0       0       0       0       0       0       0       0       0       0       0       0       0       0       0       0
      Locals:         0       0       0       0       0       0       0       0       0       0       0       0       0       0       0       0       0
      Temps:          0       0       0       0       0       0       0       0       0       0       0       0       0       0       0       0       0
      Totals:         0       0       0       0       0       0       0       0       0       0       0       0       0       0       0       0       0
Total ram usage:        0 bytes
 Hardware stack levels used:    1
 Hardware stack levels required when called:   23
 This function calls:
		_Console_Render
		_HMI_Poll
		_HMI_Render
		_MXK_BlockSwitchTo
		_MXK_Release
 This function is called by:
		_main
 This function uses a non-reentrant model


 *************** function _MXK_Release *****************
 Defined at:
		line 100 in file "MXK.c"
 Parameters:    Size  Location     Type
		None
 Auto vars:     Size  Location     Type
		None
 Return value:  Size  Location     Type
                  1    wreg      void 
 Registers used:
		wreg, status,2
 Tracked objects:
		On entry : 
		On exit  : 
		Unchanged: 
 Data sizes:     COMRAM   BANK0   BANK1   BANK2   BANK3   BANK4   BANK5   BANK6   BANK7   BANK8   BANK9  BANK10  BANK11  BANK12  BANK13  BANK14  BANK15
      Params:         0       0       0       0       0       0       0       0       0       0       0       0       0       0       0       0       0
      Locals:         0       0       0       0       0       0       0       0       0       0       0       0       0       0       0       0       0
      Temps:          0       0       0       0       0       0       0       0       0       0       0       0       0       0       0       0       0
      Totals:         0       0       0       0       0       0       0       0       0       0       0       0       0       0       0       0       0
Total ram usage:        0 bytes
 Hardware stack levels used:    1
 Hardware stack levels required when called:   14
 This function calls:
		Nothing
 This function is called by:
		_FunctInitMotor
		_FunctInitLCD
		_FunctInitHMI
		_FunctMotor
		_FunctHMI
		_FunctInitIMU
 This function uses a non-reentrant model


 *************** function _MXK_BlockSwitchTo *****************
 Defined at:
		line 53 in file "MXK.c"
 Parameters:    Size  Location     Type
  pModule         1    wreg     enum E7818
 Auto vars:     Size  Location     Type
  pModule         1    7[BANK0 ] enum E7818
  CUR             1    6[BANK0 ] unsigned char 
 Return value:  Size  Location     Type
                  1    wreg      unsigned char 
 Registers used:
		wreg, status,2, status,0, cstack
 Tracked objects:
		On entry : 
		On exit  : 
		Unchanged: 
 Data sizes:     COMRAM   BANK0   BANK1   BANK2   BANK3   BANK4   BANK5   BANK6   BANK7   BANK8   BANK9  BANK10  BANK11  BANK12  BANK13  BANK14  BANK15
      Params:         0       0       0       0       0       0       0       0       0       0       0       0       0       0       0       0       0
      Locals:         0       2       0       0       0       0       0       0       0       0       0       0       0       0       0       0       0
      Temps:          0       0       0       0       0       0       0       0       0       0       0       0       0       0       0       0       0
      Totals:         0       2       0       0       0       0       0       0       0       0       0       0       0       0       0       0       0
Total ram usage:        2 bytes
 Hardware stack levels used:    1
 Hardware stack levels required when called:   15
 This function calls:
		_delay_us
 This function is called by:
		_FunctInitMotor
		_FunctInitLCD
		_FunctInitHMI
		_FunctMotor
		_FunctHMI
		_FunctInitIMU
 This function uses a non-reentrant model


 *************** function _delay_us *****************
 Defined at:
		line 255 in file "Library/Types.c"
 Parameters:    Size  Location     Type
  us              2    0[BANK0 ] unsigned short 
 Auto vars:     Size  Location     Type
  u               4    2[BANK0 ] unsigned long 
 Return value:  Size  Location     Type
                  1    wreg      void 
 Registers used:
		wreg, status,2, status,0
 Tracked objects:
		On entry : 
		On exit  : 
		Unchanged: 
 Data sizes:     COMRAM   BANK0   BANK1   BANK2   BANK3   BANK4   BANK5   BANK6   BANK7   BANK8   BANK9  BANK10  BANK11  BANK12  BANK13  BANK14  BANK15
      Params:         0       2       0       0       0       0       0       0       0       0       0       0       0       0       0       0       0
      Locals:         0       4       0       0       0       0       0       0       0       0       0       0       0       0       0       0       0
      Temps:          0       0       0       0       0       0       0       0       0       0       0       0       0       0       0       0       0
      Totals:         0       6       0       0       0       0       0       0       0       0       0       0       0       0       0       0       0
Total ram usage:        6 bytes
 Hardware stack levels used:    1
 Hardware stack levels required when called:   14
 This function calls:
		Nothing
 This function is called by:
		_MXK_BlockSwitchTo
		_MXK_SwitchTo
 This function uses a non-reentrant model


 *************** function _HMI_Render *****************
 Defined at:
		line 97 in file "HMI.c"
 Parameters:    Size  Location     Type
		None
 Auto vars:     Size  Location     Type
  a               2    8[BANK0 ] unsigned short 
 Return value:  Size  Location     Type
                  1    wreg      void 
 Registers used:
		wreg, fsr2l, fsr2h, status,2, status,0, cstack
 Tracked objects:
		On entry : 
		On exit  : 
		Unchanged: 
 Data sizes:     COMRAM   BANK0   BANK1   BANK2   BANK3   BANK4   BANK5   BANK6   BANK7   BANK8   BANK9  BANK10  BANK11  BANK12  BANK13  BANK14  BANK15
      Params:         0       0       0       0       0       0       0       0       0       0       0       0       0       0       0       0       0
      Locals:         0       2       0       0       0       0       0       0       0       0       0       0       0       0       0       0       0
      Temps:          0       0       0       0       0       0       0       0       0       0       0       0       0       0       0       0       0
      Totals:         0       2       0       0       0       0       0       0       0       0       0       0       0       0       0       0       0
Total ram usage:        2 bytes
 Hardware stack levels used:    1
 Hardware stack levels required when called:   16
 This function calls:
		_OutSeg
 This function is called by:
		_FunctHMI
 This function uses a non-reentrant model


 *************** function _OutSeg *****************
 Defined at:
		line 23 in file "HMI.c"
 Parameters:    Size  Location     Type
  pInput          1    wreg     unsigned char 
  pSegment        1    3[BANK0 ] unsigned char 
 Auto vars:     Size  Location     Type
  pInput          1    6[BANK0 ] unsigned char 
  out             1    7[BANK0 ] volatile unsigned char 
 Return value:  Size  Location     Type
                  1    wreg      void 
 Registers used:
		wreg, fsr2l, fsr2h, status,2, status,0, cstack
 Tracked objects:
		On entry : 
		On exit  : 
		Unchanged: 
 Data sizes:     COMRAM   BANK0   BANK1   BANK2   BANK3   BANK4   BANK5   BANK6   BANK7   BANK8   BANK9  BANK10  BANK11  BANK12  BANK13  BANK14  BANK15
      Params:         0       1       0       0       0       0       0       0       0       0       0       0       0       0       0       0       0
      Locals:         0       2       0       0       0       0       0       0       0       0       0       0       0       0       0       0       0
      Temps:          0       2       0       0       0       0       0       0       0       0       0       0       0       0       0       0       0
      Totals:         0       5       0       0       0       0       0       0       0       0       0       0       0       0       0       0       0
Total ram usage:        5 bytes
 Hardware stack levels used:    1
 Hardware stack levels required when called:   15
 This function calls:
		_SPI_Send
 This function is called by:
		_HMI_Render
		_HMI_GRender
 This function uses a non-reentrant model


 *************** function _SPI_Send *****************
 Defined at:
		line 213 in file "Library/SPI.c"
 Parameters:    Size  Location     Type
  pInput          2    0[BANK0 ] const PTR struct SPI
		 -> SPI1(11), 
  pData           1    2[BANK0 ] unsigned char 
 Auto vars:     Size  Location     Type
		None
 Return value:  Size  Location     Type
                  1    wreg      unsigned char 
 Registers used:
		wreg, fsr2l, fsr2h, status,2, status,0
 Tracked objects:
		On entry : 
		On exit  : 
		Unchanged: 
 Data sizes:     COMRAM   BANK0   BANK1   BANK2   BANK3   BANK4   BANK5   BANK6   BANK7   BANK8   BANK9  BANK10  BANK11  BANK12  BANK13  BANK14  BANK15
      Params:         0       3       0       0       0       0       0       0       0       0       0       0       0       0       0       0       0
      Locals:         0       0       0       0       0       0       0       0       0       0       0       0       0       0       0       0       0
      Temps:          0       0       0       0       0       0       0       0       0       0       0       0       0       0       0       0       0
      Totals:         0       3       0       0       0       0       0       0       0       0       0       0       0       0       0       0       0
Total ram usage:        3 bytes
 Hardware stack levels used:    1
 Hardware stack levels required when called:   14
 This function calls:
		Nothing
 This function is called by:
		_OutSeg
 This function uses a non-reentrant model


 *************** function _HMI_Poll *****************
 Defined at:
		line 211 in file "HMI.c"
 Parameters:    Size  Location     Type
		None
 Auto vars:     Size  Location     Type
		None
 Return value:  Size  Location     Type
                  1    wreg      void 
 Registers used:
		wreg, fsr0l, fsr0h, fsr1l, fsr1h, fsr2l, fsr2h, status,2, status,0, pclat, tosl, tblptrl, tblptrh, tblptru, prodl, prodh, cstack
 Tracked objects:
		On entry : 
		On exit  : 
		Unchanged: 
 Data sizes:     COMRAM   BANK0   BANK1   BANK2   BANK3   BANK4   BANK5   BANK6   BANK7   BANK8   BANK9  BANK10  BANK11  BANK12  BANK13  BANK14  BANK15
      Params:         0       0       0       0       0       0       0       0       0       0       0       0       0       0       0       0       0
      Locals:         0       0       0       0       0       0       0       0       0       0       0       0       0       0       0       0       0
      Temps:          0       0       0       0       0       0       0       0       0       0       0       0       0       0       0       0       0
      Totals:         0       0       0       0       0       0       0       0       0       0       0       0       0       0       0       0       0
Total ram usage:        0 bytes
 Hardware stack levels used:    1
 Hardware stack levels required when called:   22
 This function calls:
		_Button_Poll
 This function is called by:
		_FunctHMI
 This function uses a non-reentrant model


 *************** function _Console_Render *****************
 Defined at:
		line 362 in file "Library/Console.c"
 Parameters:    Size  Location     Type
		None
 Auto vars:     Size  Location     Type
  lCursor         4   38[BANK0 ] struct Point
  y               1   43[BANK0 ] unsigned char 
  x               1   42[BANK0 ] unsigned char 
  temp            1   37[BANK0 ] unsigned char 
 Return value:  Size  Location     Type
                  1    wreg      void 
 Registers used:
		wreg, fsr2l, fsr2h, status,2, status,0, tblptrl, tblptrh, tblptru, prodl, prodh, cstack
 Tracked objects:
		On entry : 
		On exit  : 
		Unchanged: 
 Data sizes:     COMRAM   BANK0   BANK1   BANK2   BANK3   BANK4   BANK5   BANK6   BANK7   BANK8   BANK9  BANK10  BANK11  BANK12  BANK13  BANK14  BANK15
      Params:         0       0       0       0       0       0       0       0       0       0       0       0       0       0       0       0       0
      Locals:         0       7       0       0       0       0       0       0       0       0       0       0       0       0       0       0       0
      Temps:          0       2       0       0       0       0       0       0       0       0       0       0       0       0       0       0       0
      Totals:         0       9       0       0       0       0       0       0       0       0       0       0       0       0       0       0       0
Total ram usage:        9 bytes
 Hardware stack levels used:    1
 Hardware stack levels required when called:   18
 This function calls:
		_Console_MakeField
		_LCD_DrawField
		_LCD_FillRectangle
 This function is called by:
		_FunctHMI
 This function uses a non-reentrant model


 *************** function _LCD_FillRectangle *****************
 Defined at:
		line 280 in file "Library/LCD.c"
 Parameters:    Size  Location     Type
  pColour         2   14[BANK0 ] unsigned short 
  pPoint          4   16[BANK0 ] struct Point
  pSize           4   20[BANK0 ] struct Point
 Auto vars:     Size  Location     Type
  j               1   27[BANK0 ] unsigned char 
  i               1   26[BANK0 ] unsigned char 
 Return value:  Size  Location     Type
                  1    wreg      void 
 Registers used:
		wreg, fsr2l, fsr2h, status,2, status,0, cstack
 Tracked objects:
		On entry : 
		On exit  : 
		Unchanged: 
 Data sizes:     COMRAM   BANK0   BANK1   BANK2   BANK3   BANK4   BANK5   BANK6   BANK7   BANK8   BANK9  BANK10  BANK11  BANK12  BANK13  BANK14  BANK15
      Params:         0      10       0       0       0       0       0       0       0       0       0       0       0       0       0       0       0
      Locals:         0       2       0       0       0       0       0       0       0       0       0       0       0       0       0       0       0
      Temps:          0       2       0       0       0       0       0       0       0       0       0       0       0       0       0       0       0
      Totals:         0      14       0       0       0       0       0       0       0       0       0       0       0       0       0       0       0
Total ram usage:       14 bytes
 Hardware stack levels used:    1
 Hardware stack levels required when called:   17
 This function calls:
		_LCD_Word_Write
		_Set_Addr_Window
 This function is called by:
		_Console_Render
		_Console_ClearLine
		_TetrisFieldDraw
 This function uses a non-reentrant model


 *************** function _LCD_DrawField *****************
 Defined at:
		line 355 in file "Library/LCD.c"
 Parameters:    Size  Location     Type
  pField          2   18[BANK0 ] PTR unsigned short 
		 -> Console_MakeField@Fill(70), 
  pPoint          4   20[BANK0 ] struct Point
  pSize           4   24[BANK0 ] struct Point
 Auto vars:     Size  Location     Type
  count           2   30[BANK0 ] unsigned short 
  i               1   34[BANK0 ] unsigned char 
  ymax            1   33[BANK0 ] unsigned char 
  xmax            1   32[BANK0 ] unsigned char 
 Return value:  Size  Location     Type
                  1    wreg      void 
 Registers used:
		wreg, fsr2l, fsr2h, status,2, status,0, prodl, prodh, cstack
 Tracked objects:
		On entry : 
		On exit  : 
		Unchanged: 
 Data sizes:     COMRAM   BANK0   BANK1   BANK2   BANK3   BANK4   BANK5   BANK6   BANK7   BANK8   BANK9  BANK10  BANK11  BANK12  BANK13  BANK14  BANK15
      Params:         0      10       0       0       0       0       0       0       0       0       0       0       0       0       0       0       0
      Locals:         0       5       0       0       0       0       0       0       0       0       0       0       0       0       0       0       0
      Temps:          0       2       0       0       0       0       0       0       0       0       0       0       0       0       0       0       0
      Totals:         0      17       0       0       0       0       0       0       0       0       0       0       0       0       0       0       0
Total ram usage:       17 bytes
 Hardware stack levels used:    1
 Hardware stack levels required when called:   17
 This function calls:
		_LCD_Word_Write
		_Set_Addr_Window
		___wmul
 This function is called by:
		_Console_Render
 This function uses a non-reentrant model


 *************** function ___wmul *****************
 Defined at:
		line 15 in file "C:\Program Files (x86)\Microchip\xc8\v1.38\sources\common\Umul16.c"
 Parameters:    Size  Location     Type
  multiplier      2    0[BANK0 ] unsigned int 
  multiplicand    2    2[BANK0 ] unsigned int 
 Auto vars:     Size  Location     Type
  product         2    4[BANK0 ] unsigned int 
 Return value:  Size  Location     Type
                  2    0[BANK0 ] unsigned int 
 Registers used:
		wreg, status,2, status,0, prodl, prodh
 Tracked objects:
		On entry : 
		On exit  : 
		Unchanged: 
 Data sizes:     COMRAM   BANK0   BANK1   BANK2   BANK3   BANK4   BANK5   BANK6   BANK7   BANK8   BANK9  BANK10  BANK11  BANK12  BANK13  BANK14  BANK15
      Params:         0       4       0       0       0       0       0       0       0       0       0       0       0       0       0       0       0
      Locals:         0       2       0       0       0       0       0       0       0       0       0       0       0       0       0       0       0
      Temps:          0       0       0       0       0       0       0       0       0       0       0       0       0       0       0       0       0
      Totals:         0       6       0       0       0       0       0       0       0       0       0       0       0       0       0       0       0
Total ram usage:        6 bytes
 Hardware stack levels used:    1
 Hardware stack levels required when called:   14
 This function calls:
		Nothing
 This function is called by:
		_LCD_DrawField
		_FunctMotor
		_TetrisBlockFrame
 This function uses a non-reentrant model


 *************** function _Set_Addr_Window *****************
 Defined at:
		line 176 in file "Library/LCD.c"
 Parameters:    Size  Location     Type
  xs              1    wreg     unsigned char 
  ys              1   10[BANK0 ] unsigned char 
  xe              1   11[BANK0 ] unsigned char 
  ye              1   12[BANK0 ] unsigned char 
 Auto vars:     Size  Location     Type
  xs              1   13[BANK0 ] unsigned char 
 Return value:  Size  Location     Type
                  1    wreg      void 
 Registers used:
		wreg, fsr2l, fsr2h, status,2, status,0, cstack
 Tracked objects:
		On entry : 
		On exit  : 
		Unchanged: 
 Data sizes:     COMRAM   BANK0   BANK1   BANK2   BANK3   BANK4   BANK5   BANK6   BANK7   BANK8   BANK9  BANK10  BANK11  BANK12  BANK13  BANK14  BANK15
      Params:         0       3       0       0       0       0       0       0       0       0       0       0       0       0       0       0       0
      Locals:         0       1       0       0       0       0       0       0       0       0       0       0       0       0       0       0       0
      Temps:          0       0       0       0       0       0       0       0       0       0       0       0       0       0       0       0       0
      Totals:         0       4       0       0       0       0       0       0       0       0       0       0       0       0       0       0       0
Total ram usage:        4 bytes
 Hardware stack levels used:    1
 Hardware stack levels required when called:   16
 This function calls:
		_LCD_Write
 This function is called by:
		_LCD_Fill
		_LCD_FillRectangle
		_LCD_DrawField
		_RAM_Address_Set
		_LCD_DrawPixel
		_BlockDraw
		_BlockClear
 This function uses a non-reentrant model


 *************** function _LCD_Word_Write *****************
 Defined at:
		line 160 in file "Library/LCD.c"
 Parameters:    Size  Location     Type
  value           2   10[BANK0 ] unsigned short 
 Auto vars:     Size  Location     Type
		None
 Return value:  Size  Location     Type
                  1    wreg      void 
 Registers used:
		wreg, fsr2l, fsr2h, status,2, status,0, cstack
 Tracked objects:
		On entry : 
		On exit  : 
		Unchanged: 
 Data sizes:     COMRAM   BANK0   BANK1   BANK2   BANK3   BANK4   BANK5   BANK6   BANK7   BANK8   BANK9  BANK10  BANK11  BANK12  BANK13  BANK14  BANK15
      Params:         0       2       0       0       0       0       0       0       0       0       0       0       0       0       0       0       0
      Locals:         0       0       0       0       0       0       0       0       0       0       0       0       0       0       0       0       0
      Temps:          0       0       0       0       0       0       0       0       0       0       0       0       0       0       0       0       0
      Totals:         0       2       0       0       0       0       0       0       0       0       0       0       0       0       0       0       0
Total ram usage:        2 bytes
 Hardware stack levels used:    1
 Hardware stack levels required when called:   16
 This function calls:
		_LCD_Write
 This function is called by:
		_LCD_Fill
		_LCD_FillRectangle
		_LCD_DrawField
		_LCD_DrawPixel
		_BlockDraw
		_BlockClear
 This function uses a non-reentrant model


 *************** function _LCD_Write *****************
 Defined at:
		line 54 in file "Library/LCD.c"
 Parameters:    Size  Location     Type
  value           1    wreg     unsigned char 
  mode            1    4[BANK0 ] enum E7699
 Auto vars:     Size  Location     Type
  value           1    5[BANK0 ] unsigned char 
  v               2    6[BANK0 ] unsigned short 
 Return value:  Size  Location     Type
                  1    wreg      void 
 Registers used:
		wreg, fsr2l, fsr2h, status,2, status,0, cstack
 Tracked objects:
		On entry : 
		On exit  : 
		Unchanged: 
 Data sizes:     COMRAM   BANK0   BANK1   BANK2   BANK3   BANK4   BANK5   BANK6   BANK7   BANK8   BANK9  BANK10  BANK11  BANK12  BANK13  BANK14  BANK15
      Params:         0       1       0       0       0       0       0       0       0       0       0       0       0       0       0       0       0
      Locals:         0       5       0       0       0       0       0       0       0       0       0       0       0       0       0       0       0
      Temps:          0       0       0       0       0       0       0       0       0       0       0       0       0       0       0       0       0
      Totals:         0       6       0       0       0       0       0       0       0       0       0       0       0       0       0       0       0
Total ram usage:        6 bytes
 Hardware stack levels used:    1
 Hardware stack levels required when called:   15
 This function calls:
		_SPI_Send9
 This function is called by:
		_LCD_Init
		_LCD_Word_Write
		_Set_Addr_Window
		_Set_Rotation
		_LCD_WriteCMD
		_LCD_WriteData
		_LCD_Data_Write
		_LCD_Data_Write_4k
		_Invert_Display
 This function uses a non-reentrant model


 *************** function _SPI_Send9 *****************
 Defined at:
		line 260 in file "Library/SPI.c"
 Parameters:    Size  Location     Type
  pInput          2    0[BANK0 ] const PTR struct SPI
		 -> SPI2(11), 
  pData           2    2[BANK0 ] unsigned short 
 Auto vars:     Size  Location     Type
		None
 Return value:  Size  Location     Type
                  2    0[BANK0 ] unsigned short 
 Registers used:
		wreg, fsr2l, fsr2h, status,2, status,0
 Tracked objects:
		On entry : 
		On exit  : 
		Unchanged: 
 Data sizes:     COMRAM   BANK0   BANK1   BANK2   BANK3   BANK4   BANK5   BANK6   BANK7   BANK8   BANK9  BANK10  BANK11  BANK12  BANK13  BANK14  BANK15
      Params:         0       4       0       0       0       0       0       0       0       0       0       0       0       0       0       0       0
      Locals:         0       0       0       0       0       0       0       0       0       0       0       0       0       0       0       0       0
      Temps:          0       0       0       0       0       0       0       0       0       0       0       0       0       0       0       0       0
      Totals:         0       4       0       0       0       0       0       0       0       0       0       0       0       0       0       0       0
Total ram usage:        4 bytes
 Hardware stack levels used:    1
 Hardware stack levels required when called:   14
 This function calls:
		Nothing
 This function is called by:
		_LCD_Write
 This function uses a non-reentrant model


 *************** function _Console_MakeField *****************
 Defined at:
		line 421 in file "Library/Console.c"
 Parameters:    Size  Location     Type
  pInput          1    wreg     unsigned char 
 Auto vars:     Size  Location     Type
  pInput          1   15[BANK0 ] unsigned char 
  y               1   17[BANK0 ] unsigned char 
  x               1   16[BANK0 ] unsigned char 
  Column          2   11[BANK0 ] PTR struct Byte
		 -> Font5x7(480), 
  Index           2    9[BANK0 ] unsigned short 
 Return value:  Size  Location     Type
                  2    5[BANK0 ] PTR unsigned short 
 Registers used:
		wreg, fsr2l, fsr2h, status,2, status,0, tblptrl, tblptrh, tblptru, prodl, prodh, cstack
 Tracked objects:
		On entry : 
		On exit  : 
		Unchanged: 
 Data sizes:     COMRAM   BANK0   BANK1   BANK2   BANK3   BANK4   BANK5   BANK6   BANK7   BANK8   BANK9  BANK10  BANK11  BANK12  BANK13  BANK14  BANK15
      Params:         0       2       0       0       0       0       0       0       0       0       0       0       0       0       0       0       0
      Locals:         0       9       0       0       0       0       0       0       0       0       0       0       0       0       0       0       0
      Temps:          0       2       0       0       0       0       0       0       0       0       0       0       0       0       0       0       0
      Totals:         0      13       0       0       0       0       0       0       0       0       0       0       0       0       0       0       0
Total ram usage:       13 bytes
 Hardware stack levels used:    1
 Hardware stack levels required when called:   15
 This function calls:
		_Byte_GetBit
 This function is called by:
		_Console_Render
 This function uses a non-reentrant model


 *************** function _Byte_GetBit *****************
 Defined at:
		line 38 in file "Library/Types.c"
 Parameters:    Size  Location     Type
  pInput          2    0[BANK0 ] PTR struct Byte
		 -> Font5x7(480), 
  pBit            1    2[BANK0 ] unsigned char 
 Auto vars:     Size  Location     Type
  Output          1    4[BANK0 ] unsigned char 
 Return value:  Size  Location     Type
                  1    wreg      unsigned char 
 Registers used:
		wreg, status,2, status,0, tblptrl, tblptrh, tblptru
 Tracked objects:
		On entry : 
		On exit  : 
		Unchanged: 
 Data sizes:     COMRAM   BANK0   BANK1   BANK2   BANK3   BANK4   BANK5   BANK6   BANK7   BANK8   BANK9  BANK10  BANK11  BANK12  BANK13  BANK14  BANK15
      Params:         0       3       0       0       0       0       0       0       0       0       0       0       0       0       0       0       0
      Locals:         0       1       0       0       0       0       0       0       0       0       0       0       0       0       0       0       0
      Temps:          0       1       0       0       0       0       0       0       0       0       0       0       0       0       0       0       0
      Totals:         0       5       0       0       0       0       0       0       0       0       0       0       0       0       0       0       0
Total ram usage:        5 bytes
 Hardware stack levels used:    1
 Hardware stack levels required when called:   14
 This function calls:
		Nothing
 This function is called by:
		_Console_MakeField
		_Word_GetBit
 This function uses a non-reentrant model


 *************** function _FunctButton *****************
 Defined at:
		line 171 in file "Functions.c"
 Parameters:    Size  Location     Type
		None
 Auto vars:     Size  Location     Type
		None
 Return value:  Size  Location     Type
                  1    wreg      void 
 Registers used:
		wreg, fsr0l, fsr0h, fsr1l, fsr1h, fsr2l, fsr2h, status,2, status,0, pclat, tosl, tblptrl, tblptrh, tblptru, prodl, prodh, cstack
 Tracked objects:
		On entry : 
		On exit  : 
		Unchanged: 
 Data sizes:     COMRAM   BANK0   BANK1   BANK2   BANK3   BANK4   BANK5   BANK6   BANK7   BANK8   BANK9  BANK10  BANK11  BANK12  BANK13  BANK14  BANK15
      Params:         0       0       0       0       0       0       0       0       0       0       0       0       0       0       0       0       0
      Locals:         0       0       0       0       0       0       0       0       0       0       0       0       0       0       0       0       0
      Temps:          0       0       0       0       0       0       0       0       0       0       0       0       0       0       0       0       0
      Totals:         0       0       0       0       0       0       0       0       0       0       0       0       0       0       0       0       0
Total ram usage:        0 bytes
 Hardware stack levels used:    1
 Hardware stack levels required when called:   22
 This function calls:
		_Button_Poll
 This function is called by:
		_main
 This function uses a non-reentrant model


 *************** function _Button_Poll *****************
 Defined at:
		line 78 in file "Library/Button.c"
 Parameters:    Size  Location     Type
  pButton         2   27[BANK0 ] const PTR struct Button
		 -> DIPSwitch(8), TestButton(8), HMIBoard(48), 
  pIncrement      1   29[BANK0 ] unsigned char 
 Auto vars:     Size  Location     Type
  Pin             1   35[BANK0 ] unsigned char 
 Return value:  Size  Location     Type
                  1    wreg      unsigned char 
 Registers used:
		wreg, fsr0l, fsr0h, fsr1l, fsr1h, fsr2l, fsr2h, status,2, status,0, pclat, tosl, tblptrl, tblptrh, tblptru, prodl, prodh, cstack
 Tracked objects:
		On entry : 
		On exit  : 
		Unchanged: 
 Data sizes:     COMRAM   BANK0   BANK1   BANK2   BANK3   BANK4   BANK5   BANK6   BANK7   BANK8   BANK9  BANK10  BANK11  BANK12  BANK13  BANK14  BANK15
      Params:         0       3       0       0       0       0       0       0       0       0       0       0       0       0       0       0       0
      Locals:         0       1       0       0       0       0       0       0       0       0       0       0       0       0       0       0       0
      Temps:          0       5       0       0       0       0       0       0       0       0       0       0       0       0       0       0       0
      Totals:         0       9       0       0       0       0       0       0       0       0       0       0       0       0       0       0       0
Total ram usage:        9 bytes
 Hardware stack levels used:    1
 Hardware stack levels required when called:   21
 This function calls:
		_Button_State
		_Event_DIPSwitch
		_Event_HMI_DIPSwitch
		_Event_HMI_DownButton
		_Event_HMI_LeftButton
		_Event_HMI_RightButton
		_Event_HMI_UpButton
		_Event_TestButton
 This function is called by:
		_HMI_Poll
		_FunctButton
 This function uses a non-reentrant model


 *************** function _Event_DIPSwitch *****************
 Defined at:
		line 43 in file "Events.c"
 Parameters:    Size  Location     Type
  pState          1    wreg     unsigned char 
 Auto vars:     Size  Location     Type
  pState          1   25[BANK0 ] unsigned char 
  Bar             1   26[BANK0 ] unsigned char 
 Return value:  Size  Location     Type
                  1    wreg      void 
 Registers used:
		wreg, fsr0l, fsr0h, fsr2l, fsr2h, status,2, status,0, tblptrl, tblptrh, tblptru, prodl, prodh, cstack
 Tracked objects:
		On entry : 
		On exit  : 
		Unchanged: 
 Data sizes:     COMRAM   BANK0   BANK1   BANK2   BANK3   BANK4   BANK5   BANK6   BANK7   BANK8   BANK9  BANK10  BANK11  BANK12  BANK13  BANK14  BANK15
      Params:         0       0       0       0       0       0       0       0       0       0       0       0       0       0       0       0       0
      Locals:         0       2       0       0       0       0       0       0       0       0       0       0       0       0       0       0       0
      Temps:          0       0       0       0       0       0       0       0       0       0       0       0       0       0       0       0       0
      Totals:         0       2       0       0       0       0       0       0       0       0       0       0       0       0       0       0       0
Total ram usage:        2 bytes
 Hardware stack levels used:    1
 Hardware stack levels required when called:   20
 This function calls:
		_HMI_GetBar
		_HMI_SetBar
		_LED_Toggle
		_USB_Print
 This function is called by:
		_FunctInitButton
		_Button_Poll
 This function uses a non-reentrant model


 *************** function _Event_HMI_DownButton *****************
 Defined at:
		line 177 in file "Events.c"
 Parameters:    Size  Location     Type
  pState          1    wreg     unsigned char 
 Auto vars:     Size  Location     Type
  pState          1   25[BANK0 ] unsigned char 
 Return value:  Size  Location     Type
                  1    wreg      void 
 Registers used:
		wreg, fsr0l, fsr0h, fsr1l, fsr1h, fsr2l, fsr2h, status,2, status,0, tblptrl, tblptrh, tblptru, prodl, prodh, cstack
 Tracked objects:
		On entry : 
		On exit  : 
		Unchanged: 
 Data sizes:     COMRAM   BANK0   BANK1   BANK2   BANK3   BANK4   BANK5   BANK6   BANK7   BANK8   BANK9  BANK10  BANK11  BANK12  BANK13  BANK14  BANK15
      Params:         0       0       0       0       0       0       0       0       0       0       0       0       0       0       0       0       0
      Locals:         0       1       0       0       0       0       0       0       0       0       0       0       0       0       0       0       0
      Temps:          0       0       0       0       0       0       0       0       0       0       0       0       0       0       0       0       0
      Totals:         0       1       0       0       0       0       0       0       0       0       0       0       0       0       0       0       0
Total ram usage:        1 bytes
 Hardware stack levels used:    1
 Hardware stack levels required when called:   20
 This function calls:
		_HMI_SetDown
		_HMI_SetNumber
		_LED_Toggle
		_USB_Print
 This function is called by:
		_HMI_Init
		_Button_Poll
 This function uses a non-reentrant model


 *************** function _Event_HMI_UpButton *****************
 Defined at:
		line 156 in file "Events.c"
 Parameters:    Size  Location     Type
  pState          1    wreg     unsigned char 
 Auto vars:     Size  Location     Type
  pState          1   25[BANK0 ] unsigned char 
 Return value:  Size  Location     Type
                  1    wreg      void 
 Registers used:
		wreg, fsr0l, fsr0h, fsr1l, fsr1h, fsr2l, fsr2h, status,2, status,0, tblptrl, tblptrh, tblptru, prodl, prodh, cstack
 Tracked objects:
		On entry : 
		On exit  : 
		Unchanged: 
 Data sizes:     COMRAM   BANK0   BANK1   BANK2   BANK3   BANK4   BANK5   BANK6   BANK7   BANK8   BANK9  BANK10  BANK11  BANK12  BANK13  BANK14  BANK15
      Params:         0       0       0       0       0       0       0       0       0       0       0       0       0       0       0       0       0
      Locals:         0       1       0       0       0       0       0       0       0       0       0       0       0       0       0       0       0
      Temps:          0       0       0       0       0       0       0       0       0       0       0       0       0       0       0       0       0
      Totals:         0       1       0       0       0       0       0       0       0       0       0       0       0       0       0       0       0
Total ram usage:        1 bytes
 Hardware stack levels used:    1
 Hardware stack levels required when called:   20
 This function calls:
		_HMI_SetNumber
		_HMI_SetUp
		_LED_Toggle
		_USB_Print
 This function is called by:
		_HMI_Init
		_Button_Poll
 This function uses a non-reentrant model


 *************** function _Event_HMI_RightButton *****************
 Defined at:
		line 133 in file "Events.c"
 Parameters:    Size  Location     Type
  pState          1    wreg     unsigned char 
 Auto vars:     Size  Location     Type
  pState          1   25[BANK0 ] unsigned char 
 Return value:  Size  Location     Type
                  1    wreg      void 
 Registers used:
		wreg, fsr0l, fsr0h, fsr2l, fsr2h, status,2, status,0, tblptrl, tblptrh, tblptru, prodl, prodh, cstack
 Tracked objects:
		On entry : 
		On exit  : 
		Unchanged: 
 Data sizes:     COMRAM   BANK0   BANK1   BANK2   BANK3   BANK4   BANK5   BANK6   BANK7   BANK8   BANK9  BANK10  BANK11  BANK12  BANK13  BANK14  BANK15
      Params:         0       0       0       0       0       0       0       0       0       0       0       0       0       0       0       0       0
      Locals:         0       1       0       0       0       0       0       0       0       0       0       0       0       0       0       0       0
      Temps:          0       0       0       0       0       0       0       0       0       0       0       0       0       0       0       0       0
      Totals:         0       1       0       0       0       0       0       0       0       0       0       0       0       0       0       0       0
Total ram usage:        1 bytes
 Hardware stack levels used:    1
 Hardware stack levels required when called:   20
 This function calls:
		_HMI_SetBar
		_HMI_SetRight
		_LED_Toggle
		_USB_Print
 This function is called by:
		_HMI_Init
		_Button_Poll
 This function uses a non-reentrant model


 *************** function _Event_HMI_LeftButton *****************
 Defined at:
		line 107 in file "Events.c"
 Parameters:    Size  Location     Type
  pState          1    wreg     unsigned char 
 Auto vars:     Size  Location     Type
  pState          1   25[BANK0 ] unsigned char 
 Return value:  Size  Location     Type
                  1    wreg      void 
 Registers used:
		wreg, fsr0l, fsr0h, fsr2l, fsr2h, status,2, status,0, tblptrl, tblptrh, tblptru, prodl, prodh, cstack
 Tracked objects:
		On entry : 
		On exit  : 
		Unchanged: 
 Data sizes:     COMRAM   BANK0   BANK1   BANK2   BANK3   BANK4   BANK5   BANK6   BANK7   BANK8   BANK9  BANK10  BANK11  BANK12  BANK13  BANK14  BANK15
      Params:         0       0       0       0       0       0       0       0       0       0       0       0       0       0       0       0       0
      Locals:         0       1       0       0       0       0       0       0       0       0       0       0       0       0       0       0       0
      Temps:          0       0       0       0       0       0       0       0       0       0       0       0       0       0       0       0       0
      Totals:         0       1       0       0       0       0       0       0       0       0       0       0       0       0       0       0       0
Total ram usage:        1 bytes
 Hardware stack levels used:    1
 Hardware stack levels required when called:   20
 This function calls:
		_HMI_SetBar
		_HMI_SetLeft
		_LED_Toggle
		_USB_Print
 This function is called by:
		_HMI_Init
		_Button_Poll
 This function uses a non-reentrant model


 *************** function _Event_HMI_DIPSwitch *****************
 Defined at:
		line 59 in file "Events.c"
 Parameters:    Size  Location     Type
  pState          1    wreg     unsigned char 
 Auto vars:     Size  Location     Type
  pState          1   25[BANK0 ] unsigned char 
  Bar             1   26[BANK0 ] unsigned char 
 Return value:  Size  Location     Type
                  1    wreg      void 
 Registers used:
		wreg, fsr0l, fsr0h, fsr2l, fsr2h, status,2, status,0, tblptrl, tblptrh, tblptru, prodl, prodh, cstack
 Tracked objects:
		On entry : 
		On exit  : 
		Unchanged: 
 Data sizes:     COMRAM   BANK0   BANK1   BANK2   BANK3   BANK4   BANK5   BANK6   BANK7   BANK8   BANK9  BANK10  BANK11  BANK12  BANK13  BANK14  BANK15
      Params:         0       0       0       0       0       0       0       0       0       0       0       0       0       0       0       0       0
      Locals:         0       2       0       0       0       0       0       0       0       0       0       0       0       0       0       0       0
      Temps:          0       0       0       0       0       0       0       0       0       0       0       0       0       0       0       0       0
      Totals:         0       2       0       0       0       0       0       0       0       0       0       0       0       0       0       0       0
Total ram usage:        2 bytes
 Hardware stack levels used:    1
 Hardware stack levels required when called:   20
 This function calls:
		_HMI_GetBar
		_HMI_SetBar
		_LED_Toggle
		_USB_Print
 This function is called by:
		_HMI_Init
		_Button_Poll
 This function uses a non-reentrant model


 *************** function _Event_TestButton *****************
 Defined at:
		line 76 in file "Events.c"
 Parameters:    Size  Location     Type
  pState          1    wreg     unsigned char 
 Auto vars:     Size  Location     Type
  pState          1   25[BANK0 ] unsigned char 
 Return value:  Size  Location     Type
                  1    wreg      void 
 Registers used:
		wreg, fsr0l, fsr0h, fsr1l, fsr1h, fsr2l, fsr2h, status,2, status,0, tblptrl, tblptrh, tblptru, prodl, prodh, cstack
 Tracked objects:
		On entry : 
		On exit  : 
		Unchanged: 
 Data sizes:     COMRAM   BANK0   BANK1   BANK2   BANK3   BANK4   BANK5   BANK6   BANK7   BANK8   BANK9  BANK10  BANK11  BANK12  BANK13  BANK14  BANK15
      Params:         0       0       0       0       0       0       0       0       0       0       0       0       0       0       0       0       0
      Locals:         0       1       0       0       0       0       0       0       0       0       0       0       0       0       0       0       0
      Temps:          0       0       0       0       0       0       0       0       0       0       0       0       0       0       0       0       0
      Totals:         0       1       0       0       0       0       0       0       0       0       0       0       0       0       0       0       0
Total ram usage:        1 bytes
 Hardware stack levels used:    1
 Hardware stack levels required when called:   20
 This function calls:
		_HMI_SetButton
		_HMI_SetNumber
		_LED_Toggle
		_USB_Print
 This function is called by:
		_FunctInitButton
		_Button_Poll
 This function uses a non-reentrant model


 *************** function _HMI_SetButton *****************
 Defined at:
		line 145 in file "HMI.c"
 Parameters:    Size  Location     Type
  pValue          1    wreg     unsigned char 
 Auto vars:     Size  Location     Type
  pValue          1    6[BANK0 ] unsigned char 
  reindex         4    2[BANK0 ] const unsigned char [4]
  v               1    7[BANK0 ] unsigned char 
 Return value:  Size  Location     Type
                  1    wreg      void 
 Registers used:
		wreg, fsr2l, fsr2h, status,2, status,0, tblptrl, tblptrh, tblptru, prodl, prodh
 Tracked objects:
		On entry : 
		On exit  : 
		Unchanged: 
 Data sizes:     COMRAM   BANK0   BANK1   BANK2   BANK3   BANK4   BANK5   BANK6   BANK7   BANK8   BANK9  BANK10  BANK11  BANK12  BANK13  BANK14  BANK15
      Params:         0       0       0       0       0       0       0       0       0       0       0       0       0       0       0       0       0
      Locals:         0       6       0       0       0       0       0       0       0       0       0       0       0       0       0       0       0
      Temps:          0       2       0       0       0       0       0       0       0       0       0       0       0       0       0       0       0
      Totals:         0       8       0       0       0       0       0       0       0       0       0       0       0       0       0       0       0
Total ram usage:        8 bytes
 Hardware stack levels used:    1
 Hardware stack levels required when called:   14
 This function calls:
		Nothing
 This function is called by:
		_Event_TestButton
 This function uses a non-reentrant model


 *************** function _HMI_SetUp *****************
 Defined at:
		line 133 in file "HMI.c"
 Parameters:    Size  Location     Type
  pValue          1    wreg     unsigned char 
 Auto vars:     Size  Location     Type
  pValue          1    0[BANK0 ] unsigned char 
 Return value:  Size  Location     Type
                  1    wreg      void 
 Registers used:
		wreg
 Tracked objects:
		On entry : 
		On exit  : 
		Unchanged: 
 Data sizes:     COMRAM   BANK0   BANK1   BANK2   BANK3   BANK4   BANK5   BANK6   BANK7   BANK8   BANK9  BANK10  BANK11  BANK12  BANK13  BANK14  BANK15
      Params:         0       0       0       0       0       0       0       0       0       0       0       0       0       0       0       0       0
      Locals:         0       1       0       0       0       0       0       0       0       0       0       0       0       0       0       0       0
      Temps:          0       0       0       0       0       0       0       0       0       0       0       0       0       0       0       0       0
      Totals:         0       1       0       0       0       0       0       0       0       0       0       0       0       0       0       0       0
Total ram usage:        1 bytes
 Hardware stack levels used:    1
 Hardware stack levels required when called:   14
 This function calls:
		Nothing
 This function is called by:
		_Event_HMI_UpButton
 This function uses a non-reentrant model


 *************** function _HMI_SetRight *****************
 Defined at:
		line 127 in file "HMI.c"
 Parameters:    Size  Location     Type
  pValue          1    wreg     unsigned char 
 Auto vars:     Size  Location     Type
  pValue          1    0[BANK0 ] unsigned char 
 Return value:  Size  Location     Type
                  1    wreg      void 
 Registers used:
		wreg
 Tracked objects:
		On entry : 
		On exit  : 
		Unchanged: 
 Data sizes:     COMRAM   BANK0   BANK1   BANK2   BANK3   BANK4   BANK5   BANK6   BANK7   BANK8   BANK9  BANK10  BANK11  BANK12  BANK13  BANK14  BANK15
      Params:         0       0       0       0       0       0       0       0       0       0       0       0       0       0       0       0       0
      Locals:         0       1       0       0       0       0       0       0       0       0       0       0       0       0       0       0       0
      Temps:          0       0       0       0       0       0       0       0       0       0       0       0       0       0       0       0       0
      Totals:         0       1       0       0       0       0       0       0       0       0       0       0       0       0       0       0       0
Total ram usage:        1 bytes
 Hardware stack levels used:    1
 Hardware stack levels required when called:   14
 This function calls:
		Nothing
 This function is called by:
		_Event_HMI_RightButton
 This function uses a non-reentrant model


 *************** function _HMI_SetLeft *****************
 Defined at:
		line 121 in file "HMI.c"
 Parameters:    Size  Location     Type
  pValue          1    wreg     unsigned char 
 Auto vars:     Size  Location     Type
  pValue          1    0[BANK0 ] unsigned char 
 Return value:  Size  Location     Type
                  1    wreg      void 
 Registers used:
		wreg
 Tracked objects:
		On entry : 
		On exit  : 
		Unchanged: 
 Data sizes:     COMRAM   BANK0   BANK1   BANK2   BANK3   BANK4   BANK5   BANK6   BANK7   BANK8   BANK9  BANK10  BANK11  BANK12  BANK13  BANK14  BANK15
      Params:         0       0       0       0       0       0       0       0       0       0       0       0       0       0       0       0       0
      Locals:         0       1       0       0       0       0       0       0       0       0       0       0       0       0       0       0       0
      Temps:          0       0       0       0       0       0       0       0       0       0       0       0       0       0       0       0       0
      Totals:         0       1       0       0       0       0       0       0       0       0       0       0       0       0       0       0       0
Total ram usage:        1 bytes
 Hardware stack levels used:    1
 Hardware stack levels required when called:   14
 This function calls:
		Nothing
 This function is called by:
		_Event_HMI_LeftButton
 This function uses a non-reentrant model


 *************** function _HMI_SetNumber *****************
 Defined at:
		line 180 in file "HMI.c"
 Parameters:    Size  Location     Type
  pInput          2   17[BANK0 ] int 
 Auto vars:     Size  Location     Type
		None
 Return value:  Size  Location     Type
                  1    wreg      void 
 Registers used:
		wreg, fsr0l, fsr0h, fsr1l, fsr1h, fsr2l, fsr2h, status,2, status,0, tblptrl, tblptrh, tblptru, cstack
 Tracked objects:
		On entry : 
		On exit  : 
		Unchanged: 
 Data sizes:     COMRAM   BANK0   BANK1   BANK2   BANK3   BANK4   BANK5   BANK6   BANK7   BANK8   BANK9  BANK10  BANK11  BANK12  BANK13  BANK14  BANK15
      Params:         0       2       0       0       0       0       0       0       0       0       0       0       0       0       0       0       0
      Locals:         0       0       0       0       0       0       0       0       0       0       0       0       0       0       0       0       0
      Temps:          0       0       0       0       0       0       0       0       0       0       0       0       0       0       0       0       0
      Totals:         0       2       0       0       0       0       0       0       0       0       0       0       0       0       0       0       0
Total ram usage:        2 bytes
 Hardware stack levels used:    1
 Hardware stack levels required when called:   16
 This function calls:
		_HMI_SetSegments
		_itos
 This function is called by:
		_Event_TestButton
		_Event_HMI_UpButton
		_Event_HMI_DownButton
 This function uses a non-reentrant model


 *************** function _itos *****************
 Defined at:
		line 369 in file "Library/Types.c"
 Parameters:    Size  Location     Type
  input           2    7[BANK0 ] unsigned short 
  destination     2    9[BANK0 ] PTR unsigned char 
		 -> HMIBoard..(8), HMIBoard(48), 
 Auto vars:     Size  Location     Type
  Out             2   15[BANK0 ] unsigned short 
  Length          2   13[BANK0 ] unsigned short 
  Data            2   11[BANK0 ] PTR unsigned char 
		 -> HMIBoard..(8), HMIBoard(48), 
 Return value:  Size  Location     Type
                  1    wreg      void 
 Registers used:
		wreg, fsr1l, fsr1h, fsr2l, fsr2h, status,2, status,0, cstack
 Tracked objects:
		On entry : 
		On exit  : 
		Unchanged: 
 Data sizes:     COMRAM   BANK0   BANK1   BANK2   BANK3   BANK4   BANK5   BANK6   BANK7   BANK8   BANK9  BANK10  BANK11  BANK12  BANK13  BANK14  BANK15
      Params:         0       4       0       0       0       0       0       0       0       0       0       0       0       0       0       0       0
      Locals:         0       6       0       0       0       0       0       0       0       0       0       0       0       0       0       0       0
      Temps:          0       0       0       0       0       0       0       0       0       0       0       0       0       0       0       0       0
      Totals:         0      10       0       0       0       0       0       0       0       0       0       0       0       0       0       0       0
Total ram usage:       10 bytes
 Hardware stack levels used:    1
 Hardware stack levels required when called:   15
 This function calls:
		___lwdiv
		___lwmod
		_reverse
 This function is called by:
		_HMI_SetNumber
 This function uses a non-reentrant model


 *************** function _reverse *****************
 Defined at:
		line 357 in file "Library/Types.c"
 Parameters:    Size  Location     Type
  input           2    0[BANK0 ] PTR unsigned char 
		 -> HMIBoard..(8), HMIBoard(48), 
  length          2    2[BANK0 ] unsigned short 
 Auto vars:     Size  Location     Type
  iterator        2    5[BANK0 ] PTR unsigned char 
		 -> HMIBoard..(8), HMIBoard(48), 
  tempVar         1    4[BANK0 ] unsigned char 
 Return value:  Size  Location     Type
                  1    wreg      void 
 Registers used:
		wreg, fsr1l, fsr1h, fsr2l, fsr2h, status,2, status,0
 Tracked objects:
		On entry : 
		On exit  : 
		Unchanged: 
 Data sizes:     COMRAM   BANK0   BANK1   BANK2   BANK3   BANK4   BANK5   BANK6   BANK7   BANK8   BANK9  BANK10  BANK11  BANK12  BANK13  BANK14  BANK15
      Params:         0       4       0       0       0       0       0       0       0       0       0       0       0       0       0       0       0
      Locals:         0       3       0       0       0       0       0       0       0       0       0       0       0       0       0       0       0
      Temps:          0       0       0       0       0       0       0       0       0       0       0       0       0       0       0       0       0
      Totals:         0       7       0       0       0       0       0       0       0       0       0       0       0       0       0       0       0
Total ram usage:        7 bytes
 Hardware stack levels used:    1
 Hardware stack levels required when called:   14
 This function calls:
		Nothing
 This function is called by:
		_itos
 This function uses a non-reentrant model


 *************** function ___lwmod *****************
 Defined at:
		line 8 in file "C:\Program Files (x86)\Microchip\xc8\v1.38\sources\common\lwmod.c"
 Parameters:    Size  Location     Type
  dividend        2    0[BANK0 ] unsigned int 
  divisor         2    2[BANK0 ] unsigned int 
 Auto vars:     Size  Location     Type
  counter         1    4[BANK0 ] unsigned char 
 Return value:  Size  Location     Type
                  2    0[BANK0 ] unsigned int 
 Registers used:
		wreg, status,2, status,0
 Tracked objects:
		On entry : 
		On exit  : 
		Unchanged: 
 Data sizes:     COMRAM   BANK0   BANK1   BANK2   BANK3   BANK4   BANK5   BANK6   BANK7   BANK8   BANK9  BANK10  BANK11  BANK12  BANK13  BANK14  BANK15
      Params:         0       4       0       0       0       0       0       0       0       0       0       0       0       0       0       0       0
      Locals:         0       1       0       0       0       0       0       0       0       0       0       0       0       0       0       0       0
      Temps:          0       0       0       0       0       0       0       0       0       0       0       0       0       0       0       0       0
      Totals:         0       5       0       0       0       0       0       0       0       0       0       0       0       0       0       0       0
Total ram usage:        5 bytes
 Hardware stack levels used:    1
 Hardware stack levels required when called:   14
 This function calls:
		Nothing
 This function is called by:
		_itos
 This function uses a non-reentrant model


 *************** function ___lwdiv *****************
 Defined at:
		line 8 in file "C:\Program Files (x86)\Microchip\xc8\v1.38\sources\common\lwdiv.c"
 Parameters:    Size  Location     Type
  dividend        2    0[BANK0 ] unsigned int 
  divisor         2    2[BANK0 ] unsigned int 
 Auto vars:     Size  Location     Type
  quotient        2    4[BANK0 ] unsigned int 
  counter         1    6[BANK0 ] unsigned char 
 Return value:  Size  Location     Type
                  2    0[BANK0 ] unsigned int 
 Registers used:
		wreg, status,2, status,0
 Tracked objects:
		On entry : 
		On exit  : 
		Unchanged: 
 Data sizes:     COMRAM   BANK0   BANK1   BANK2   BANK3   BANK4   BANK5   BANK6   BANK7   BANK8   BANK9  BANK10  BANK11  BANK12  BANK13  BANK14  BANK15
      Params:         0       4       0       0       0       0       0       0       0       0       0       0       0       0       0       0       0
      Locals:         0       3       0       0       0       0       0       0       0       0       0       0       0       0       0       0       0
      Temps:          0       0       0       0       0       0       0       0       0       0       0       0       0       0       0       0       0
      Totals:         0       7       0       0       0       0       0       0       0       0       0       0       0       0       0       0       0
Total ram usage:        7 bytes
 Hardware stack levels used:    1
 Hardware stack levels required when called:   14
 This function calls:
		Nothing
 This function is called by:
		_itos
 This function uses a non-reentrant model


 *************** function _HMI_SetSegments *****************
 Defined at:
		line 185 in file "HMI.c"
 Parameters:    Size  Location     Type
  pString         2    1[BANK0 ] PTR unsigned char 
		 -> STR_9(7), HMIBoard..(8), HMIBoard(48), 
 Auto vars:     Size  Location     Type
  in              2    4[BANK0 ] unsigned short 
 Return value:  Size  Location     Type
                  1    wreg      void 
 Registers used:
		wreg, fsr0l, fsr0h, fsr2l, fsr2h, status,2, status,0, tblptrl, tblptrh, tblptru, cstack
 Tracked objects:
		On entry : 
		On exit  : 
		Unchanged: 
 Data sizes:     COMRAM   BANK0   BANK1   BANK2   BANK3   BANK4   BANK5   BANK6   BANK7   BANK8   BANK9  BANK10  BANK11  BANK12  BANK13  BANK14  BANK15
      Params:         0       2       0       0       0       0       0       0       0       0       0       0       0       0       0       0       0
      Locals:         0       2       0       0       0       0       0       0       0       0       0       0       0       0       0       0       0
      Temps:          0       1       0       0       0       0       0       0       0       0       0       0       0       0       0       0       0
      Totals:         0       5       0       0       0       0       0       0       0       0       0       0       0       0       0       0       0
Total ram usage:        5 bytes
 Hardware stack levels used:    1
 Hardware stack levels required when called:   15
 This function calls:
		_ToSegment
 This function is called by:
		_HMI_SetNumber
		_FunctInitHMI
 This function uses a non-reentrant model


 *************** function _ToSegment *****************
 Defined at:
		line 284 in file "Library/Types.c"
 Parameters:    Size  Location     Type
  pCHR            1    wreg     unsigned char 
 Auto vars:     Size  Location     Type
  pCHR            1    0[BANK0 ] unsigned char 
 Return value:  Size  Location     Type
                  1    wreg      unsigned char 
 Registers used:
		wreg, status,2, status,0
 Tracked objects:
		On entry : 
		On exit  : 
		Unchanged: 
 Data sizes:     COMRAM   BANK0   BANK1   BANK2   BANK3   BANK4   BANK5   BANK6   BANK7   BANK8   BANK9  BANK10  BANK11  BANK12  BANK13  BANK14  BANK15
      Params:         0       0       0       0       0       0       0       0       0       0       0       0       0       0       0       0       0
      Locals:         0       1       0       0       0       0       0       0       0       0       0       0       0       0       0       0       0
      Temps:          0       0       0       0       0       0       0       0       0       0       0       0       0       0       0       0       0
      Totals:         0       1       0       0       0       0       0       0       0       0       0       0       0       0       0       0       0
Total ram usage:        1 bytes
 Hardware stack levels used:    1
 Hardware stack levels required when called:   14
 This function calls:
		Nothing
 This function is called by:
		_HMI_SetSegments
 This function uses a non-reentrant model


 *************** function _HMI_SetDown *****************
 Defined at:
		line 139 in file "HMI.c"
 Parameters:    Size  Location     Type
  pValue          1    wreg     unsigned char 
 Auto vars:     Size  Location     Type
  pValue          1    0[BANK0 ] unsigned char 
 Return value:  Size  Location     Type
                  1    wreg      void 
 Registers used:
		wreg
 Tracked objects:
		On entry : 
		On exit  : 
		Unchanged: 
 Data sizes:     COMRAM   BANK0   BANK1   BANK2   BANK3   BANK4   BANK5   BANK6   BANK7   BANK8   BANK9  BANK10  BANK11  BANK12  BANK13  BANK14  BANK15
      Params:         0       0       0       0       0       0       0       0       0       0       0       0       0       0       0       0       0
      Locals:         0       1       0       0       0       0       0       0       0       0       0       0       0       0       0       0       0
      Temps:          0       0       0       0       0       0       0       0       0       0       0       0       0       0       0       0       0
      Totals:         0       1       0       0       0       0       0       0       0       0       0       0       0       0       0       0       0
Total ram usage:        1 bytes
 Hardware stack levels used:    1
 Hardware stack levels required when called:   14
 This function calls:
		Nothing
 This function is called by:
		_Event_HMI_DownButton
 This function uses a non-reentrant model


 *************** function _USB_Print *****************
 Defined at:
		line 90 in file "USB_Wrap.c"
 Parameters:    Size  Location     Type
  pInput          2    6[BANK0 ] const PTR unsigned char 
		 -> STR_8(6), STR_7(4), STR_6(7), STR_5(6), 
		 -> STR_4(13), STR_3(9), STR_2(5), 
 Auto vars:     Size  Location     Type
  len             2    8[BANK0 ] unsigned short 
 Return value:  Size  Location     Type
                  1    wreg      void 
 Registers used:
		wreg, status,2, status,0, tblptrl, tblptrh, tblptru, cstack
 Tracked objects:
		On entry : 
		On exit  : 
		Unchanged: 
 Data sizes:     COMRAM   BANK0   BANK1   BANK2   BANK3   BANK4   BANK5   BANK6   BANK7   BANK8   BANK9  BANK10  BANK11  BANK12  BANK13  BANK14  BANK15
      Params:         0       2       0       0       0       0       0       0       0       0       0       0       0       0       0       0       0
      Locals:         0       2       0       0       0       0       0       0       0       0       0       0       0       0       0       0       0
      Temps:          0       0       0       0       0       0       0       0       0       0       0       0       0       0       0       0       0
      Totals:         0       4       0       0       0       0       0       0       0       0       0       0       0       0       0       0       0
Total ram usage:        4 bytes
 Hardware stack levels used:    1
 Hardware stack levels required when called:   15
 This function calls:
		_putUSBUSART
		_strlen
 This function is called by:
		_Event_DIPSwitch
		_Event_HMI_DIPSwitch
		_Event_TestButton
		_Event_HMI_LeftButton
		_Event_HMI_RightButton
		_Event_HMI_UpButton
		_Event_HMI_DownButton
 This function uses a non-reentrant model


 *************** function _strlen *****************
 Defined at:
		line 4 in file "C:\Program Files (x86)\Microchip\xc8\v1.38\sources\common\strlen.c"
 Parameters:    Size  Location     Type
  s               2    0[BANK0 ] PTR const unsigned char 
		 -> STR_8(6), STR_7(4), STR_6(7), STR_5(6), 
		 -> STR_4(13), STR_3(9), STR_2(5), 
 Auto vars:     Size  Location     Type
  cp              2    4[BANK0 ] PTR const unsigned char 
		 -> STR_8(6), STR_7(4), STR_6(7), STR_5(6), 
		 -> STR_4(13), STR_3(9), STR_2(5), 
 Return value:  Size  Location     Type
                  2    0[BANK0 ] unsigned int 
 Registers used:
		wreg, status,2, status,0, tblptrl, tblptrh, tblptru
 Tracked objects:
		On entry : 
		On exit  : 
		Unchanged: 
 Data sizes:     COMRAM   BANK0   BANK1   BANK2   BANK3   BANK4   BANK5   BANK6   BANK7   BANK8   BANK9  BANK10  BANK11  BANK12  BANK13  BANK14  BANK15
      Params:         0       2       0       0       0       0       0       0       0       0       0       0       0       0       0       0       0
      Locals:         0       2       0       0       0       0       0       0       0       0       0       0       0       0       0       0       0
      Temps:          0       2       0       0       0       0       0       0       0       0       0       0       0       0       0       0       0
      Totals:         0       6       0       0       0       0       0       0       0       0       0       0       0       0       0       0       0
Total ram usage:        6 bytes
 Hardware stack levels used:    1
 Hardware stack levels required when called:   14
 This function calls:
		Nothing
 This function is called by:
		_USB_Print
 This function uses a non-reentrant model


 *************** function _putUSBUSART *****************
 Defined at:
		line 591 in file "Library/USB/src/usb_device_cdc.c"
 Parameters:    Size  Location     Type
  data            2    0[BANK0 ] PTR unsigned char 
		 -> STR_8(6), STR_7(4), STR_6(7), STR_5(6), 
		 -> STR_4(13), STR_3(9), STR_2(5), USBInputBuffer(64), 
  length          1    2[BANK0 ] unsigned char 
 Auto vars:     Size  Location     Type
		None
 Return value:  Size  Location     Type
                  1    wreg      void 
 Registers used:
		wreg, status,2, status,0
 Tracked objects:
		On entry : 
		On exit  : 
		Unchanged: 
 Data sizes:     COMRAM   BANK0   BANK1   BANK2   BANK3   BANK4   BANK5   BANK6   BANK7   BANK8   BANK9  BANK10  BANK11  BANK12  BANK13  BANK14  BANK15
      Params:         0       3       0       0       0       0       0       0       0       0       0       0       0       0       0       0       0
      Locals:         0       0       0       0       0       0       0       0       0       0       0       0       0       0       0       0       0
      Temps:          0       0       0       0       0       0       0       0       0       0       0       0       0       0       0       0       0
      Totals:         0       3       0       0       0       0       0       0       0       0       0       0       0       0       0       0       0
Total ram usage:        3 bytes
 Hardware stack levels used:    1
 Hardware stack levels required when called:   14
 This function calls:
		Nothing
 This function is called by:
		_USB_Tasks
		_USB_Print
 This function uses a non-reentrant model


 *************** function _LED_Toggle *****************
 Defined at:
		line 50 in file "Library/LED.c"
 Parameters:    Size  Location     Type
  pLED            1    wreg     enum E7677
 Auto vars:     Size  Location     Type
  pLED            1   24[BANK0 ] enum E7677
 Return value:  Size  Location     Type
                  1    wreg      void 
 Registers used:
		wreg, fsr0l, fsr0h, fsr2l, fsr2h, status,2, status,0, tblptrl, tblptrh, tblptru, prodl, prodh, cstack
 Tracked objects:
		On entry : 
		On exit  : 
		Unchanged: 
 Data sizes:     COMRAM   BANK0   BANK1   BANK2   BANK3   BANK4   BANK5   BANK6   BANK7   BANK8   BANK9  BANK10  BANK11  BANK12  BANK13  BANK14  BANK15
      Params:         0       0       0       0       0       0       0       0       0       0       0       0       0       0       0       0       0
      Locals:         0       1       0       0       0       0       0       0       0       0       0       0       0       0       0       0       0
      Temps:          0       0       0       0       0       0       0       0       0       0       0       0       0       0       0       0       0
      Totals:         0       1       0       0       0       0       0       0       0       0       0       0       0       0       0       0       0
Total ram usage:        1 bytes
 Hardware stack levels used:    1
 Hardware stack levels required when called:   19
 This function calls:
		_Port_TogglePin
 This function is called by:
		_LCD_Reset
		_Event_DIPSwitch
		_Event_HMI_DIPSwitch
		_Event_TestButton
		_Event_HMI_LeftButton
		_Event_HMI_RightButton
		_Event_HMI_UpButton
		_Event_HMI_DownButton
 This function uses a non-reentrant model


 *************** function _Port_TogglePin *****************
 Defined at:
		line 278 in file "Library/Port.c"
 Parameters:    Size  Location     Type
  pInput          2   20[BANK0 ] const PTR struct Port
		 -> PortC(10), 
  pPin            1   22[BANK0 ] enum E7688
 Auto vars:     Size  Location     Type
  Value           1   23[BANK0 ] unsigned char 
 Return value:  Size  Location     Type
                  1    wreg      void 
 Registers used:
		wreg, fsr0l, fsr0h, fsr2l, fsr2h, status,2, status,0, tblptrl, tblptrh, tblptru, prodl, prodh, cstack
 Tracked objects:
		On entry : 
		On exit  : 
		Unchanged: 
 Data sizes:     COMRAM   BANK0   BANK1   BANK2   BANK3   BANK4   BANK5   BANK6   BANK7   BANK8   BANK9  BANK10  BANK11  BANK12  BANK13  BANK14  BANK15
      Params:         0       3       0       0       0       0       0       0       0       0       0       0       0       0       0       0       0
      Locals:         0       1       0       0       0       0       0       0       0       0       0       0       0       0       0       0       0
      Temps:          0       0       0       0       0       0       0       0       0       0       0       0       0       0       0       0       0
      Totals:         0       4       0       0       0       0       0       0       0       0       0       0       0       0       0       0       0
Total ram usage:        4 bytes
 Hardware stack levels used:    1
 Hardware stack levels required when called:   18
 This function calls:
		_Port_GetPin
		_Port_SetPin
 This function is called by:
		_LED_Toggle
 This function uses a non-reentrant model


 *************** function _Port_SetPin *****************
 Defined at:
		line 247 in file "Library/Port.c"
 Parameters:    Size  Location     Type
  pInput          2   15[BANK0 ] const PTR struct Port
		 -> PortG(10), PortC(10), PortF(10), PortE(10), 
  pPin            1   17[BANK0 ] enum E7688
  pValue          1   18[BANK0 ] unsigned char 
 Auto vars:     Size  Location     Type
  Type            1   19[BANK0 ] enum E7733
 Return value:  Size  Location     Type
                  1    wreg      void 
 Registers used:
		wreg, fsr0l, fsr0h, fsr2l, fsr2h, status,2, status,0, tblptrl, tblptrh, tblptru, prodl, prodh, cstack
 Tracked objects:
		On entry : 
		On exit  : 
		Unchanged: 
 Data sizes:     COMRAM   BANK0   BANK1   BANK2   BANK3   BANK4   BANK5   BANK6   BANK7   BANK8   BANK9  BANK10  BANK11  BANK12  BANK13  BANK14  BANK15
      Params:         0       4       0       0       0       0       0       0       0       0       0       0       0       0       0       0       0
      Locals:         0       1       0       0       0       0       0       0       0       0       0       0       0       0       0       0       0
      Temps:          0       0       0       0       0       0       0       0       0       0       0       0       0       0       0       0       0
      Totals:         0       5       0       0       0       0       0       0       0       0       0       0       0       0       0       0       0
Total ram usage:        5 bytes
 Hardware stack levels used:    1
 Hardware stack levels required when called:   17
 This function calls:
		_Byte_SetBit
		_Word_GetPair
 This function is called by:
		_Reset_Low
		_Reset_High
		_LED_Set
		_Port_TogglePin
		_Motor_Init
		_MXK_Init
 This function uses a non-reentrant model


 *************** function _Word_GetPair *****************
 Defined at:
		line 156 in file "Library/Types.c"
 Parameters:    Size  Location     Type
  pInput          2   12[BANK0 ] PTR struct Word
		 -> PortG(10), PortA(10), PortG_Property(2), PortF_Property(2), 
		 -> PortE_Property(2), PortD_Property(2), PortC_Property(2), PortB_Property(2), 
		 -> PortA_Property(2), PortC(10), PortF(10), PortE(10), 
		 -> PortD(10), PortB(10), NULL(0), 
  pPair           1   14[BANK0 ] unsigned char 
 Auto vars:     Size  Location     Type
		None
 Return value:  Size  Location     Type
                  1    wreg      unsigned char 
 Registers used:
		wreg, fsr0l, fsr0h, status,2, status,0, tblptrl, tblptrh, tblptru, prodl, prodh, cstack
 Tracked objects:
		On entry : 
		On exit  : 
		Unchanged: 
 Data sizes:     COMRAM   BANK0   BANK1   BANK2   BANK3   BANK4   BANK5   BANK6   BANK7   BANK8   BANK9  BANK10  BANK11  BANK12  BANK13  BANK14  BANK15
      Params:         0       3       0       0       0       0       0       0       0       0       0       0       0       0       0       0       0
      Locals:         0       0       0       0       0       0       0       0       0       0       0       0       0       0       0       0       0
      Temps:          0       0       0       0       0       0       0       0       0       0       0       0       0       0       0       0       0
      Totals:         0       3       0       0       0       0       0       0       0       0       0       0       0       0       0       0       0
Total ram usage:        3 bytes
 Hardware stack levels used:    1
 Hardware stack levels required when called:   16
 This function calls:
		_Byte_GetPair
 This function is called by:
		_Port_Init
		_Port_SetPin
		_Port_Set
		_PortProperty_Valid
		_Port_SetPair
		_Port_SetQuad
 This function uses a non-reentrant model


 *************** function _Byte_GetPair *****************
 Defined at:
		line 87 in file "Library/Types.c"
 Parameters:    Size  Location     Type
  pInput          2    9[BANK0 ] PTR struct Byte
		 -> PortA_Property..(2), PortB_Property..(2), PortC_Property..(2), PortD_Property..(2), 
		 -> PortE_Property..(2), PortF_Property..(2), PortG_Property..(2), PortB..(2), 
		 -> PortD..(2), PortE..(2), PortF..(2), PortC..(2), 
		 -> PortA..(2), PortG..(2), PortG(10), PortA(10), 
		 -> PortG_Property(2), PortF_Property(2), PortE_Property(2), PortD_Property(2), 
		 -> PortC_Property(2), PortB_Property(2), PortA_Property(2), PortC(10), 
		 -> PortF(10), PortE(10), PortD(10), PortB(10), 
		 -> NULL(0), 
  pPair           1   11[BANK0 ] unsigned char 
 Auto vars:     Size  Location     Type
		None
 Return value:  Size  Location     Type
                  1    wreg      unsigned char 
 Registers used:
		wreg, fsr0l, fsr0h, status,2, status,0, tblptrl, tblptrh, tblptru, prodl, prodh, cstack
 Tracked objects:
		On entry : 
		On exit  : 
		Unchanged: 
 Data sizes:     COMRAM   BANK0   BANK1   BANK2   BANK3   BANK4   BANK5   BANK6   BANK7   BANK8   BANK9  BANK10  BANK11  BANK12  BANK13  BANK14  BANK15
      Params:         0       3       0       0       0       0       0       0       0       0       0       0       0       0       0       0       0
      Locals:         0       0       0       0       0       0       0       0       0       0       0       0       0       0       0       0       0
      Temps:          0       0       0       0       0       0       0       0       0       0       0       0       0       0       0       0       0
      Totals:         0       3       0       0       0       0       0       0       0       0       0       0       0       0       0       0       0
Total ram usage:        3 bytes
 Hardware stack levels used:    1
 Hardware stack levels required when called:   15
 This function calls:
		_Byte_GetZone
 This function is called by:
		_Word_GetPair
 This function uses a non-reentrant model


 *************** function _Byte_GetZone *****************
 Defined at:
		line 64 in file "Library/Types.c"
 Parameters:    Size  Location     Type
  pInput          2    0[BANK0 ] PTR struct Byte
		 -> PortA_Property..(2), PortB_Property..(2), PortC_Property..(2), PortD_Property..(2), 
		 -> PortE_Property..(2), PortF_Property..(2), PortG_Property..(2), PortB..(2), 
		 -> PortD..(2), PortE..(2), PortF..(2), PortC..(2), 
		 -> PortA..(2), PortG..(2), PortG(10), PortA(10), 
		 -> PortG_Property(2), PortF_Property(2), PortE_Property(2), PortD_Property(2), 
		 -> PortC_Property(2), PortB_Property(2), PortA_Property(2), PortC(10), 
		 -> PortF(10), PortE(10), PortD(10), PortB(10), 
		 -> NULL(0), 
  pMax            1    2[BANK0 ] unsigned char 
  pChunk          1    3[BANK0 ] unsigned char 
  pChunkSize      1    4[BANK0 ] unsigned char 
 Auto vars:     Size  Location     Type
  Output          1    8[BANK0 ] unsigned char 
  Offset          1    7[BANK0 ] unsigned char 
  MASK            1    6[BANK0 ] unsigned char 
 Return value:  Size  Location     Type
                  1    wreg      unsigned char 
 Registers used:
		wreg, fsr0l, fsr0h, status,2, status,0, tblptrl, tblptrh, tblptru, prodl, prodh
 Tracked objects:
		On entry : 
		On exit  : 
		Unchanged: 
 Data sizes:     COMRAM   BANK0   BANK1   BANK2   BANK3   BANK4   BANK5   BANK6   BANK7   BANK8   BANK9  BANK10  BANK11  BANK12  BANK13  BANK14  BANK15
      Params:         0       5       0       0       0       0       0       0       0       0       0       0       0       0       0       0       0
      Locals:         0       3       0       0       0       0       0       0       0       0       0       0       0       0       0       0       0
      Temps:          0       1       0       0       0       0       0       0       0       0       0       0       0       0       0       0       0
      Totals:         0       9       0       0       0       0       0       0       0       0       0       0       0       0       0       0       0
Total ram usage:        9 bytes
 Hardware stack levels used:    1
 Hardware stack levels required when called:   14
 This function calls:
		Nothing
 This function is called by:
		_Byte_GetPair
		_Byte_GetTriple
		_Byte_GetQuad
 This function uses a non-reentrant model


 *************** function _Byte_SetBit *****************
 Defined at:
		line 32 in file "Library/Types.c"
 Parameters:    Size  Location     Type
  pInput          2    0[BANK0 ] PTR struct Byte
		 -> SSP2CON2(1), SSP1CON2(1), SSP2CON1(1), SSP2STAT(1), 
		 -> SSP1CON1(1), SSP1STAT(1), TRISG(1), TRISF(1), 
		 -> TRISE(1), TRISD(1), TRISC(1), TRISB(1), 
		 -> TRISA(1), PORTG(1), PORTF(1), PORTE(1), 
		 -> PORTD(1), PORTC(1), PORTB(1), PORTA(1), 
		 -> NULL(0), 
  pBit            1    2[BANK0 ] unsigned char 
  pValue          1    3[BANK0 ] unsigned char 
 Auto vars:     Size  Location     Type
		None
 Return value:  Size  Location     Type
                  1    wreg      void 
 Registers used:
		wreg, fsr2l, fsr2h, status,2, status,0
 Tracked objects:
		On entry : 
		On exit  : 
		Unchanged: 
 Data sizes:     COMRAM   BANK0   BANK1   BANK2   BANK3   BANK4   BANK5   BANK6   BANK7   BANK8   BANK9  BANK10  BANK11  BANK12  BANK13  BANK14  BANK15
      Params:         0       4       0       0       0       0       0       0       0       0       0       0       0       0       0       0       0
      Locals:         0       0       0       0       0       0       0       0       0       0       0       0       0       0       0       0       0
      Temps:          0       3       0       0       0       0       0       0       0       0       0       0       0       0       0       0       0
      Totals:         0       7       0       0       0       0       0       0       0       0       0       0       0       0       0       0       0
Total ram usage:        7 bytes
 Hardware stack levels used:    1
 Hardware stack levels required when called:   14
 This function calls:
		Nothing
 This function is called by:
		_Port_SetPinType
		_Port_SetPin
		_SPI_Init
		_SPI_MinSpeed
		_SPI_MaxSpeed
		_Word_SetBit
		_I2C_Init
 This function uses a non-reentrant model


 *************** function _HMI_SetBar *****************
 Defined at:
		line 164 in file "HMI.c"
 Parameters:    Size  Location     Type
  pValue          1    wreg     unsigned char 
 Auto vars:     Size  Location     Type
  pValue          1    0[BANK0 ] unsigned char 
 Return value:  Size  Location     Type
                  1    wreg      void 
 Registers used:
		wreg
 Tracked objects:
		On entry : 
		On exit  : 
		Unchanged: 
 Data sizes:     COMRAM   BANK0   BANK1   BANK2   BANK3   BANK4   BANK5   BANK6   BANK7   BANK8   BANK9  BANK10  BANK11  BANK12  BANK13  BANK14  BANK15
      Params:         0       0       0       0       0       0       0       0       0       0       0       0       0       0       0       0       0
      Locals:         0       1       0       0       0       0       0       0       0       0       0       0       0       0       0       0       0
      Temps:          0       0       0       0       0       0       0       0       0       0       0       0       0       0       0       0       0
      Totals:         0       1       0       0       0       0       0       0       0       0       0       0       0       0       0       0       0
Total ram usage:        1 bytes
 Hardware stack levels used:    1
 Hardware stack levels required when called:   14
 This function calls:
		Nothing
 This function is called by:
		_Event_DIPSwitch
		_Event_HMI_DIPSwitch
		_Event_HMI_LeftButton
		_Event_HMI_RightButton
		_FunctInitHMI
 This function uses a non-reentrant model


 *************** function _HMI_GetBar *****************
 Defined at:
		line 168 in file "HMI.c"
 Parameters:    Size  Location     Type
		None
 Auto vars:     Size  Location     Type
		None
 Return value:  Size  Location     Type
                  1    wreg      unsigned char 
 Registers used:
		wreg, status,2
 Tracked objects:
		On entry : 
		On exit  : 
		Unchanged: 
 Data sizes:     COMRAM   BANK0   BANK1   BANK2   BANK3   BANK4   BANK5   BANK6   BANK7   BANK8   BANK9  BANK10  BANK11  BANK12  BANK13  BANK14  BANK15
      Params:         0       0       0       0       0       0       0       0       0       0       0       0       0       0       0       0       0
      Locals:         0       0       0       0       0       0       0       0       0       0       0       0       0       0       0       0       0
      Temps:          0       0       0       0       0       0       0       0       0       0       0       0       0       0       0       0       0
      Totals:         0       0       0       0       0       0       0       0       0       0       0       0       0       0       0       0       0
Total ram usage:        0 bytes
 Hardware stack levels used:    1
 Hardware stack levels required when called:   14
 This function calls:
		Nothing
 This function is called by:
		_Event_DIPSwitch
		_Event_HMI_DIPSwitch
 This function uses a non-reentrant model


 *************** function _Button_State *****************
 Defined at:
		line 44 in file "Library/Button.c"
 Parameters:    Size  Location     Type
  pInput          2    6[BANK0 ] const PTR struct Button
		 -> DIPSwitch(8), TestButton(8), HMIBoard(48), 
 Auto vars:     Size  Location     Type
		None
 Return value:  Size  Location     Type
                  1    wreg      unsigned char 
 Registers used:
		wreg, fsr2l, fsr2h, status,2, status,0, prodl, prodh, cstack
 Tracked objects:
		On entry : 
		On exit  : 
		Unchanged: 
 Data sizes:     COMRAM   BANK0   BANK1   BANK2   BANK3   BANK4   BANK5   BANK6   BANK7   BANK8   BANK9  BANK10  BANK11  BANK12  BANK13  BANK14  BANK15
      Params:         0       2       0       0       0       0       0       0       0       0       0       0       0       0       0       0       0
      Locals:         0       0       0       0       0       0       0       0       0       0       0       0       0       0       0       0       0
      Temps:          0       0       0       0       0       0       0       0       0       0       0       0       0       0       0       0       0
      Totals:         0       2       0       0       0       0       0       0       0       0       0       0       0       0       0       0       0
Total ram usage:        2 bytes
 Hardware stack levels used:    1
 Hardware stack levels required when called:   15
 This function calls:
		_Port_GetPin
		_Port_GetQuad
 This function is called by:
		_Button_Poll
 This function uses a non-reentrant model


 *************** function _Port_GetQuad *****************
 Defined at:
		line 498 in file "Library/Port.c"
 Parameters:    Size  Location     Type
  pInput          2    0[BANK0 ] const PTR struct Port
		 -> PortE(10), PortD(10), 
  pQuad           1    2[BANK0 ] enum E7714
 Auto vars:     Size  Location     Type
  Output          1    5[BANK0 ] unsigned char 
 Return value:  Size  Location     Type
                  1    wreg      unsigned char 
 Registers used:
		wreg, fsr2l, fsr2h, status,2, status,0, prodl, prodh
 Tracked objects:
		On entry : 
		On exit  : 
		Unchanged: 
 Data sizes:     COMRAM   BANK0   BANK1   BANK2   BANK3   BANK4   BANK5   BANK6   BANK7   BANK8   BANK9  BANK10  BANK11  BANK12  BANK13  BANK14  BANK15
      Params:         0       3       0       0       0       0       0       0       0       0       0       0       0       0       0       0       0
      Locals:         0       1       0       0       0       0       0       0       0       0       0       0       0       0       0       0       0
      Temps:          0       2       0       0       0       0       0       0       0       0       0       0       0       0       0       0       0
      Totals:         0       6       0       0       0       0       0       0       0       0       0       0       0       0       0       0       0
Total ram usage:        6 bytes
 Hardware stack levels used:    1
 Hardware stack levels required when called:   14
 This function calls:
		Nothing
 This function is called by:
		_Button_State
		_Port_ToggleQuad
 This function uses a non-reentrant model


 *************** function _Port_GetPin *****************
 Defined at:
		line 271 in file "Library/Port.c"
 Parameters:    Size  Location     Type
  pInput          2    0[BANK0 ] const PTR struct Port
		 -> PortC(10), PortE(10), PortB(10), 
  pPin            1    2[BANK0 ] enum E7688
 Auto vars:     Size  Location     Type
  Output          1    5[BANK0 ] unsigned char 
 Return value:  Size  Location     Type
                  1    wreg      unsigned char 
 Registers used:
		wreg, fsr2l, fsr2h, status,2, status,0
 Tracked objects:
		On entry : 
		On exit  : 
		Unchanged: 
 Data sizes:     COMRAM   BANK0   BANK1   BANK2   BANK3   BANK4   BANK5   BANK6   BANK7   BANK8   BANK9  BANK10  BANK11  BANK12  BANK13  BANK14  BANK15
      Params:         0       3       0       0       0       0       0       0       0       0       0       0       0       0       0       0       0
      Locals:         0       1       0       0       0       0       0       0       0       0       0       0       0       0       0       0       0
      Temps:          0       2       0       0       0       0       0       0       0       0       0       0       0       0       0       0       0
      Totals:         0       6       0       0       0       0       0       0       0       0       0       0       0       0       0       0       0
Total ram usage:        6 bytes
 Hardware stack levels used:    1
 Hardware stack levels required when called:   14
 This function calls:
		Nothing
 This function is called by:
		_Button_State
		_Port_TogglePin
 This function uses a non-reentrant model


 *************** function _ISR_Function *****************
 Defined at:
		line 40 in file "ISR.c"
 Parameters:    Size  Location     Type
		None
 Auto vars:     Size  Location     Type
		None
 Return value:  Size  Location     Type
                  1    wreg      void 
 Registers used:
		wreg, fsr0l, fsr0h, fsr1l, fsr1h, fsr2l, fsr2h, status,2, status,0, pclat, tosl, tblptrl, tblptrh, tblptru, prodl, prodh, cstack
 Tracked objects:
		On entry : 
		On exit  : 
		Unchanged: 
 Data sizes:     COMRAM   BANK0   BANK1   BANK2   BANK3   BANK4   BANK5   BANK6   BANK7   BANK8   BANK9  BANK10  BANK11  BANK12  BANK13  BANK14  BANK15
      Params:         0       0       0       0       0       0       0       0       0       0       0       0       0       0       0       0       0
      Locals:         0       0       0       0       0       0       0       0       0       0       0       0       0       0       0       0       0
      Temps:         14       0       0       0       0       0       0       0       0       0       0       0       0       0       0       0       0
      Totals:        14       0       0       0       0       0       0       0       0       0       0       0       0       0       0       0       0
Total ram usage:       14 bytes
 Hardware stack levels used:    1
 Hardware stack levels required when called:   13
 This function calls:
		_Timer0_ISR
		_USB_ISR
 This function is called by:
		Interrupt level 2
 This function uses a non-reentrant model


 *************** function _USB_ISR *****************
 Defined at:
		line 84 in file "USB_Wrap.c"
 Parameters:    Size  Location     Type
		None
 Auto vars:     Size  Location     Type
		None
 Return value:  Size  Location     Type
                  1    wreg      void 
 Registers used:
		wreg, fsr0l, fsr0h, fsr1l, fsr1h, fsr2l, fsr2h, status,2, status,0, tblptrl, tblptrh, tblptru, prodl, prodh, cstack
 Tracked objects:
		On entry : 
		On exit  : 
		Unchanged: 
 Data sizes:     COMRAM   BANK0   BANK1   BANK2   BANK3   BANK4   BANK5   BANK6   BANK7   BANK8   BANK9  BANK10  BANK11  BANK12  BANK13  BANK14  BANK15
      Params:         0       0       0       0       0       0       0       0       0       0       0       0       0       0       0       0       0
      Locals:         0       0       0       0       0       0       0       0       0       0       0       0       0       0       0       0       0
      Temps:          0       0       0       0       0       0       0       0       0       0       0       0       0       0       0       0       0
      Totals:         0       0       0       0       0       0       0       0       0       0       0       0       0       0       0       0       0
Total ram usage:        0 bytes
 Hardware stack levels used:    1
 Hardware stack levels required when called:   12
 This function calls:
		_USBDeviceTasks
 This function is called by:
		_ISR_Function
 This function uses a non-reentrant model


 *************** function _USBDeviceTasks *****************
 Defined at:
		line 477 in file "Library/USB/src/usb_device.c"
 Parameters:    Size  Location     Type
		None
 Auto vars:     Size  Location     Type
  i               1   40[COMRAM] unsigned char 
 Return value:  Size  Location     Type
                  1    wreg      void 
 Registers used:
		wreg, fsr0l, fsr0h, fsr1l, fsr1h, fsr2l, fsr2h, status,2, status,0, tblptrl, tblptrh, tblptru, prodl, prodh, cstack
 Tracked objects:
		On entry : 
		On exit  : 
		Unchanged: 
 Data sizes:     COMRAM   BANK0   BANK1   BANK2   BANK3   BANK4   BANK5   BANK6   BANK7   BANK8   BANK9  BANK10  BANK11  BANK12  BANK13  BANK14  BANK15
      Params:         0       0       0       0       0       0       0       0       0       0       0       0       0       0       0       0       0
      Locals:         1       0       0       0       0       0       0       0       0       0       0       0       0       0       0       0       0
      Temps:          0       0       0       0       0       0       0       0       0       0       0       0       0       0       0       0       0
      Totals:         1       0       0       0       0       0       0       0       0       0       0       0       0       0       0       0       0
Total ram usage:        1 bytes
 Hardware stack levels used:    1
 Hardware stack levels required when called:   11
 This function calls:
		_USBCtrlEPAllowStatusStage
		_USBCtrlEPService
		_USBIncrement1msInternalTimers
		_USBStallHandler
		_USBSuspend
		_USBWakeFromSuspend
		_USER_USB_CALLBACK_EVENT_HANDLER
		i2_USBDeviceInit
 This function is called by:
		_USB_ISR
 This function uses a non-reentrant model


 *************** function i2_USBDeviceInit *****************
 Defined at:
		line 277 in file "Library/USB/src/usb_device.c"
 Parameters:    Size  Location     Type
		None
 Auto vars:     Size  Location     Type
  USBDeviceIni    1    8[COMRAM] unsigned char 
 Return value:  Size  Location     Type
                  1    wreg      void 
 Registers used:
		wreg, fsr2l, fsr2h, status,2, status,0, prodl, prodh, cstack
 Tracked objects:
		On entry : 
		On exit  : 
		Unchanged: 
 Data sizes:     COMRAM   BANK0   BANK1   BANK2   BANK3   BANK4   BANK5   BANK6   BANK7   BANK8   BANK9  BANK10  BANK11  BANK12  BANK13  BANK14  BANK15
      Params:         0       0       0       0       0       0       0       0       0       0       0       0       0       0       0       0       0
      Locals:         1       0       0       0       0       0       0       0       0       0       0       0       0       0       0       0       0
      Temps:          0       0       0       0       0       0       0       0       0       0       0       0       0       0       0       0       0
      Totals:         1       0       0       0       0       0       0       0       0       0       0       0       0       0       0       0       0
Total ram usage:        1 bytes
 Hardware stack levels used:    1
 Hardware stack levels required when called:    1
 This function calls:
		i2_memset
 This function is called by:
		_USBDeviceTasks
 This function uses a non-reentrant model


 *************** function _USBWakeFromSuspend *****************
 Defined at:
		line 2303 in file "Library/USB/src/usb_device.c"
 Parameters:    Size  Location     Type
		None
 Auto vars:     Size  Location     Type
		None
 Return value:  Size  Location     Type
                  1    wreg      void 
 Registers used:
		wreg, fsr0l, fsr0h, fsr2l, fsr2h, status,2, status,0, tblptrl, tblptrh, tblptru, prodl, prodh, cstack
 Tracked objects:
		On entry : 
		On exit  : 
		Unchanged: 
 Data sizes:     COMRAM   BANK0   BANK1   BANK2   BANK3   BANK4   BANK5   BANK6   BANK7   BANK8   BANK9  BANK10  BANK11  BANK12  BANK13  BANK14  BANK15
      Params:         0       0       0       0       0       0       0       0       0       0       0       0       0       0       0       0       0
      Locals:         0       0       0       0       0       0       0       0       0       0       0       0       0       0       0       0       0
      Temps:          0       0       0       0       0       0       0       0       0       0       0       0       0       0       0       0       0
      Totals:         0       0       0       0       0       0       0       0       0       0       0       0       0       0       0       0       0
Total ram usage:        0 bytes
 Hardware stack levels used:    1
 Hardware stack levels required when called:    7
 This function calls:
		_USER_USB_CALLBACK_EVENT_HANDLER
 This function is called by:
		_USBDeviceTasks
 This function uses a non-reentrant model


 *************** function _USBSuspend *****************
 Defined at:
		line 2245 in file "Library/USB/src/usb_device.c"
 Parameters:    Size  Location     Type
		None
 Auto vars:     Size  Location     Type
		None
 Return value:  Size  Location     Type
                  1    wreg      void 
 Registers used:
		wreg, fsr0l, fsr0h, fsr2l, fsr2h, status,2, status,0, tblptrl, tblptrh, tblptru, prodl, prodh, cstack
 Tracked objects:
		On entry : 
		On exit  : 
		Unchanged: 
 Data sizes:     COMRAM   BANK0   BANK1   BANK2   BANK3   BANK4   BANK5   BANK6   BANK7   BANK8   BANK9  BANK10  BANK11  BANK12  BANK13  BANK14  BANK15
      Params:         0       0       0       0       0       0       0       0       0       0       0       0       0       0       0       0       0
      Locals:         0       0       0       0       0       0       0       0       0       0       0       0       0       0       0       0       0
      Temps:          0       0       0       0       0       0       0       0       0       0       0       0       0       0       0       0       0
      Totals:         0       0       0       0       0       0       0       0       0       0       0       0       0       0       0       0       0
Total ram usage:        0 bytes
 Hardware stack levels used:    1
 Hardware stack levels required when called:    7
 This function calls:
		_USER_USB_CALLBACK_EVENT_HANDLER
 This function is called by:
		_USBDeviceTasks
 This function uses a non-reentrant model


 *************** function _USBStallHandler *****************
 Defined at:
		line 2202 in file "Library/USB/src/usb_device.c"
 Parameters:    Size  Location     Type
		None
 Auto vars:     Size  Location     Type
		None
 Return value:  Size  Location     Type
                  1    wreg      void 
 Registers used:
		wreg, fsr2l, fsr2h, status,2, status,0
 Tracked objects:
		On entry : 
		On exit  : 
		Unchanged: 
 Data sizes:     COMRAM   BANK0   BANK1   BANK2   BANK3   BANK4   BANK5   BANK6   BANK7   BANK8   BANK9  BANK10  BANK11  BANK12  BANK13  BANK14  BANK15
      Params:         0       0       0       0       0       0       0       0       0       0       0       0       0       0       0       0       0
      Locals:         0       0       0       0       0       0       0       0       0       0       0       0       0       0       0       0       0
      Temps:          1       0       0       0       0       0       0       0       0       0       0       0       0       0       0       0       0
      Totals:         1       0       0       0       0       0       0       0       0       0       0       0       0       0       0       0       0
Total ram usage:        1 bytes
 Hardware stack levels used:    1
 This function calls:
		Nothing
 This function is called by:
		_USBDeviceTasks
 This function uses a non-reentrant model


 *************** function _USBIncrement1msInternalTimers *****************
 Defined at:
		line 3025 in file "Library/USB/src/usb_device.c"
 Parameters:    Size  Location     Type
		None
 Auto vars:     Size  Location     Type
		None
 Return value:  Size  Location     Type
                  1    wreg      void 
 Registers used:
		wreg, status,2, status,0
 Tracked objects:
		On entry : 
		On exit  : 
		Unchanged: 
 Data sizes:     COMRAM   BANK0   BANK1   BANK2   BANK3   BANK4   BANK5   BANK6   BANK7   BANK8   BANK9  BANK10  BANK11  BANK12  BANK13  BANK14  BANK15
      Params:         0       0       0       0       0       0       0       0       0       0       0       0       0       0       0       0       0
      Locals:         0       0       0       0       0       0       0       0       0       0       0       0       0       0       0       0       0
      Temps:          0       0       0       0       0       0       0       0       0       0       0       0       0       0       0       0       0
      Totals:         0       0       0       0       0       0       0       0       0       0       0       0       0       0       0       0       0
Total ram usage:        0 bytes
 Hardware stack levels used:    1
 This function calls:
		Nothing
 This function is called by:
		_USBDeviceTasks
 This function uses a non-reentrant model


 *************** function _USBCtrlEPService *****************
 Defined at:
		line 2372 in file "Library/USB/src/usb_device.c"
 Parameters:    Size  Location     Type
		None
 Auto vars:     Size  Location     Type
		None
 Return value:  Size  Location     Type
                  1    wreg      void 
 Registers used:
		wreg, fsr0l, fsr0h, fsr1l, fsr1h, fsr2l, fsr2h, status,2, status,0, tblptrl, tblptrh, tblptru, prodl, prodh, cstack
 Tracked objects:
		On entry : 
		On exit  : 
		Unchanged: 
 Data sizes:     COMRAM   BANK0   BANK1   BANK2   BANK3   BANK4   BANK5   BANK6   BANK7   BANK8   BANK9  BANK10  BANK11  BANK12  BANK13  BANK14  BANK15
      Params:         0       0       0       0       0       0       0       0       0       0       0       0       0       0       0       0       0
      Locals:         0       0       0       0       0       0       0       0       0       0       0       0       0       0       0       0       0
      Temps:          1       0       0       0       0       0       0       0       0       0       0       0       0       0       0       0       0
      Totals:         1       0       0       0       0       0       0       0       0       0       0       0       0       0       0       0       0
Total ram usage:        1 bytes
 Hardware stack levels used:    1
 Hardware stack levels required when called:   10
 This function calls:
		_USBCtrlTrfInHandler
		_USBCtrlTrfOutHandler
		_USBCtrlTrfSetupHandler
		_memcpy
 This function is called by:
		_USBDeviceTasks
 This function uses a non-reentrant model


 *************** function _memcpy *****************
 Defined at:
		line 11 in file "C:\Program Files (x86)\Microchip\xc8\v1.38\sources\common\memcpy.c"
 Parameters:    Size  Location     Type
  d1              2    0[COMRAM] PTR void 
		 -> SetupPkt(8), 
  s1              2    2[COMRAM] PTR const void 
		 -> cdc_data_tx(64), cdc_data_rx(64), CtrlTrfData(8), RAM(3903), 
		 -> SetupPkt(8), NULL(0), 
  n               2    4[COMRAM] unsigned int 
 Auto vars:     Size  Location     Type
  s               2    8[COMRAM] PTR const unsigned char 
		 -> cdc_data_tx(64), cdc_data_rx(64), CtrlTrfData(8), RAM(3903), 
		 -> SetupPkt(8), NULL(0), 
  d               2    6[COMRAM] PTR unsigned char 
		 -> SetupPkt(8), 
 Return value:  Size  Location     Type
                  2    0[COMRAM] PTR void 
 Registers used:
		wreg, fsr1l, fsr1h, fsr2l, fsr2h, status,2, status,0
 Tracked objects:
		On entry : 
		On exit  : 
		Unchanged: 
 Data sizes:     COMRAM   BANK0   BANK1   BANK2   BANK3   BANK4   BANK5   BANK6   BANK7   BANK8   BANK9  BANK10  BANK11  BANK12  BANK13  BANK14  BANK15
      Params:         6       0       0       0       0       0       0       0       0       0       0       0       0       0       0       0       0
      Locals:         4       0       0       0       0       0       0       0       0       0       0       0       0       0       0       0       0
      Temps:          0       0       0       0       0       0       0       0       0       0       0       0       0       0       0       0       0
      Totals:        10       0       0       0       0       0       0       0       0       0       0       0       0       0       0       0       0
Total ram usage:       10 bytes
 Hardware stack levels used:    1
 This function calls:
		Nothing
 This function is called by:
		_USBCtrlEPService
 This function uses a non-reentrant model


 *************** function _USBCtrlTrfSetupHandler *****************
 Defined at:
		line 2465 in file "Library/USB/src/usb_device.c"
 Parameters:    Size  Location     Type
		None
 Auto vars:     Size  Location     Type
		None
 Return value:  Size  Location     Type
                  1    wreg      void 
 Registers used:
		wreg, fsr0l, fsr0h, fsr2l, fsr2h, status,2, status,0, tblptrl, tblptrh, tblptru, prodl, prodh, cstack
 Tracked objects:
		On entry : 
		On exit  : 
		Unchanged: 
 Data sizes:     COMRAM   BANK0   BANK1   BANK2   BANK3   BANK4   BANK5   BANK6   BANK7   BANK8   BANK9  BANK10  BANK11  BANK12  BANK13  BANK14  BANK15
      Params:         0       0       0       0       0       0       0       0       0       0       0       0       0       0       0       0       0
      Locals:         0       0       0       0       0       0       0       0       0       0       0       0       0       0       0       0       0
      Temps:          0       0       0       0       0       0       0       0       0       0       0       0       0       0       0       0       0
      Totals:         0       0       0       0       0       0       0       0       0       0       0       0       0       0       0       0       0
Total ram usage:        0 bytes
 Hardware stack levels used:    1
 Hardware stack levels required when called:    9
 This function calls:
		_USBCheckStdRequest
		_USBCtrlEPServiceComplete
		_USER_USB_CALLBACK_EVENT_HANDLER
 This function is called by:
		_USBCtrlEPService
 This function uses a non-reentrant model


 *************** function _USBCtrlEPServiceComplete *****************
 Defined at:
		line 1616 in file "Library/USB/src/usb_device.c"
 Parameters:    Size  Location     Type
		None
 Auto vars:     Size  Location     Type
		None
 Return value:  Size  Location     Type
                  1    wreg      void 
 Registers used:
		wreg, fsr0l, fsr0h, fsr2l, fsr2h, status,2, status,0, tblptrl, tblptrh, tblptru, cstack
 Tracked objects:
		On entry : 
		On exit  : 
		Unchanged: 
 Data sizes:     COMRAM   BANK0   BANK1   BANK2   BANK3   BANK4   BANK5   BANK6   BANK7   BANK8   BANK9  BANK10  BANK11  BANK12  BANK13  BANK14  BANK15
      Params:         0       0       0       0       0       0       0       0       0       0       0       0       0       0       0       0       0
      Locals:         0       0       0       0       0       0       0       0       0       0       0       0       0       0       0       0       0
      Temps:          0       0       0       0       0       0       0       0       0       0       0       0       0       0       0       0       0
      Totals:         0       0       0       0       0       0       0       0       0       0       0       0       0       0       0       0       0
Total ram usage:        0 bytes
 Hardware stack levels used:    1
 Hardware stack levels required when called:    2
 This function calls:
		_USBCtrlEPAllowDataStage
		_USBCtrlEPAllowStatusStage
 This function is called by:
		_USBCtrlTrfSetupHandler
 This function uses a non-reentrant model


 *************** function _USBCtrlEPAllowDataStage *****************
 Defined at:
		line 1488 in file "Library/USB/src/usb_device.c"
 Parameters:    Size  Location     Type
		None
 Auto vars:     Size  Location     Type
		None
 Return value:  Size  Location     Type
                  1    wreg      void 
 Registers used:
		wreg, fsr0l, fsr0h, fsr2l, fsr2h, status,2, status,0, tblptrl, tblptrh, tblptru, cstack
 Tracked objects:
		On entry : 
		On exit  : 
		Unchanged: 
 Data sizes:     COMRAM   BANK0   BANK1   BANK2   BANK3   BANK4   BANK5   BANK6   BANK7   BANK8   BANK9  BANK10  BANK11  BANK12  BANK13  BANK14  BANK15
      Params:         0       0       0       0       0       0       0       0       0       0       0       0       0       0       0       0       0
      Locals:         0       0       0       0       0       0       0       0       0       0       0       0       0       0       0       0       0
      Temps:          0       0       0       0       0       0       0       0       0       0       0       0       0       0       0       0       0
      Totals:         0       0       0       0       0       0       0       0       0       0       0       0       0       0       0       0       0
Total ram usage:        0 bytes
 Hardware stack levels used:    1
 Hardware stack levels required when called:    1
 This function calls:
		_USBCtrlTrfTxService
 This function is called by:
		_USBCtrlEPServiceComplete
 This function uses a non-reentrant model


 *************** function _USBCheckStdRequest *****************
 Defined at:
		line 2686 in file "Library/USB/src/usb_device.c"
 Parameters:    Size  Location     Type
		None
 Auto vars:     Size  Location     Type
		None
 Return value:  Size  Location     Type
                  1    wreg      void 
 Registers used:
		wreg, fsr0l, fsr0h, fsr2l, fsr2h, status,2, status,0, tblptrl, tblptrh, tblptru, prodl, prodh, cstack
 Tracked objects:
		On entry : 
		On exit  : 
		Unchanged: 
 Data sizes:     COMRAM   BANK0   BANK1   BANK2   BANK3   BANK4   BANK5   BANK6   BANK7   BANK8   BANK9  BANK10  BANK11  BANK12  BANK13  BANK14  BANK15
      Params:         0       0       0       0       0       0       0       0       0       0       0       0       0       0       0       0       0
      Locals:         0       0       0       0       0       0       0       0       0       0       0       0       0       0       0       0       0
      Temps:          0       0       0       0       0       0       0       0       0       0       0       0       0       0       0       0       0
      Totals:         0       0       0       0       0       0       0       0       0       0       0       0       0       0       0       0       0
Total ram usage:        0 bytes
 Hardware stack levels used:    1
 Hardware stack levels required when called:    8
 This function calls:
		_USBStdFeatureReqHandler
		_USBStdGetDscHandler
		_USBStdGetStatusHandler
		_USBStdSetCfgHandler
		_USER_USB_CALLBACK_EVENT_HANDLER
 This function is called by:
		_USBCtrlTrfSetupHandler
 This function uses a non-reentrant model


 *************** function _USBStdSetCfgHandler *****************
 Defined at:
		line 1968 in file "Library/USB/src/usb_device.c"
 Parameters:    Size  Location     Type
		None
 Auto vars:     Size  Location     Type
  i               1   33[COMRAM] unsigned char 
 Return value:  Size  Location     Type
                  1    wreg      void 
 Registers used:
		wreg, fsr0l, fsr0h, fsr2l, fsr2h, status,2, status,0, tblptrl, tblptrh, tblptru, prodl, prodh, cstack
 Tracked objects:
		On entry : 
		On exit  : 
		Unchanged: 
 Data sizes:     COMRAM   BANK0   BANK1   BANK2   BANK3   BANK4   BANK5   BANK6   BANK7   BANK8   BANK9  BANK10  BANK11  BANK12  BANK13  BANK14  BANK15
      Params:         0       0       0       0       0       0       0       0       0       0       0       0       0       0       0       0       0
      Locals:         1       0       0       0       0       0       0       0       0       0       0       0       0       0       0       0       0
      Temps:          0       0       0       0       0       0       0       0       0       0       0       0       0       0       0       0       0
      Totals:         1       0       0       0       0       0       0       0       0       0       0       0       0       0       0       0       0
Total ram usage:        1 bytes
 Hardware stack levels used:    1
 Hardware stack levels required when called:    7
 This function calls:
		_USER_USB_CALLBACK_EVENT_HANDLER
		i2_memset
 This function is called by:
		_USBCheckStdRequest
 This function uses a non-reentrant model


 *************** function i2_memset *****************
 Defined at:
		line 8 in file "C:\Program Files (x86)\Microchip\xc8\v1.38\sources\common\memset.c"
 Parameters:    Size  Location     Type
  p1              2    0[COMRAM] PTR void 
		 -> USBAlternateInterface(2), BDT(48), UEP1(1), 
  c               2    2[COMRAM] int 
  n               2    4[COMRAM] unsigned int 
 Auto vars:     Size  Location     Type
  memset          2    6[COMRAM] PTR unsigned char 
		 -> USBAlternateInterface(2), BDT(48), UEP1(1), 
 Return value:  Size  Location     Type
                  2    0[COMRAM] PTR void 
 Registers used:
		wreg, fsr2l, fsr2h, status,2, status,0
 Tracked objects:
		On entry : 
		On exit  : 
		Unchanged: 
 Data sizes:     COMRAM   BANK0   BANK1   BANK2   BANK3   BANK4   BANK5   BANK6   BANK7   BANK8   BANK9  BANK10  BANK11  BANK12  BANK13  BANK14  BANK15
      Params:         6       0       0       0       0       0       0       0       0       0       0       0       0       0       0       0       0
      Locals:         2       0       0       0       0       0       0       0       0       0       0       0       0       0       0       0       0
      Temps:          0       0       0       0       0       0       0       0       0       0       0       0       0       0       0       0       0
      Totals:         8       0       0       0       0       0       0       0       0       0       0       0       0       0       0       0       0
Total ram usage:        8 bytes
 Hardware stack levels used:    1
 This function calls:
		Nothing
 This function is called by:
		_USBStdSetCfgHandler
		i2_USBDeviceInit
 This function uses a non-reentrant model


 *************** function _USBStdGetStatusHandler *****************
 Defined at:
		line 2129 in file "Library/USB/src/usb_device.c"
 Parameters:    Size  Location     Type
		None
 Auto vars:     Size  Location     Type
  p               2    1[COMRAM] PTR struct __BDT
		 -> RAM(3903), NULL(0), BDT(48), 
 Return value:  Size  Location     Type
                  1    wreg      void 
 Registers used:
		wreg, fsr2l, fsr2h, status,2, status,0, prodl, prodh
 Tracked objects:
		On entry : 
		On exit  : 
		Unchanged: 
 Data sizes:     COMRAM   BANK0   BANK1   BANK2   BANK3   BANK4   BANK5   BANK6   BANK7   BANK8   BANK9  BANK10  BANK11  BANK12  BANK13  BANK14  BANK15
      Params:         0       0       0       0       0       0       0       0       0       0       0       0       0       0       0       0       0
      Locals:         2       0       0       0       0       0       0       0       0       0       0       0       0       0       0       0       0
      Temps:          1       0       0       0       0       0       0       0       0       0       0       0       0       0       0       0       0
      Totals:         3       0       0       0       0       0       0       0       0       0       0       0       0       0       0       0       0
Total ram usage:        3 bytes
 Hardware stack levels used:    1
 This function calls:
		Nothing
 This function is called by:
		_USBCheckStdRequest
 This function uses a non-reentrant model


 *************** function _USBStdGetDscHandler *****************
 Defined at:
		line 2043 in file "Library/USB/src/usb_device.c"
 Parameters:    Size  Location     Type
		None
 Auto vars:     Size  Location     Type
		None
 Return value:  Size  Location     Type
                  1    wreg      void 
 Registers used:
		wreg, fsr0l, fsr0h, status,2, status,0, tblptrl, tblptrh, tblptru, prodl, prodh
 Tracked objects:
		On entry : 
		On exit  : 
		Unchanged: 
 Data sizes:     COMRAM   BANK0   BANK1   BANK2   BANK3   BANK4   BANK5   BANK6   BANK7   BANK8   BANK9  BANK10  BANK11  BANK12  BANK13  BANK14  BANK15
      Params:         0       0       0       0       0       0       0       0       0       0       0       0       0       0       0       0       0
      Locals:         0       0       0       0       0       0       0       0       0       0       0       0       0       0       0       0       0
      Temps:          2       0       0       0       0       0       0       0       0       0       0       0       0       0       0       0       0
      Totals:         2       0       0       0       0       0       0       0       0       0       0       0       0       0       0       0       0
Total ram usage:        2 bytes
 Hardware stack levels used:    1
 This function calls:
		Nothing
 This function is called by:
		_USBCheckStdRequest
 This function uses a non-reentrant model


 *************** function _USBStdFeatureReqHandler *****************
 Defined at:
		line 2754 in file "Library/USB/src/usb_device.c"
 Parameters:    Size  Location     Type
		None
 Auto vars:     Size  Location     Type
  p               2   37[COMRAM] PTR struct __BDT
		 -> RAM(3903), NULL(0), BDT(48), 
  pUEP            2   34[COMRAM] PTR unsigned char 
		 -> UEP0(1), 
  current_ep_d    1   36[COMRAM] struct .
 Return value:  Size  Location     Type
                  1    wreg      void 
 Registers used:
		wreg, fsr0l, fsr0h, fsr2l, fsr2h, status,2, status,0, tblptrl, tblptrh, tblptru, prodl, prodh, cstack
 Tracked objects:
		On entry : 
		On exit  : 
		Unchanged: 
 Data sizes:     COMRAM   BANK0   BANK1   BANK2   BANK3   BANK4   BANK5   BANK6   BANK7   BANK8   BANK9  BANK10  BANK11  BANK12  BANK13  BANK14  BANK15
      Params:         0       0       0       0       0       0       0       0       0       0       0       0       0       0       0       0       0
      Locals:         5       0       0       0       0       0       0       0       0       0       0       0       0       0       0       0       0
      Temps:          1       0       0       0       0       0       0       0       0       0       0       0       0       0       0       0       0
      Totals:         6       0       0       0       0       0       0       0       0       0       0       0       0       0       0       0       0
Total ram usage:        6 bytes
 Hardware stack levels used:    1
 Hardware stack levels required when called:    7
 This function calls:
		_USER_USB_CALLBACK_EVENT_HANDLER
 This function is called by:
		_USBCheckStdRequest
 This function uses a non-reentrant model


 *************** function _USER_USB_CALLBACK_EVENT_HANDLER *****************
 Defined at:
		line 48 in file "Library/USB/src/usb_events.c"
 Parameters:    Size  Location     Type
  event           2   25[COMRAM] enum E7418
  pdata           2   27[COMRAM] PTR void 
		 -> RAM(3903), USTATcopy(1), USBActiveConfiguration(1), NULL(0), 
		 -> BDT(48), 
  size            2   29[COMRAM] unsigned int 
 Auto vars:     Size  Location     Type
		None
 Return value:  Size  Location     Type
                  1    wreg      unsigned char 
 Registers used:
		wreg, fsr0l, fsr0h, fsr2l, fsr2h, status,2, status,0, tblptrl, tblptrh, tblptru, prodl, prodh, cstack
 Tracked objects:
		On entry : 
		On exit  : 
		Unchanged: 
 Data sizes:     COMRAM   BANK0   BANK1   BANK2   BANK3   BANK4   BANK5   BANK6   BANK7   BANK8   BANK9  BANK10  BANK11  BANK12  BANK13  BANK14  BANK15
      Params:         6       0       0       0       0       0       0       0       0       0       0       0       0       0       0       0       0
      Locals:         0       0       0       0       0       0       0       0       0       0       0       0       0       0       0       0       0
      Temps:          2       0       0       0       0       0       0       0       0       0       0       0       0       0       0       0       0
      Totals:         8       0       0       0       0       0       0       0       0       0       0       0       0       0       0       0       0
Total ram usage:        8 bytes
 Hardware stack levels used:    1
 Hardware stack levels required when called:    6
 This function calls:
		_CDCInitEP
		_USBCheckCDCRequest
		i2_LED_Toggle
 This function is called by:
		_USBDeviceTasks
		_USBStdSetCfgHandler
		_USBSuspend
		_USBWakeFromSuspend
		_USBCtrlTrfSetupHandler
		_USBCheckStdRequest
		_USBStdFeatureReqHandler
 This function uses a non-reentrant model


 *************** function i2_LED_Toggle *****************
 Defined at:
		line 50 in file "Library/LED.c"
 Parameters:    Size  Location     Type
  pLED            1    wreg     enum E7677
 Auto vars:     Size  Location     Type
  pLED            1   24[COMRAM] enum E7677
 Return value:  Size  Location     Type
                  1    wreg      void 
 Registers used:
		wreg, fsr0l, fsr0h, fsr2l, fsr2h, status,2, status,0, tblptrl, tblptrh, tblptru, prodl, prodh, cstack
 Tracked objects:
		On entry : 
		On exit  : 
		Unchanged: 
 Data sizes:     COMRAM   BANK0   BANK1   BANK2   BANK3   BANK4   BANK5   BANK6   BANK7   BANK8   BANK9  BANK10  BANK11  BANK12  BANK13  BANK14  BANK15
      Params:         0       0       0       0       0       0       0       0       0       0       0       0       0       0       0       0       0
      Locals:         1       0       0       0       0       0       0       0       0       0       0       0       0       0       0       0       0
      Temps:          0       0       0       0       0       0       0       0       0       0       0       0       0       0       0       0       0
      Totals:         1       0       0       0       0       0       0       0       0       0       0       0       0       0       0       0       0
Total ram usage:        1 bytes
 Hardware stack levels used:    1
 Hardware stack levels required when called:    5
 This function calls:
		i2_Port_TogglePin
 This function is called by:
		_USER_USB_CALLBACK_EVENT_HANDLER
 This function uses a non-reentrant model


 *************** function i2_Port_TogglePin *****************
 Defined at:
		line 278 in file "Library/Port.c"
 Parameters:    Size  Location     Type
  pInput          2   20[COMRAM] const PTR struct Port
		 -> PortC(10), 
  pPin            1   22[COMRAM] enum E7688
 Auto vars:     Size  Location     Type
  Port_ToggleP    1   23[COMRAM] unsigned char 
 Return value:  Size  Location     Type
                  1    wreg      void 
 Registers used:
		wreg, fsr0l, fsr0h, fsr2l, fsr2h, status,2, status,0, tblptrl, tblptrh, tblptru, prodl, prodh, cstack
 Tracked objects:
		On entry : 
		On exit  : 
		Unchanged: 
 Data sizes:     COMRAM   BANK0   BANK1   BANK2   BANK3   BANK4   BANK5   BANK6   BANK7   BANK8   BANK9  BANK10  BANK11  BANK12  BANK13  BANK14  BANK15
      Params:         3       0       0       0       0       0       0       0       0       0       0       0       0       0       0       0       0
      Locals:         1       0       0       0       0       0       0       0       0       0       0       0       0       0       0       0       0
      Temps:          0       0       0       0       0       0       0       0       0       0       0       0       0       0       0       0       0
      Totals:         4       0       0       0       0       0       0       0       0       0       0       0       0       0       0       0       0
Total ram usage:        4 bytes
 Hardware stack levels used:    1
 Hardware stack levels required when called:    4
 This function calls:
		i2_Port_GetPin
		i2_Port_SetPin
 This function is called by:
		i2_LED_Toggle
 This function uses a non-reentrant model


 *************** function i2_Port_GetPin *****************
 Defined at:
		line 271 in file "Library/Port.c"
 Parameters:    Size  Location     Type
  pInput          2    0[COMRAM] const PTR struct Port
		 -> PortC(10), PortE(10), PortB(10), 
  pPin            1    2[COMRAM] enum E7688
 Auto vars:     Size  Location     Type
  Port_GetPin     1    5[COMRAM] unsigned char 
 Return value:  Size  Location     Type
                  1    wreg      unsigned char 
 Registers used:
		wreg, fsr2l, fsr2h, status,2, status,0
 Tracked objects:
		On entry : 
		On exit  : 
		Unchanged: 
 Data sizes:     COMRAM   BANK0   BANK1   BANK2   BANK3   BANK4   BANK5   BANK6   BANK7   BANK8   BANK9  BANK10  BANK11  BANK12  BANK13  BANK14  BANK15
      Params:         3       0       0       0       0       0       0       0       0       0       0       0       0       0       0       0       0
      Locals:         1       0       0       0       0       0       0       0       0       0       0       0       0       0       0       0       0
      Temps:          2       0       0       0       0       0       0       0       0       0       0       0       0       0       0       0       0
      Totals:         6       0       0       0       0       0       0       0       0       0       0       0       0       0       0       0       0
Total ram usage:        6 bytes
 Hardware stack levels used:    1
 This function calls:
		Nothing
 This function is called by:
		i2_Port_TogglePin
 This function uses a non-reentrant model


 *************** function _USBCheckCDCRequest *****************
 Defined at:
		line 148 in file "Library/USB/src/usb_device_cdc.c"
 Parameters:    Size  Location     Type
		None
 Auto vars:     Size  Location     Type
		None
 Return value:  Size  Location     Type
                  1    wreg      void 
 Registers used:
		wreg, status,2, status,0
 Tracked objects:
		On entry : 
		On exit  : 
		Unchanged: 
 Data sizes:     COMRAM   BANK0   BANK1   BANK2   BANK3   BANK4   BANK5   BANK6   BANK7   BANK8   BANK9  BANK10  BANK11  BANK12  BANK13  BANK14  BANK15
      Params:         0       0       0       0       0       0       0       0       0       0       0       0       0       0       0       0       0
      Locals:         0       0       0       0       0       0       0       0       0       0       0       0       0       0       0       0       0
      Temps:          0       0       0       0       0       0       0       0       0       0       0       0       0       0       0       0       0
      Totals:         0       0       0       0       0       0       0       0       0       0       0       0       0       0       0       0       0
Total ram usage:        0 bytes
 Hardware stack levels used:    1
 This function calls:
		Nothing
 This function is called by:
		_USER_USB_CALLBACK_EVENT_HANDLER
 This function uses a non-reentrant model


 *************** function _CDCInitEP *****************
 Defined at:
		line 295 in file "Library/USB/src/usb_device_cdc.c"
 Parameters:    Size  Location     Type
		None
 Auto vars:     Size  Location     Type
		None
 Return value:  Size  Location     Type
                  1    wreg      void 
 Registers used:
		wreg, fsr2l, fsr2h, status,2, status,0, prodl, prodh, cstack
 Tracked objects:
		On entry : 
		On exit  : 
		Unchanged: 
 Data sizes:     COMRAM   BANK0   BANK1   BANK2   BANK3   BANK4   BANK5   BANK6   BANK7   BANK8   BANK9  BANK10  BANK11  BANK12  BANK13  BANK14  BANK15
      Params:         0       0       0       0       0       0       0       0       0       0       0       0       0       0       0       0       0
      Locals:         0       0       0       0       0       0       0       0       0       0       0       0       0       0       0       0       0
      Temps:          0       0       0       0       0       0       0       0       0       0       0       0       0       0       0       0       0
      Totals:         0       0       0       0       0       0       0       0       0       0       0       0       0       0       0       0       0
Total ram usage:        0 bytes
 Hardware stack levels used:    1
 Hardware stack levels required when called:    2
 This function calls:
		_USBEnableEndpoint
		i2_USBTransferOnePacket
 This function is called by:
		_USER_USB_CALLBACK_EVENT_HANDLER
 This function uses a non-reentrant model


 *************** function i2_USBTransferOnePacket *****************
 Defined at:
		line 995 in file "Library/USB/src/usb_device.c"
 Parameters:    Size  Location     Type
  ep              1    wreg     unsigned char 
  dir             1    0[COMRAM] unsigned char 
  data            2    1[COMRAM] PTR unsigned char 
		 -> cdc_data_tx(64), cdc_data_rx(64), NULL(0), 
  len             1    3[COMRAM] unsigned char 
 Auto vars:     Size  Location     Type
  ep              1    8[COMRAM] unsigned char 
  USBTransferO    2    9[COMRAM] PTR volatile struct __BD
		 -> RAM(3903), NULL(0), BDT(48), 
 Return value:  Size  Location     Type
                  2    0[COMRAM] PTR void 
 Registers used:
		wreg, fsr2l, fsr2h, status,2, status,0, prodl, prodh
 Tracked objects:
		On entry : 
		On exit  : 
		Unchanged: 
 Data sizes:     COMRAM   BANK0   BANK1   BANK2   BANK3   BANK4   BANK5   BANK6   BANK7   BANK8   BANK9  BANK10  BANK11  BANK12  BANK13  BANK14  BANK15
      Params:         4       0       0       0       0       0       0       0       0       0       0       0       0       0       0       0       0
      Locals:         3       0       0       0       0       0       0       0       0       0       0       0       0       0       0       0       0
      Temps:          4       0       0       0       0       0       0       0       0       0       0       0       0       0       0       0       0
      Totals:        11       0       0       0       0       0       0       0       0       0       0       0       0       0       0       0       0
Total ram usage:       11 bytes
 Hardware stack levels used:    1
 This function calls:
		Nothing
 This function is called by:
		_CDCInitEP
 This function uses a non-reentrant model


 *************** function _USBEnableEndpoint *****************
 Defined at:
		line 878 in file "Library/USB/src/usb_device.c"
 Parameters:    Size  Location     Type
  ep              1    wreg     unsigned char 
  options         1    8[COMRAM] unsigned char 
 Auto vars:     Size  Location     Type
  ep              1   11[COMRAM] unsigned char 
  p               2    9[COMRAM] PTR unsigned char 
		 -> UEP0(1), 
 Return value:  Size  Location     Type
                  1    wreg      void 
 Registers used:
		wreg, fsr2l, fsr2h, status,2, status,0, prodl, prodh, cstack
 Tracked objects:
		On entry : 
		On exit  : 
		Unchanged: 
 Data sizes:     COMRAM   BANK0   BANK1   BANK2   BANK3   BANK4   BANK5   BANK6   BANK7   BANK8   BANK9  BANK10  BANK11  BANK12  BANK13  BANK14  BANK15
      Params:         1       0       0       0       0       0       0       0       0       0       0       0       0       0       0       0       0
      Locals:         3       0       0       0       0       0       0       0       0       0       0       0       0       0       0       0       0
      Temps:          0       0       0       0       0       0       0       0       0       0       0       0       0       0       0       0       0
      Totals:         4       0       0       0       0       0       0       0       0       0       0       0       0       0       0       0       0
Total ram usage:        4 bytes
 Hardware stack levels used:    1
 Hardware stack levels required when called:    1
 This function calls:
		_USBConfigureEndpoint
 This function is called by:
		_CDCInitEP
 This function uses a non-reentrant model


 *************** function _USBConfigureEndpoint *****************
 Defined at:
		line 1543 in file "Library/USB/src/usb_device.c"
 Parameters:    Size  Location     Type
  EPNum           1    wreg     unsigned char 
  direction       1    0[COMRAM] unsigned char 
 Auto vars:     Size  Location     Type
  EPNum           1    5[COMRAM] unsigned char 
  handle          2    6[COMRAM] PTR volatile struct __BD
		 -> BDT(48), 
 Return value:  Size  Location     Type
                  1    wreg      void 
 Registers used:
		wreg, fsr2l, fsr2h, status,2, status,0, prodl, prodh
 Tracked objects:
		On entry : 
		On exit  : 
		Unchanged: 
 Data sizes:     COMRAM   BANK0   BANK1   BANK2   BANK3   BANK4   BANK5   BANK6   BANK7   BANK8   BANK9  BANK10  BANK11  BANK12  BANK13  BANK14  BANK15
      Params:         1       0       0       0       0       0       0       0       0       0       0       0       0       0       0       0       0
      Locals:         3       0       0       0       0       0       0       0       0       0       0       0       0       0       0       0       0
      Temps:          4       0       0       0       0       0       0       0       0       0       0       0       0       0       0       0       0
      Totals:         8       0       0       0       0       0       0       0       0       0       0       0       0       0       0       0       0
Total ram usage:        8 bytes
 Hardware stack levels used:    1
 This function calls:
		Nothing
 This function is called by:
		_USBEnableEndpoint
 This function uses a non-reentrant model


 *************** function _USBCtrlTrfOutHandler *****************
 Defined at:
		line 2538 in file "Library/USB/src/usb_device.c"
 Parameters:    Size  Location     Type
		None
 Auto vars:     Size  Location     Type
		None
 Return value:  Size  Location     Type
                  1    wreg      void 
 Registers used:
		wreg, fsr1l, fsr1h, fsr2l, fsr2h, status,2, status,0, prodl, prodh, cstack
 Tracked objects:
		On entry : 
		On exit  : 
		Unchanged: 
 Data sizes:     COMRAM   BANK0   BANK1   BANK2   BANK3   BANK4   BANK5   BANK6   BANK7   BANK8   BANK9  BANK10  BANK11  BANK12  BANK13  BANK14  BANK15
      Params:         0       0       0       0       0       0       0       0       0       0       0       0       0       0       0       0       0
      Locals:         0       0       0       0       0       0       0       0       0       0       0       0       0       0       0       0       0
      Temps:          0       0       0       0       0       0       0       0       0       0       0       0       0       0       0       0       0
      Totals:         0       0       0       0       0       0       0       0       0       0       0       0       0       0       0       0       0
Total ram usage:        0 bytes
 Hardware stack levels used:    1
 Hardware stack levels required when called:    2
 This function calls:
		_USBCtrlTrfRxService
 This function is called by:
		_USBCtrlEPService
 This function uses a non-reentrant model


 *************** function _USBCtrlTrfRxService *****************
 Defined at:
		line 1852 in file "Library/USB/src/usb_device.c"
 Parameters:    Size  Location     Type
		None
 Auto vars:     Size  Location     Type
  byteToRead      1    1[COMRAM] unsigned char 
  i               1    0[COMRAM] unsigned char 
 Return value:  Size  Location     Type
                  1    wreg      void 
 Registers used:
		wreg, fsr1l, fsr1h, fsr2l, fsr2h, status,2, status,0, prodl, prodh, cstack
 Tracked objects:
		On entry : 
		On exit  : 
		Unchanged: 
 Data sizes:     COMRAM   BANK0   BANK1   BANK2   BANK3   BANK4   BANK5   BANK6   BANK7   BANK8   BANK9  BANK10  BANK11  BANK12  BANK13  BANK14  BANK15
      Params:         0       0       0       0       0       0       0       0       0       0       0       0       0       0       0       0       0
      Locals:         2       0       0       0       0       0       0       0       0       0       0       0       0       0       0       0       0
      Temps:          0       0       0       0       0       0       0       0       0       0       0       0       0       0       0       0       0
      Totals:         2       0       0       0       0       0       0       0       0       0       0       0       0       0       0       0       0
Total ram usage:        2 bytes
 Hardware stack levels used:    1
 Hardware stack levels required when called:    1
 This function calls:
		_USBCtrlEPAllowStatusStage
 This function is called by:
		_USBCtrlTrfOutHandler
 This function uses a non-reentrant model


 *************** function _USBCtrlEPAllowStatusStage *****************
 Defined at:
		line 1416 in file "Library/USB/src/usb_device.c"
 Parameters:    Size  Location     Type
		None
 Auto vars:     Size  Location     Type
		None
 Return value:  Size  Location     Type
                  1    wreg      void 
 Registers used:
		wreg, fsr2l, fsr2h, status,2, status,0
 Tracked objects:
		On entry : 
		On exit  : 
		Unchanged: 
 Data sizes:     COMRAM   BANK0   BANK1   BANK2   BANK3   BANK4   BANK5   BANK6   BANK7   BANK8   BANK9  BANK10  BANK11  BANK12  BANK13  BANK14  BANK15
      Params:         0       0       0       0       0       0       0       0       0       0       0       0       0       0       0       0       0
      Locals:         0       0       0       0       0       0       0       0       0       0       0       0       0       0       0       0       0
      Temps:          0       0       0       0       0       0       0       0       0       0       0       0       0       0       0       0       0
      Totals:         0       0       0       0       0       0       0       0       0       0       0       0       0       0       0       0       0
Total ram usage:        0 bytes
 Hardware stack levels used:    1
 This function calls:
		Nothing
 This function is called by:
		_USBDeviceTasks
		_USBCtrlEPServiceComplete
		_USBCtrlTrfRxService
 This function uses a non-reentrant model


 *************** function _USBCtrlTrfInHandler *****************
 Defined at:
		line 2592 in file "Library/USB/src/usb_device.c"
 Parameters:    Size  Location     Type
		None
 Auto vars:     Size  Location     Type
  lastDTS         1    1[COMRAM] unsigned char 
 Return value:  Size  Location     Type
                  1    wreg      void 
 Registers used:
		wreg, fsr0l, fsr0h, fsr2l, fsr2h, status,2, status,0, tblptrl, tblptrh, tblptru, cstack
 Tracked objects:
		On entry : 
		On exit  : 
		Unchanged: 
 Data sizes:     COMRAM   BANK0   BANK1   BANK2   BANK3   BANK4   BANK5   BANK6   BANK7   BANK8   BANK9  BANK10  BANK11  BANK12  BANK13  BANK14  BANK15
      Params:         0       0       0       0       0       0       0       0       0       0       0       0       0       0       0       0       0
      Locals:         1       0       0       0       0       0       0       0       0       0       0       0       0       0       0       0       0
      Temps:          0       0       0       0       0       0       0       0       0       0       0       0       0       0       0       0       0
      Totals:         1       0       0       0       0       0       0       0       0       0       0       0       0       0       0       0       0
Total ram usage:        1 bytes
 Hardware stack levels used:    1
 Hardware stack levels required when called:    1
 This function calls:
		_USBCtrlTrfTxService
 This function is called by:
		_USBCtrlEPService
 This function uses a non-reentrant model


 *************** function _USBCtrlTrfTxService *****************
 Defined at:
		line 1771 in file "Library/USB/src/usb_device.c"
 Parameters:    Size  Location     Type
		None
 Auto vars:     Size  Location     Type
  byteToSend      1    0[COMRAM] unsigned char 
 Return value:  Size  Location     Type
                  1    wreg      void 
 Registers used:
		wreg, fsr0l, fsr0h, fsr2l, fsr2h, status,2, status,0, tblptrl, tblptrh, tblptru
 Tracked objects:
		On entry : 
		On exit  : 
		Unchanged: 
 Data sizes:     COMRAM   BANK0   BANK1   BANK2   BANK3   BANK4   BANK5   BANK6   BANK7   BANK8   BANK9  BANK10  BANK11  BANK12  BANK13  BANK14  BANK15
      Params:         0       0       0       0       0       0       0       0       0       0       0       0       0       0       0       0       0
      Locals:         1       0       0       0       0       0       0       0       0       0       0       0       0       0       0       0       0
      Temps:          0       0       0       0       0       0       0       0       0       0       0       0       0       0       0       0       0
      Totals:         1       0       0       0       0       0       0       0       0       0       0       0       0       0       0       0       0
Total ram usage:        1 bytes
 Hardware stack levels used:    1
 This function calls:
		Nothing
 This function is called by:
		_USBCtrlEPAllowDataStage
		_USBCtrlTrfInHandler
 This function uses a non-reentrant model


 *************** function _Timer0_ISR *****************
 Defined at:
		line 94 in file "Timer0.c"
 Parameters:    Size  Location     Type
		None
 Auto vars:     Size  Location     Type
		None
 Return value:  Size  Location     Type
                  1    wreg      void 
 Registers used:
		wreg, fsr0l, fsr0h, fsr2l, fsr2h, status,2, status,0, pclat, tosl, tblptrl, tblptrh, tblptru, prodl, prodh, cstack
 Tracked objects:
		On entry : 
		On exit  : 
		Unchanged: 
 Data sizes:     COMRAM   BANK0   BANK1   BANK2   BANK3   BANK4   BANK5   BANK6   BANK7   BANK8   BANK9  BANK10  BANK11  BANK12  BANK13  BANK14  BANK15
      Params:         0       0       0       0       0       0       0       0       0       0       0       0       0       0       0       0       0
      Locals:         0       0       0       0       0       0       0       0       0       0       0       0       0       0       0       0       0
      Temps:          0       0       0       0       0       0       0       0       0       0       0       0       0       0       0       0       0
      Totals:         0       0       0       0       0       0       0       0       0       0       0       0       0       0       0       0       0
Total ram usage:        0 bytes
 Hardware stack levels used:    1
 Hardware stack levels required when called:    5
 This function calls:
		Absolute function
		_Motor_Step
 This function is called by:
		_ISR_Function
 This function uses a non-reentrant model


 *************** function _Motor_Step *****************
 Defined at:
		line 82 in file "Motor.c"
 Parameters:    Size  Location     Type
		None
 Auto vars:     Size  Location     Type
		None
 Return value:  Size  Location     Type
                  1    wreg      void 
 Registers used:
		wreg, fsr0l, fsr0h, fsr2l, fsr2h, status,2, status,0, tblptrl, tblptrh, tblptru, prodl, prodh, cstack
 Tracked objects:
		On entry : 
		On exit  : 
		Unchanged: 
 Data sizes:     COMRAM   BANK0   BANK1   BANK2   BANK3   BANK4   BANK5   BANK6   BANK7   BANK8   BANK9  BANK10  BANK11  BANK12  BANK13  BANK14  BANK15
      Params:         0       0       0       0       0       0       0       0       0       0       0       0       0       0       0       0       0
      Locals:         0       0       0       0       0       0       0       0       0       0       0       0       0       0       0       0       0
      Temps:          2       0       0       0       0       0       0       0       0       0       0       0       0       0       0       0       0
      Totals:         2       0       0       0       0       0       0       0       0       0       0       0       0       0       0       0       0
Total ram usage:        2 bytes
 Hardware stack levels used:    1
 Hardware stack levels required when called:    4
 This function calls:
		_Timer0_Restart
		_Timer0_Stop
		i2_Port_SetPin
 This function is called by:
		_Motor_Move
		_Timer0_ISR
 This function uses a non-reentrant model


 *************** function i2_Port_SetPin *****************
 Defined at:
		line 247 in file "Library/Port.c"
 Parameters:    Size  Location     Type
  pInput          2   15[COMRAM] const PTR struct Port
		 -> PortG(10), PortC(10), PortF(10), PortE(10), 
  pPin            1   17[COMRAM] enum E7688
  pValue          1   18[COMRAM] unsigned char 
 Auto vars:     Size  Location     Type
  Port_SetPin     1   19[COMRAM] enum E7733
 Return value:  Size  Location     Type
                  1    wreg      void 
 Registers used:
		wreg, fsr0l, fsr0h, fsr2l, fsr2h, status,2, status,0, tblptrl, tblptrh, tblptru, prodl, prodh, cstack
 Tracked objects:
		On entry : 
		On exit  : 
		Unchanged: 
 Data sizes:     COMRAM   BANK0   BANK1   BANK2   BANK3   BANK4   BANK5   BANK6   BANK7   BANK8   BANK9  BANK10  BANK11  BANK12  BANK13  BANK14  BANK15
      Params:         4       0       0       0       0       0       0       0       0       0       0       0       0       0       0       0       0
      Locals:         1       0       0       0       0       0       0       0       0       0       0       0       0       0       0       0       0
      Temps:          0       0       0       0       0       0       0       0       0       0       0       0       0       0       0       0       0
      Totals:         5       0       0       0       0       0       0       0       0       0       0       0       0       0       0       0       0
Total ram usage:        5 bytes
 Hardware stack levels used:    1
 Hardware stack levels required when called:    3
 This function calls:
		i2_Byte_SetBit
		i2_Word_GetPair
 This function is called by:
		_Motor_Step
		i2_Port_TogglePin
 This function uses a non-reentrant model


 *************** function i2_Word_GetPair *****************
 Defined at:
		line 156 in file "Library/Types.c"
 Parameters:    Size  Location     Type
  pInput          2   12[COMRAM] PTR struct Word
		 -> PortG(10), PortA(10), PortG_Property(2), PortF_Property(2), 
		 -> PortE_Property(2), PortD_Property(2), PortC_Property(2), PortB_Property(2), 
		 -> PortA_Property(2), PortC(10), PortF(10), PortE(10), 
		 -> PortD(10), PortB(10), NULL(0), 
  pPair           1   14[COMRAM] unsigned char 
 Auto vars:     Size  Location     Type
		None
 Return value:  Size  Location     Type
                  1    wreg      unsigned char 
 Registers used:
		wreg, fsr0l, fsr0h, status,2, status,0, tblptrl, tblptrh, tblptru, prodl, prodh, cstack
 Tracked objects:
		On entry : 
		On exit  : 
		Unchanged: 
 Data sizes:     COMRAM   BANK0   BANK1   BANK2   BANK3   BANK4   BANK5   BANK6   BANK7   BANK8   BANK9  BANK10  BANK11  BANK12  BANK13  BANK14  BANK15
      Params:         3       0       0       0       0       0       0       0       0       0       0       0       0       0       0       0       0
      Locals:         0       0       0       0       0       0       0       0       0       0       0       0       0       0       0       0       0
      Temps:          0       0       0       0       0       0       0       0       0       0       0       0       0       0       0       0       0
      Totals:         3       0       0       0       0       0       0       0       0       0       0       0       0       0       0       0       0
Total ram usage:        3 bytes
 Hardware stack levels used:    1
 Hardware stack levels required when called:    2
 This function calls:
		i2_Byte_GetPair
 This function is called by:
		i2_Port_SetPin
 This function uses a non-reentrant model


 *************** function i2_Byte_GetPair *****************
 Defined at:
		line 87 in file "Library/Types.c"
 Parameters:    Size  Location     Type
  pInput          2    9[COMRAM] PTR struct Byte
		 -> PortA_Property..(2), PortB_Property..(2), PortC_Property..(2), PortD_Property..(2), 
		 -> PortE_Property..(2), PortF_Property..(2), PortG_Property..(2), PortB..(2), 
		 -> PortD..(2), PortE..(2), PortF..(2), PortC..(2), 
		 -> PortA..(2), PortG..(2), PortG(10), PortA(10), 
		 -> PortG_Property(2), PortF_Property(2), PortE_Property(2), PortD_Property(2), 
		 -> PortC_Property(2), PortB_Property(2), PortA_Property(2), PortC(10), 
		 -> PortF(10), PortE(10), PortD(10), PortB(10), 
		 -> NULL(0), 
  pPair           1   11[COMRAM] unsigned char 
 Auto vars:     Size  Location     Type
		None
 Return value:  Size  Location     Type
                  1    wreg      unsigned char 
 Registers used:
		wreg, fsr0l, fsr0h, status,2, status,0, tblptrl, tblptrh, tblptru, prodl, prodh, cstack
 Tracked objects:
		On entry : 
		On exit  : 
		Unchanged: 
 Data sizes:     COMRAM   BANK0   BANK1   BANK2   BANK3   BANK4   BANK5   BANK6   BANK7   BANK8   BANK9  BANK10  BANK11  BANK12  BANK13  BANK14  BANK15
      Params:         3       0       0       0       0       0       0       0       0       0       0       0       0       0       0       0       0
      Locals:         0       0       0       0       0       0       0       0       0       0       0       0       0       0       0       0       0
      Temps:          0       0       0       0       0       0       0       0       0       0       0       0       0       0       0       0       0
      Totals:         3       0       0       0       0       0       0       0       0       0       0       0       0       0       0       0       0
Total ram usage:        3 bytes
 Hardware stack levels used:    1
 Hardware stack levels required when called:    1
 This function calls:
		i2_Byte_GetZone
 This function is called by:
		i2_Word_GetPair
 This function uses a non-reentrant model


 *************** function i2_Byte_GetZone *****************
 Defined at:
		line 64 in file "Library/Types.c"
 Parameters:    Size  Location     Type
  pInput          2    0[COMRAM] PTR struct Byte
		 -> PortA_Property..(2), PortB_Property..(2), PortC_Property..(2), PortD_Property..(2), 
		 -> PortE_Property..(2), PortF_Property..(2), PortG_Property..(2), PortB..(2), 
		 -> PortD..(2), PortE..(2), PortF..(2), PortC..(2), 
		 -> PortA..(2), PortG..(2), PortG(10), PortA(10), 
		 -> PortG_Property(2), PortF_Property(2), PortE_Property(2), PortD_Property(2), 
		 -> PortC_Property(2), PortB_Property(2), PortA_Property(2), PortC(10), 
		 -> PortF(10), PortE(10), PortD(10), PortB(10), 
		 -> NULL(0), 
  pMax            1    2[COMRAM] unsigned char 
  pChunk          1    3[COMRAM] unsigned char 
  pChunkSize      1    4[COMRAM] unsigned char 
 Auto vars:     Size  Location     Type
  Byte_GetZone    1    8[COMRAM] unsigned char 
  Byte_GetZone    1    7[COMRAM] unsigned char 
  Byte_GetZone    1    6[COMRAM] unsigned char 
 Return value:  Size  Location     Type
                  1    wreg      unsigned char 
 Registers used:
		wreg, fsr0l, fsr0h, status,2, status,0, tblptrl, tblptrh, tblptru, prodl, prodh
 Tracked objects:
		On entry : 
		On exit  : 
		Unchanged: 
 Data sizes:     COMRAM   BANK0   BANK1   BANK2   BANK3   BANK4   BANK5   BANK6   BANK7   BANK8   BANK9  BANK10  BANK11  BANK12  BANK13  BANK14  BANK15
      Params:         5       0       0       0       0       0       0       0       0       0       0       0       0       0       0       0       0
      Locals:         3       0       0       0       0       0       0       0       0       0       0       0       0       0       0       0       0
      Temps:          1       0       0       0       0       0       0       0       0       0       0       0       0       0       0       0       0
      Totals:         9       0       0       0       0       0       0       0       0       0       0       0       0       0       0       0       0
Total ram usage:        9 bytes
 Hardware stack levels used:    1
 This function calls:
		Nothing
 This function is called by:
		i2_Byte_GetPair
 This function uses a non-reentrant model


 *************** function i2_Byte_SetBit *****************
 Defined at:
		line 32 in file "Library/Types.c"
 Parameters:    Size  Location     Type
  pInput          2    0[COMRAM] PTR struct Byte
		 -> SSP2CON2(1), SSP1CON2(1), SSP2CON1(1), SSP2STAT(1), 
		 -> SSP1CON1(1), SSP1STAT(1), TRISG(1), TRISF(1), 
		 -> TRISE(1), TRISD(1), TRISC(1), TRISB(1), 
		 -> TRISA(1), PORTG(1), PORTF(1), PORTE(1), 
		 -> PORTD(1), PORTC(1), PORTB(1), PORTA(1), 
		 -> NULL(0), 
  pBit            1    2[COMRAM] unsigned char 
  pValue          1    3[COMRAM] unsigned char 
 Auto vars:     Size  Location     Type
		None
 Return value:  Size  Location     Type
                  1    wreg      void 
 Registers used:
		wreg, fsr2l, fsr2h, status,2, status,0
 Tracked objects:
		On entry : 
		On exit  : 
		Unchanged: 
 Data sizes:     COMRAM   BANK0   BANK1   BANK2   BANK3   BANK4   BANK5   BANK6   BANK7   BANK8   BANK9  BANK10  BANK11  BANK12  BANK13  BANK14  BANK15
      Params:         4       0       0       0       0       0       0       0       0       0       0       0       0       0       0       0       0
      Locals:         0       0       0       0       0       0       0       0       0       0       0       0       0       0       0       0       0
      Temps:          3       0       0       0       0       0       0       0       0       0       0       0       0       0       0       0       0
      Totals:         7       0       0       0       0       0       0       0       0       0       0       0       0       0       0       0       0
Total ram usage:        7 bytes
 Hardware stack levels used:    1
 This function calls:
		Nothing
 This function is called by:
		i2_Port_SetPin
 This function uses a non-reentrant model


 *************** function _Timer0_Stop *****************
 Defined at:
		line 89 in file "Timer0.c"
 Parameters:    Size  Location     Type
		None
 Auto vars:     Size  Location     Type
		None
 Return value:  Size  Location     Type
                  1    wreg      void 
 Registers used:
		None
 Tracked objects:
		On entry : 
		On exit  : 
		Unchanged: 
 Data sizes:     COMRAM   BANK0   BANK1   BANK2   BANK3   BANK4   BANK5   BANK6   BANK7   BANK8   BANK9  BANK10  BANK11  BANK12  BANK13  BANK14  BANK15
      Params:         0       0       0       0       0       0       0       0       0       0       0       0       0       0       0       0       0
      Locals:         0       0       0       0       0       0       0       0       0       0       0       0       0       0       0       0       0
      Temps:          0       0       0       0       0       0       0       0       0       0       0       0       0       0       0       0       0
      Totals:         0       0       0       0       0       0       0       0       0       0       0       0       0       0       0       0       0
Total ram usage:        0 bytes
 Hardware stack levels used:    1
 This function calls:
		Nothing
 This function is called by:
		_Motor_Step
 This function uses a non-reentrant model


 *************** function _Timer0_Restart *****************
 Defined at:
		line 82 in file "Timer0.c"
 Parameters:    Size  Location     Type
		None
 Auto vars:     Size  Location     Type
		None
 Return value:  Size  Location     Type
                  1    wreg      void 
 Registers used:
		wreg, status,2, status,0
 Tracked objects:
		On entry : 
		On exit  : 
		Unchanged: 
 Data sizes:     COMRAM   BANK0   BANK1   BANK2   BANK3   BANK4   BANK5   BANK6   BANK7   BANK8   BANK9  BANK10  BANK11  BANK12  BANK13  BANK14  BANK15
      Params:         0       0       0       0       0       0       0       0       0       0       0       0       0       0       0       0       0
      Locals:         0       0       0       0       0       0       0       0       0       0       0       0       0       0       0       0       0
      Temps:          0       0       0       0       0       0       0       0       0       0       0       0       0       0       0       0       0
      Totals:         0       0       0       0       0       0       0       0       0       0       0       0       0       0       0       0       0
Total ram usage:        0 bytes
 Hardware stack levels used:    1
 This function calls:
		Nothing
 This function is called by:
		_Motor_Step
 This function uses a non-reentrant model



MODULE INFORMATION

Module		Function		Class		Link	Load	Size
Library/LCD.c
		_LCD_Init      		CODE           	1189C	0000	303
		_LCD_FillRectangle		CODE           	141E6	0000	83
		_Configure_GPIOs		CODE           	14376	0000	75
		_LCD_DrawField 		CODE           	13944	0000	125
		_Set_Addr_Window		CODE           	13418	0000	141
		_LCD_Word_Write		CODE           	14FCE	0000	25
		_LCD_Reset     		CODE           	139C0	0000	123
		_Set_Rotation  		CODE           	1363C	0000	133
		_Reset_Low     		CODE           	0000	0000	1
		_LCD_Write     		CODE           	1494E	0000	57
		_LCD_Fill      		CODE           	145B4	0000	69
		_Reset_High    		CODE           	0000	0000	1

Library/LCD.c estimated size: 1136

MXK.c
		_MXK_BlockSwitchTo		CODE           	14A90	0000	51
		_MXK_Release   		CODE           	15098	0000	9
		_MXK_Init      		CODE           	11AF2	0000	287

MXK.c estimated size: 347

C:\Program Files (x86)\Microchip\xc8\v1.38\sources\common\lwmod.c
		___lwmod       		CODE           	14452	0000	73

C:\Program Files (x86)\Microchip\xc8\v1.38\sources\common\lwmod.c estimated size: 73

C:\Program Files (x86)\Microchip\xc8\v1.38\sources\common\memcpy.c
		_memcpy        		CODE           	1473E	0000	63

C:\Program Files (x86)\Microchip\xc8\v1.38\sources\common\memcpy.c estimated size: 63

C:\Program Files (x86)\Microchip\xc8\v1.38\sources\common\Umul16.c
		___wmul        		CODE           	14DE4	0000	41

C:\Program Files (x86)\Microchip\xc8\v1.38\sources\common\Umul16.c estimated size: 41

Library/Port.c
		_GetPortTRIS   		CODE           	136C0	0000	131
		_GetPortPORT   		CODE           	137C4	0000	131
		_Port_TogglePin		CODE           	14C90	0000	45
		_Port_SetPinType		CODE           	10F5A	0000	399
		_Port_Init     		CODE           	110E8	0000	355
		_GetPortProperties		CODE           	13742	0000	131
		_Port_GetPin   		CODE           	147F4	0000	61
		_Port_GetQuad  		CODE           	146C0	0000	65
		_Port_Set      		CODE           	1034A	0000	633
		_Port_SetPin   		CODE           	13B2C	0000	113
		_Port_SetType  		CODE           	10A24	0000	453
		_Port_CheckQuadType		CODE           	1428A	0000	81
		_Port_CheckPairType		CODE           	13F84	0000	97
		_Port_CheckPortType		CODE           	14700	0000	63
		_Port_SetQuadType		CODE           	10822	0000	515

Library/Port.c estimated size: 3273

Library/LED.c
		_LED_Init      		CODE           	1440A	0000	73
		_LED_Set       		CODE           	14986	0000	55
		_LED_Toggle    		CODE           	14A5C	0000	53

Library/LED.c estimated size: 181

Events.c
		_Event_HMI_UpButton		CODE           	14A28	0000	53
		_Event_DIPSwitch		CODE           	14AC2	0000	51
		_Event_HMI_DIPSwitch		CODE           	14C0A	0000	47
		_Event_HMI_LeftButton		CODE           	143C0	0000	75
		_Event_HMI_DownButton		CODE           	149BC	0000	55
		_Event_USBRecieve		CODE           	14C38	0000	45
		_Event_HMI_RightButton		CODE           	1477C	0000	61
		_Event_TestButton		CODE           	147B8	0000	61

Events.c estimated size: 448

Motor.c
		_Motor_Move    		CODE           	14830	0000	59
		_Motor_Step    		CODE           	12BFE	0000	181
		_Motor_Speed   		CODE           	14E0C	0000	39
		_Motor_Init    		CODE           	138C6	0000	127
		_Motor_Continious		CODE           	1486A	0000	59

Motor.c estimated size: 465

Library/USB/src/usb_device_cdc.c
		_CDCTxService  		CODE           	113A2	0000	327
		_CDCInitEP     		CODE           	1413E	0000	85
		_putUSBUSART   		CODE           	14F46	0000	31
		_getsUSBUSART  		CODE           	13140	0000	153
		_USBCheckCDCRequest		CODE           	13008	0000	159

Library/USB/src/usb_device_cdc.c estimated size: 755

USB_Wrap.c
		_USB_Poll      		CODE           	15046	0000	17
		_USB_ISR       		CODE           	0000	0000	1
		_USB_Init      		CODE           	14F28	0000	31
		_USB_Tasks     		CODE           	1463C	0000	67
		_USB_Print     		CODE           	14EA0	0000	37

USB_Wrap.c estimated size: 153

C:\Program Files (x86)\Microchip\xc8\v1.38\sources\common\lwdiv.c
		___lwdiv       		CODE           	14096	0000	85

C:\Program Files (x86)\Microchip\xc8\v1.38\sources\common\lwdiv.c estimated size: 85

C:\Program Files (x86)\Microchip\xc8\v1.38\sources\common\awdiv.c
		___awdiv       		CODE           	1352E	0000	137

C:\Program Files (x86)\Microchip\xc8\v1.38\sources\common\awdiv.c estimated size: 137

C:\Program Files (x86)\Microchip\xc8\v1.38\sources\common\lldiv.c
		___lldiv       		CODE           	13846	0000	129

C:\Program Files (x86)\Microchip\xc8\v1.38\sources\common\lldiv.c estimated size: 129

Functions.c
		_FunctHMI      		CODE           	14F64	0000	29
		_FunctInitLCD  		CODE           	14FB6	0000	25
		_FunctInitUSB  		CODE           	150B0	0000	5
		_FunctInitHMI  		CODE           	14DBC	0000	41
		_FunctMotor    		CODE           	13EC4	0000	97
		_FunctInitMotor		CODE           	14528	0000	71
		_FunctButton   		CODE           	14E58	0000	37
		_FunctUSB      		CODE           	150AC	0000	5
		_FunctInitButton		CODE           	1456E	0000	71

Functions.c estimated size: 381

HMI.c
		_HMI_Poll      		CODE           	13FE4	0000	93
		_HMI_SetSegments		CODE           	126BE	0000	203
		_HMI_Render    		CODE           	14916	0000	57
		_OutSeg        		CODE           	13B9C	0000	109
		_HMI_Init      		CODE           	11D28	0000	277
		_HMI_GetBar    		CODE           	150A0	0000	7
		_HMI_SetUp     		CODE           	14FE6	0000	21
		_HMI_SetBar    		CODE           	15086	0000	11
		_HMI_SetLeft   		CODE           	1500E	0000	21
		_HMI_SetDown   		CODE           	15022	0000	21
		_HMI_SetRight  		CODE           	14FFA	0000	21
		_HMI_SetNumber 		CODE           	14E7C	0000	37
		_HMI_SetButton 		CODE           	13A3A	0000	123

HMI.c estimated size: 1001

shared
		_InitList      		MEDIUMCONST    	FBEF	0000	179
		_configDescriptor1		MEDIUMCONST    	FEF2	0000	68
		_USB_CD_Ptr    		MEDIUMCONST    	FD0F	0000	3
		_sd001         		MEDIUMCONST    	FF35	0000	53
		_PortE_Property		MEDIUMCONST    	FFBB	0000	3
		i2_LED_Toggle  		CODE           	14CE8	0000	45
		i2_Byte_SetBit 		CODE           	1449A	0000	73
		_Font5x7       		MEDIUMCONST    	FD12	0000	481
		PortProperty_Valid@F7768		MEDIUMCONST    	FCA1	0000	17
		Timer2_Init@PRESCALE		MEDIUMCONST    	FD0C	0000	4
		_sd002         		MEDIUMCONST    	FF69	0000	53
		_PortF_Property		MEDIUMCONST    	FFBD	0000	3
		i2_Byte_GetZone		CODE           	0000	0000	1
		i2_Byte_GetPair		CODE           	132FE	0000	143
		i2_USBDeviceInit		CODE           	1205E	0000	269
		_TEVALS        		MEDIUMCONST    	FCFA	0000	9
		_PortA_Property		MEDIUMCONST    	FFB3	0000	3
		_LLVALS        		MEDIUMCONST    	FCCA	0000	9
		_BLOCKS_COUNT  		MEDIUMCONST    	FD11	0000	2
		_PortG_Property		MEDIUMCONST    	FFBF	0000	3
		_LNVALS        		MEDIUMCONST    	FCD2	0000	9
		_RLVALS        		MEDIUMCONST    	FCE2	0000	9
		__initialization		CODE           	12788	0000	189
		_device_dsc    		MEDIUMCONST    	FF9D	0000	19
		_PortB_Property		MEDIUMCONST    	FFB5	0000	3
		_MASKS         		MEDIUMCONST    	FCC1	0000	10
		_SQVALS        		MEDIUMCONST    	FCF2	0000	9
		HMI_SetButton@F8267		MEDIUMCONST    	FD08	0000	5
		i2_Word_GetPair		CODE           	14D92	0000	43
		i2_Port_TogglePin		CODE           	14D68	0000	43
		i2_Port_GetPin 		CODE           	149F2	0000	55
		i2_Port_SetPin 		CODE           	13E62	0000	99
		_LZVALS        		MEDIUMCONST    	FCDA	0000	9
		_PortC_Property		MEDIUMCONST    	FFB7	0000	3
		_RZVALS        		MEDIUMCONST    	FCEA	0000	9
		_USB_SD_Ptr    		MEDIUMCONST    	FD02	0000	7
		i2_memset      		CODE           	14D3E	0000	43
		Timer0_Init@PRESCALE		MEDIUMCONST    	FCB1	0000	17
		_sd000         		MEDIUMCONST    	FFAF	0000	5
		_PortD_Property		MEDIUMCONST    	FFB9	0000	3
		i2_USBTransferOnePacket		CODE           	1226A	0000	247

shared estimated size: 2257

C:\Program Files (x86)\Microchip\xc8\v1.38\sources\common\strlen.c
		_strlen        		CODE           	145F8	0000	69

C:\Program Files (x86)\Microchip\xc8\v1.38\sources\common\strlen.c estimated size: 69

Library/Button.c
		_Button_Poll   		CODE           	11E3C	0000	277
		_Button_Init   		CODE           	130A6	0000	155
		_Button_State  		CODE           	134A4	0000	139

Library/Button.c estimated size: 571

C:\Program Files (x86)\Microchip\xc8\v1.38\sources\common\memset.c
		_memset        		CODE           	14B52	0000	47

C:\Program Files (x86)\Microchip\xc8\v1.38\sources\common\memset.c estimated size: 47

Timer2.c
		_Timer2_Init   		CODE           	1162C	0000	319
		_Timer2_Clear  		CODE           	15090	0000	9

Timer2.c estimated size: 328

Timer0.c
		_Timer0_ISR    		CODE           	14F08	0000	33
		_Timer0_Init   		CODE           	114E8	0000	325
		_Timer0_Stop   		CODE           	150A6	0000	7
		_Timer0_Clear  		CODE           	15064	0000	13
		_Timer0_Start  		CODE           	14E32	0000	39
		_Timer0_Restart		CODE           	14F9C	0000	27

Timer0.c estimated size: 444

Library/USB/src/usb_device.c
		_USBCtrlTrfInHandler		CODE           	12D64	0000	179
		_USBTransferOnePacket		CODE           	1216A	0000	257
		_USBDeviceAttach		CODE           	14B80	0000	47
		_USBStdGetDscHandler		CODE           	1176A	0000	307
		_USBCtrlEPAllowDataStage		CODE           	131D8	0000	151
		_USBStdFeatureReqHandler		CODE           	105C2	0000	609
		_USBCtrlEPAllowStatusStage		CODE           	12A8A	0000	189
		_USBCtrlTrfSetupHandler		CODE           	13CD8	0000	101
		_USBCtrlTrfOutHandler		CODE           	14192	0000	85
		_USBCtrlEPServiceComplete		CODE           	12360	0000	227
		_USBSuspend    		CODE           	14EE6	0000	35
		_USBStdSetCfgHandler		CODE           	1284E	0000	193
		_USBStdGetStatusHandler		CODE           	12F68	0000	161
		_USBWakeFromSuspend		CODE           	14D14	0000	43
		_USBCtrlTrfRxService		CODE           	11F50	0000	271
		_USBCtrlTrfTxService		CODE           	12522	0000	209
		_USBEnableEndpoint		CODE           	148A4	0000	59
		_USBConfigureEndpoint		CODE           	1326E	0000	145
		_USBDeviceInit 		CODE           	11C10	0000	281
		_USBIncrement1msInternalTimers		CODE           	14F80	0000	29
		_USBCtrlEPService		CODE           	135B6	0000	135
		_USBStallHandler		CODE           	1467E	0000	67
		_USBDeviceTasks		CODE           	119CA	0000	297
		_USBCheckStdRequest		CODE           	12B46	0000	185

Library/USB/src/usb_device.c estimated size: 4262

ISR.c
		_ISR_Function  		CODE           	0008	0000	141
		_ISR_Enable    		CODE           	1507C	0000	11

ISR.c estimated size: 152

C:\Program Files (x86)\Microchip\xc8\v1.38\sources\common\doprnt.c
		_printf        		CODE           	12442	0000	225

C:\Program Files (x86)\Microchip\xc8\v1.38\sources\common\doprnt.c estimated size: 225

Library/SPI.c
		_SPI_MinSpeed  		CODE           	13D3C	0000	99
		_SPI_DisableISR		CODE           	14EC4	0000	35
		_SPI_MaxSpeed  		CODE           	13F24	0000	97
		_SPI_Init      		CODE           	10000	0000	843
		_SPI_Send      		CODE           	13E00	0000	99
		_SPI_Send9     		CODE           	125F2	0000	205
		_SPI_DCS       		CODE           	14C64	0000	45

Library/SPI.c estimated size: 1423

Library/USB/src/usb_events.c
		_USER_USB_CALLBACK_EVENT_HANDLER		CODE           	140EA	0000	85

Library/USB/src/usb_events.c estimated size: 85

main.c
		_main          		CODE           	14B24	0000	47

main.c estimated size: 47

Library/Console.c
		_Console_NewLine		CODE           	13AB4	0000	121
		_putch         		CODE           	1124A	0000	345
		_Console_ClearCursor		CODE           	14AF4	0000	49
		_Console_Tab   		CODE           	1338C	0000	141
		_Console_IncrementCursor		CODE           	142DA	0000	79
		_Console_FormFeed		CODE           	13C08	0000	107
		_Console_Init  		CODE           	13C72	0000	103
		_Console_Backspace		CODE           	144E2	0000	71
		_Console_MakeField		CODE           	12EC0	0000	169
		_Console_PrintChar		CODE           	0000	0000	1
		_Console_Render		CODE           	10DA2	0000	441

Library/Console.c estimated size: 1627

Library/Types.c
		_Word_GetPair  		CODE           	14CBC	0000	45
		_delay_us      		CODE           	148DE	0000	57
		_ToSegment     		CODE           	10BE8	0000	443
		_Byte_GetBit   		CODE           	14BDC	0000	47
		_Word_SetPair  		CODE           	14BAE	0000	47
		_itos          		CODE           	12CB2	0000	179
		_Byte_GetZone  		CODE           	0000	0000	1
		_Byte_GetPair  		CODE           	12E16	0000	171
		_Byte_SetBit   		CODE           	14238	0000	83
		_Byte_SetQuad  		CODE           	1290E	0000	191
		_Byte_SetZone  		CODE           	0000	0000	1
		_Byte_SetPair  		CODE           	129CC	0000	191
		_Byte_SetPort  		CODE           	15056	0000	15
		_delay_ms      		CODE           	14328	0000	79
		_reverse       		CODE           	14040	0000	87
		_PortProperty_Valid		CODE           	13D9E	0000	99

Library/Types.c estimated size: 1736

